
kernel:     file format elf32-i386


Disassembly of section .text:

80100000 <multiboot_header>:
80100000:	02 b0 ad 1b 00 00    	add    0x1bad(%eax),%dh
80100006:	00 00                	add    %al,(%eax)
80100008:	fe 4f 52             	decb   0x52(%edi)
8010000b:	e4                   	.byte 0xe4

8010000c <entry>:

# Entering xv6 on boot processor, with paging off.
.globl entry
entry:
  # Turn on page size extension for 4Mbyte pages
  movl    %cr4, %eax
8010000c:	0f 20 e0             	mov    %cr4,%eax
  orl     $(CR4_PSE), %eax
8010000f:	83 c8 10             	or     $0x10,%eax
  movl    %eax, %cr4
80100012:	0f 22 e0             	mov    %eax,%cr4
  # Set page directory
  movl    $(V2P_WO(entrypgdir)), %eax
80100015:	b8 00 b0 10 00       	mov    $0x10b000,%eax
  movl    %eax, %cr3
8010001a:	0f 22 d8             	mov    %eax,%cr3
  # Turn on paging.
  movl    %cr0, %eax
8010001d:	0f 20 c0             	mov    %cr0,%eax
  orl     $(CR0_PG|CR0_WP), %eax
80100020:	0d 00 00 01 80       	or     $0x80010000,%eax
  movl    %eax, %cr0
80100025:	0f 22 c0             	mov    %eax,%cr0

  # Set up the stack pointer.
  movl $(stack + KSTACKSIZE), %esp
80100028:	bc 70 d6 10 80       	mov    $0x8010d670,%esp

  # Jump to main(), and switch to executing at
  # high addresses. The indirect call is needed because
  # the assembler produces a PC-relative instruction
  # for a direct jump.
  mov $main, %eax
8010002d:	b8 8f 38 10 80       	mov    $0x8010388f,%eax
  jmp *%eax
80100032:	ff e0                	jmp    *%eax

80100034 <binit>:
  struct buf head;
} bcache;

void
binit(void)
{
80100034:	55                   	push   %ebp
80100035:	89 e5                	mov    %esp,%ebp
80100037:	83 ec 18             	sub    $0x18,%esp
  struct buf *b;

  initlock(&bcache.lock, "bcache");
8010003a:	83 ec 08             	sub    $0x8,%esp
8010003d:	68 2c 8a 10 80       	push   $0x80108a2c
80100042:	68 80 d6 10 80       	push   $0x8010d680
80100047:	e8 28 53 00 00       	call   80105374 <initlock>
8010004c:	83 c4 10             	add    $0x10,%esp

//PAGEBREAK!
  // Create linked list of buffers
  bcache.head.prev = &bcache.head;
8010004f:	c7 05 90 15 11 80 84 	movl   $0x80111584,0x80111590
80100056:	15 11 80 
  bcache.head.next = &bcache.head;
80100059:	c7 05 94 15 11 80 84 	movl   $0x80111584,0x80111594
80100060:	15 11 80 
  for(b = bcache.buf; b < bcache.buf+NBUF; b++){
80100063:	c7 45 f4 b4 d6 10 80 	movl   $0x8010d6b4,-0xc(%ebp)
8010006a:	eb 3a                	jmp    801000a6 <binit+0x72>
    b->next = bcache.head.next;
8010006c:	8b 15 94 15 11 80    	mov    0x80111594,%edx
80100072:	8b 45 f4             	mov    -0xc(%ebp),%eax
80100075:	89 50 10             	mov    %edx,0x10(%eax)
    b->prev = &bcache.head;
80100078:	8b 45 f4             	mov    -0xc(%ebp),%eax
8010007b:	c7 40 0c 84 15 11 80 	movl   $0x80111584,0xc(%eax)
    b->dev = -1;
80100082:	8b 45 f4             	mov    -0xc(%ebp),%eax
80100085:	c7 40 04 ff ff ff ff 	movl   $0xffffffff,0x4(%eax)
    bcache.head.next->prev = b;
8010008c:	a1 94 15 11 80       	mov    0x80111594,%eax
80100091:	8b 55 f4             	mov    -0xc(%ebp),%edx
80100094:	89 50 0c             	mov    %edx,0xc(%eax)
    bcache.head.next = b;
80100097:	8b 45 f4             	mov    -0xc(%ebp),%eax
8010009a:	a3 94 15 11 80       	mov    %eax,0x80111594

//PAGEBREAK!
  // Create linked list of buffers
  bcache.head.prev = &bcache.head;
  bcache.head.next = &bcache.head;
  for(b = bcache.buf; b < bcache.buf+NBUF; b++){
8010009f:	81 45 f4 18 02 00 00 	addl   $0x218,-0xc(%ebp)
801000a6:	b8 84 15 11 80       	mov    $0x80111584,%eax
801000ab:	39 45 f4             	cmp    %eax,-0xc(%ebp)
801000ae:	72 bc                	jb     8010006c <binit+0x38>
    b->prev = &bcache.head;
    b->dev = -1;
    bcache.head.next->prev = b;
    bcache.head.next = b;
  }
}
801000b0:	90                   	nop
801000b1:	c9                   	leave  
801000b2:	c3                   	ret    

801000b3 <bget>:
// Look through buffer cache for block on device dev.
// If not found, allocate a buffer.
// In either case, return B_BUSY buffer.
static struct buf*
bget(uint dev, uint blockno)
{
801000b3:	55                   	push   %ebp
801000b4:	89 e5                	mov    %esp,%ebp
801000b6:	83 ec 18             	sub    $0x18,%esp
  struct buf *b;

  acquire(&bcache.lock);
801000b9:	83 ec 0c             	sub    $0xc,%esp
801000bc:	68 80 d6 10 80       	push   $0x8010d680
801000c1:	e8 d0 52 00 00       	call   80105396 <acquire>
801000c6:	83 c4 10             	add    $0x10,%esp

 loop:
  // Is the block already cached?
  for(b = bcache.head.next; b != &bcache.head; b = b->next){
801000c9:	a1 94 15 11 80       	mov    0x80111594,%eax
801000ce:	89 45 f4             	mov    %eax,-0xc(%ebp)
801000d1:	eb 67                	jmp    8010013a <bget+0x87>
    if(b->dev == dev && b->blockno == blockno){
801000d3:	8b 45 f4             	mov    -0xc(%ebp),%eax
801000d6:	8b 40 04             	mov    0x4(%eax),%eax
801000d9:	3b 45 08             	cmp    0x8(%ebp),%eax
801000dc:	75 53                	jne    80100131 <bget+0x7e>
801000de:	8b 45 f4             	mov    -0xc(%ebp),%eax
801000e1:	8b 40 08             	mov    0x8(%eax),%eax
801000e4:	3b 45 0c             	cmp    0xc(%ebp),%eax
801000e7:	75 48                	jne    80100131 <bget+0x7e>
      if(!(b->flags & B_BUSY)){
801000e9:	8b 45 f4             	mov    -0xc(%ebp),%eax
801000ec:	8b 00                	mov    (%eax),%eax
801000ee:	83 e0 01             	and    $0x1,%eax
801000f1:	85 c0                	test   %eax,%eax
801000f3:	75 27                	jne    8010011c <bget+0x69>
        b->flags |= B_BUSY;
801000f5:	8b 45 f4             	mov    -0xc(%ebp),%eax
801000f8:	8b 00                	mov    (%eax),%eax
801000fa:	83 c8 01             	or     $0x1,%eax
801000fd:	89 c2                	mov    %eax,%edx
801000ff:	8b 45 f4             	mov    -0xc(%ebp),%eax
80100102:	89 10                	mov    %edx,(%eax)
        release(&bcache.lock);
80100104:	83 ec 0c             	sub    $0xc,%esp
80100107:	68 80 d6 10 80       	push   $0x8010d680
8010010c:	e8 ec 52 00 00       	call   801053fd <release>
80100111:	83 c4 10             	add    $0x10,%esp
        return b;
80100114:	8b 45 f4             	mov    -0xc(%ebp),%eax
80100117:	e9 98 00 00 00       	jmp    801001b4 <bget+0x101>
      }
      sleep(b, &bcache.lock);
8010011c:	83 ec 08             	sub    $0x8,%esp
8010011f:	68 80 d6 10 80       	push   $0x8010d680
80100124:	ff 75 f4             	pushl  -0xc(%ebp)
80100127:	e8 d0 4c 00 00       	call   80104dfc <sleep>
8010012c:	83 c4 10             	add    $0x10,%esp
      goto loop;
8010012f:	eb 98                	jmp    801000c9 <bget+0x16>

  acquire(&bcache.lock);

 loop:
  // Is the block already cached?
  for(b = bcache.head.next; b != &bcache.head; b = b->next){
80100131:	8b 45 f4             	mov    -0xc(%ebp),%eax
80100134:	8b 40 10             	mov    0x10(%eax),%eax
80100137:	89 45 f4             	mov    %eax,-0xc(%ebp)
8010013a:	81 7d f4 84 15 11 80 	cmpl   $0x80111584,-0xc(%ebp)
80100141:	75 90                	jne    801000d3 <bget+0x20>
  }

  // Not cached; recycle some non-busy and clean buffer.
  // "clean" because B_DIRTY and !B_BUSY means log.c
  // hasn't yet committed the changes to the buffer.
  for(b = bcache.head.prev; b != &bcache.head; b = b->prev){
80100143:	a1 90 15 11 80       	mov    0x80111590,%eax
80100148:	89 45 f4             	mov    %eax,-0xc(%ebp)
8010014b:	eb 51                	jmp    8010019e <bget+0xeb>
    if((b->flags & B_BUSY) == 0 && (b->flags & B_DIRTY) == 0){
8010014d:	8b 45 f4             	mov    -0xc(%ebp),%eax
80100150:	8b 00                	mov    (%eax),%eax
80100152:	83 e0 01             	and    $0x1,%eax
80100155:	85 c0                	test   %eax,%eax
80100157:	75 3c                	jne    80100195 <bget+0xe2>
80100159:	8b 45 f4             	mov    -0xc(%ebp),%eax
8010015c:	8b 00                	mov    (%eax),%eax
8010015e:	83 e0 04             	and    $0x4,%eax
80100161:	85 c0                	test   %eax,%eax
80100163:	75 30                	jne    80100195 <bget+0xe2>
      b->dev = dev;
80100165:	8b 45 f4             	mov    -0xc(%ebp),%eax
80100168:	8b 55 08             	mov    0x8(%ebp),%edx
8010016b:	89 50 04             	mov    %edx,0x4(%eax)
      b->blockno = blockno;
8010016e:	8b 45 f4             	mov    -0xc(%ebp),%eax
80100171:	8b 55 0c             	mov    0xc(%ebp),%edx
80100174:	89 50 08             	mov    %edx,0x8(%eax)
      b->flags = B_BUSY;
80100177:	8b 45 f4             	mov    -0xc(%ebp),%eax
8010017a:	c7 00 01 00 00 00    	movl   $0x1,(%eax)
      release(&bcache.lock);
80100180:	83 ec 0c             	sub    $0xc,%esp
80100183:	68 80 d6 10 80       	push   $0x8010d680
80100188:	e8 70 52 00 00       	call   801053fd <release>
8010018d:	83 c4 10             	add    $0x10,%esp
      return b;
80100190:	8b 45 f4             	mov    -0xc(%ebp),%eax
80100193:	eb 1f                	jmp    801001b4 <bget+0x101>
  }

  // Not cached; recycle some non-busy and clean buffer.
  // "clean" because B_DIRTY and !B_BUSY means log.c
  // hasn't yet committed the changes to the buffer.
  for(b = bcache.head.prev; b != &bcache.head; b = b->prev){
80100195:	8b 45 f4             	mov    -0xc(%ebp),%eax
80100198:	8b 40 0c             	mov    0xc(%eax),%eax
8010019b:	89 45 f4             	mov    %eax,-0xc(%ebp)
8010019e:	81 7d f4 84 15 11 80 	cmpl   $0x80111584,-0xc(%ebp)
801001a5:	75 a6                	jne    8010014d <bget+0x9a>
      b->flags = B_BUSY;
      release(&bcache.lock);
      return b;
    }
  }
  panic("bget: no buffers");
801001a7:	83 ec 0c             	sub    $0xc,%esp
801001aa:	68 33 8a 10 80       	push   $0x80108a33
801001af:	e8 b2 03 00 00       	call   80100566 <panic>
}
801001b4:	c9                   	leave  
801001b5:	c3                   	ret    

801001b6 <bread>:

// Return a B_BUSY buf with the contents of the indicated block.
struct buf*
bread(uint dev, uint blockno)
{
801001b6:	55                   	push   %ebp
801001b7:	89 e5                	mov    %esp,%ebp
801001b9:	83 ec 18             	sub    $0x18,%esp
  struct buf *b;

  b = bget(dev, blockno);
801001bc:	83 ec 08             	sub    $0x8,%esp
801001bf:	ff 75 0c             	pushl  0xc(%ebp)
801001c2:	ff 75 08             	pushl  0x8(%ebp)
801001c5:	e8 e9 fe ff ff       	call   801000b3 <bget>
801001ca:	83 c4 10             	add    $0x10,%esp
801001cd:	89 45 f4             	mov    %eax,-0xc(%ebp)
  if(!(b->flags & B_VALID)) {
801001d0:	8b 45 f4             	mov    -0xc(%ebp),%eax
801001d3:	8b 00                	mov    (%eax),%eax
801001d5:	83 e0 02             	and    $0x2,%eax
801001d8:	85 c0                	test   %eax,%eax
801001da:	75 0e                	jne    801001ea <bread+0x34>
    iderw(b);
801001dc:	83 ec 0c             	sub    $0xc,%esp
801001df:	ff 75 f4             	pushl  -0xc(%ebp)
801001e2:	e8 26 27 00 00       	call   8010290d <iderw>
801001e7:	83 c4 10             	add    $0x10,%esp
  }
  return b;
801001ea:	8b 45 f4             	mov    -0xc(%ebp),%eax
}
801001ed:	c9                   	leave  
801001ee:	c3                   	ret    

801001ef <bwrite>:

// Write b's contents to disk.  Must be B_BUSY.
void
bwrite(struct buf *b)
{
801001ef:	55                   	push   %ebp
801001f0:	89 e5                	mov    %esp,%ebp
801001f2:	83 ec 08             	sub    $0x8,%esp
  if((b->flags & B_BUSY) == 0)
801001f5:	8b 45 08             	mov    0x8(%ebp),%eax
801001f8:	8b 00                	mov    (%eax),%eax
801001fa:	83 e0 01             	and    $0x1,%eax
801001fd:	85 c0                	test   %eax,%eax
801001ff:	75 0d                	jne    8010020e <bwrite+0x1f>
    panic("bwrite");
80100201:	83 ec 0c             	sub    $0xc,%esp
80100204:	68 44 8a 10 80       	push   $0x80108a44
80100209:	e8 58 03 00 00       	call   80100566 <panic>
  b->flags |= B_DIRTY;
8010020e:	8b 45 08             	mov    0x8(%ebp),%eax
80100211:	8b 00                	mov    (%eax),%eax
80100213:	83 c8 04             	or     $0x4,%eax
80100216:	89 c2                	mov    %eax,%edx
80100218:	8b 45 08             	mov    0x8(%ebp),%eax
8010021b:	89 10                	mov    %edx,(%eax)
  iderw(b);
8010021d:	83 ec 0c             	sub    $0xc,%esp
80100220:	ff 75 08             	pushl  0x8(%ebp)
80100223:	e8 e5 26 00 00       	call   8010290d <iderw>
80100228:	83 c4 10             	add    $0x10,%esp
}
8010022b:	90                   	nop
8010022c:	c9                   	leave  
8010022d:	c3                   	ret    

8010022e <brelse>:

// Release a B_BUSY buffer.
// Move to the head of the MRU list.
void
brelse(struct buf *b)
{
8010022e:	55                   	push   %ebp
8010022f:	89 e5                	mov    %esp,%ebp
80100231:	83 ec 08             	sub    $0x8,%esp
  if((b->flags & B_BUSY) == 0)
80100234:	8b 45 08             	mov    0x8(%ebp),%eax
80100237:	8b 00                	mov    (%eax),%eax
80100239:	83 e0 01             	and    $0x1,%eax
8010023c:	85 c0                	test   %eax,%eax
8010023e:	75 0d                	jne    8010024d <brelse+0x1f>
    panic("brelse");
80100240:	83 ec 0c             	sub    $0xc,%esp
80100243:	68 4b 8a 10 80       	push   $0x80108a4b
80100248:	e8 19 03 00 00       	call   80100566 <panic>

  acquire(&bcache.lock);
8010024d:	83 ec 0c             	sub    $0xc,%esp
80100250:	68 80 d6 10 80       	push   $0x8010d680
80100255:	e8 3c 51 00 00       	call   80105396 <acquire>
8010025a:	83 c4 10             	add    $0x10,%esp

  b->next->prev = b->prev;
8010025d:	8b 45 08             	mov    0x8(%ebp),%eax
80100260:	8b 40 10             	mov    0x10(%eax),%eax
80100263:	8b 55 08             	mov    0x8(%ebp),%edx
80100266:	8b 52 0c             	mov    0xc(%edx),%edx
80100269:	89 50 0c             	mov    %edx,0xc(%eax)
  b->prev->next = b->next;
8010026c:	8b 45 08             	mov    0x8(%ebp),%eax
8010026f:	8b 40 0c             	mov    0xc(%eax),%eax
80100272:	8b 55 08             	mov    0x8(%ebp),%edx
80100275:	8b 52 10             	mov    0x10(%edx),%edx
80100278:	89 50 10             	mov    %edx,0x10(%eax)
  b->next = bcache.head.next;
8010027b:	8b 15 94 15 11 80    	mov    0x80111594,%edx
80100281:	8b 45 08             	mov    0x8(%ebp),%eax
80100284:	89 50 10             	mov    %edx,0x10(%eax)
  b->prev = &bcache.head;
80100287:	8b 45 08             	mov    0x8(%ebp),%eax
8010028a:	c7 40 0c 84 15 11 80 	movl   $0x80111584,0xc(%eax)
  bcache.head.next->prev = b;
80100291:	a1 94 15 11 80       	mov    0x80111594,%eax
80100296:	8b 55 08             	mov    0x8(%ebp),%edx
80100299:	89 50 0c             	mov    %edx,0xc(%eax)
  bcache.head.next = b;
8010029c:	8b 45 08             	mov    0x8(%ebp),%eax
8010029f:	a3 94 15 11 80       	mov    %eax,0x80111594

  b->flags &= ~B_BUSY;
801002a4:	8b 45 08             	mov    0x8(%ebp),%eax
801002a7:	8b 00                	mov    (%eax),%eax
801002a9:	83 e0 fe             	and    $0xfffffffe,%eax
801002ac:	89 c2                	mov    %eax,%edx
801002ae:	8b 45 08             	mov    0x8(%ebp),%eax
801002b1:	89 10                	mov    %edx,(%eax)
  wakeup(b);
801002b3:	83 ec 0c             	sub    $0xc,%esp
801002b6:	ff 75 08             	pushl  0x8(%ebp)
801002b9:	e8 25 4c 00 00       	call   80104ee3 <wakeup>
801002be:	83 c4 10             	add    $0x10,%esp

  release(&bcache.lock);
801002c1:	83 ec 0c             	sub    $0xc,%esp
801002c4:	68 80 d6 10 80       	push   $0x8010d680
801002c9:	e8 2f 51 00 00       	call   801053fd <release>
801002ce:	83 c4 10             	add    $0x10,%esp
}
801002d1:	90                   	nop
801002d2:	c9                   	leave  
801002d3:	c3                   	ret    

801002d4 <inb>:

// end of CS333 added routines

static inline uchar
inb(ushort port)
{
801002d4:	55                   	push   %ebp
801002d5:	89 e5                	mov    %esp,%ebp
801002d7:	83 ec 14             	sub    $0x14,%esp
801002da:	8b 45 08             	mov    0x8(%ebp),%eax
801002dd:	66 89 45 ec          	mov    %ax,-0x14(%ebp)
  uchar data;

  asm volatile("in %1,%0" : "=a" (data) : "d" (port));
801002e1:	0f b7 45 ec          	movzwl -0x14(%ebp),%eax
801002e5:	89 c2                	mov    %eax,%edx
801002e7:	ec                   	in     (%dx),%al
801002e8:	88 45 ff             	mov    %al,-0x1(%ebp)
  return data;
801002eb:	0f b6 45 ff          	movzbl -0x1(%ebp),%eax
}
801002ef:	c9                   	leave  
801002f0:	c3                   	ret    

801002f1 <outb>:
               "memory", "cc");
}

static inline void
outb(ushort port, uchar data)
{
801002f1:	55                   	push   %ebp
801002f2:	89 e5                	mov    %esp,%ebp
801002f4:	83 ec 08             	sub    $0x8,%esp
801002f7:	8b 55 08             	mov    0x8(%ebp),%edx
801002fa:	8b 45 0c             	mov    0xc(%ebp),%eax
801002fd:	66 89 55 fc          	mov    %dx,-0x4(%ebp)
80100301:	88 45 f8             	mov    %al,-0x8(%ebp)
  asm volatile("out %0,%1" : : "a" (data), "d" (port));
80100304:	0f b6 45 f8          	movzbl -0x8(%ebp),%eax
80100308:	0f b7 55 fc          	movzwl -0x4(%ebp),%edx
8010030c:	ee                   	out    %al,(%dx)
}
8010030d:	90                   	nop
8010030e:	c9                   	leave  
8010030f:	c3                   	ret    

80100310 <cli>:
  asm volatile("movw %0, %%gs" : : "r" (v));
}

static inline void
cli(void)
{
80100310:	55                   	push   %ebp
80100311:	89 e5                	mov    %esp,%ebp
  asm volatile("cli");
80100313:	fa                   	cli    
}
80100314:	90                   	nop
80100315:	5d                   	pop    %ebp
80100316:	c3                   	ret    

80100317 <printint>:
  int locking;
} cons;

static void
printint(int xx, int base, int sign)
{
80100317:	55                   	push   %ebp
80100318:	89 e5                	mov    %esp,%ebp
8010031a:	53                   	push   %ebx
8010031b:	83 ec 24             	sub    $0x24,%esp
  static char digits[] = "0123456789abcdef";
  char buf[16];
  int i;
  uint x;

  if(sign && (sign = xx < 0))
8010031e:	83 7d 10 00          	cmpl   $0x0,0x10(%ebp)
80100322:	74 1c                	je     80100340 <printint+0x29>
80100324:	8b 45 08             	mov    0x8(%ebp),%eax
80100327:	c1 e8 1f             	shr    $0x1f,%eax
8010032a:	0f b6 c0             	movzbl %al,%eax
8010032d:	89 45 10             	mov    %eax,0x10(%ebp)
80100330:	83 7d 10 00          	cmpl   $0x0,0x10(%ebp)
80100334:	74 0a                	je     80100340 <printint+0x29>
    x = -xx;
80100336:	8b 45 08             	mov    0x8(%ebp),%eax
80100339:	f7 d8                	neg    %eax
8010033b:	89 45 f0             	mov    %eax,-0x10(%ebp)
8010033e:	eb 06                	jmp    80100346 <printint+0x2f>
  else
    x = xx;
80100340:	8b 45 08             	mov    0x8(%ebp),%eax
80100343:	89 45 f0             	mov    %eax,-0x10(%ebp)

  i = 0;
80100346:	c7 45 f4 00 00 00 00 	movl   $0x0,-0xc(%ebp)
  do{
    buf[i++] = digits[x % base];
8010034d:	8b 4d f4             	mov    -0xc(%ebp),%ecx
80100350:	8d 41 01             	lea    0x1(%ecx),%eax
80100353:	89 45 f4             	mov    %eax,-0xc(%ebp)
80100356:	8b 5d 0c             	mov    0xc(%ebp),%ebx
80100359:	8b 45 f0             	mov    -0x10(%ebp),%eax
8010035c:	ba 00 00 00 00       	mov    $0x0,%edx
80100361:	f7 f3                	div    %ebx
80100363:	89 d0                	mov    %edx,%eax
80100365:	0f b6 80 04 a0 10 80 	movzbl -0x7fef5ffc(%eax),%eax
8010036c:	88 44 0d e0          	mov    %al,-0x20(%ebp,%ecx,1)
  }while((x /= base) != 0);
80100370:	8b 5d 0c             	mov    0xc(%ebp),%ebx
80100373:	8b 45 f0             	mov    -0x10(%ebp),%eax
80100376:	ba 00 00 00 00       	mov    $0x0,%edx
8010037b:	f7 f3                	div    %ebx
8010037d:	89 45 f0             	mov    %eax,-0x10(%ebp)
80100380:	83 7d f0 00          	cmpl   $0x0,-0x10(%ebp)
80100384:	75 c7                	jne    8010034d <printint+0x36>

  if(sign)
80100386:	83 7d 10 00          	cmpl   $0x0,0x10(%ebp)
8010038a:	74 2a                	je     801003b6 <printint+0x9f>
    buf[i++] = '-';
8010038c:	8b 45 f4             	mov    -0xc(%ebp),%eax
8010038f:	8d 50 01             	lea    0x1(%eax),%edx
80100392:	89 55 f4             	mov    %edx,-0xc(%ebp)
80100395:	c6 44 05 e0 2d       	movb   $0x2d,-0x20(%ebp,%eax,1)

  while(--i >= 0)
8010039a:	eb 1a                	jmp    801003b6 <printint+0x9f>
    consputc(buf[i]);
8010039c:	8d 55 e0             	lea    -0x20(%ebp),%edx
8010039f:	8b 45 f4             	mov    -0xc(%ebp),%eax
801003a2:	01 d0                	add    %edx,%eax
801003a4:	0f b6 00             	movzbl (%eax),%eax
801003a7:	0f be c0             	movsbl %al,%eax
801003aa:	83 ec 0c             	sub    $0xc,%esp
801003ad:	50                   	push   %eax
801003ae:	e8 df 03 00 00       	call   80100792 <consputc>
801003b3:	83 c4 10             	add    $0x10,%esp
  }while((x /= base) != 0);

  if(sign)
    buf[i++] = '-';

  while(--i >= 0)
801003b6:	83 6d f4 01          	subl   $0x1,-0xc(%ebp)
801003ba:	83 7d f4 00          	cmpl   $0x0,-0xc(%ebp)
801003be:	79 dc                	jns    8010039c <printint+0x85>
    consputc(buf[i]);
}
801003c0:	90                   	nop
801003c1:	8b 5d fc             	mov    -0x4(%ebp),%ebx
801003c4:	c9                   	leave  
801003c5:	c3                   	ret    

801003c6 <cprintf>:
//PAGEBREAK: 50

// Print to the console. only understands %d, %x, %p, %s.
void
cprintf(char *fmt, ...)
{
801003c6:	55                   	push   %ebp
801003c7:	89 e5                	mov    %esp,%ebp
801003c9:	83 ec 28             	sub    $0x28,%esp
  int i, c, locking;
  uint *argp;
  char *s;

  locking = cons.locking;
801003cc:	a1 14 c6 10 80       	mov    0x8010c614,%eax
801003d1:	89 45 e8             	mov    %eax,-0x18(%ebp)
  if(locking)
801003d4:	83 7d e8 00          	cmpl   $0x0,-0x18(%ebp)
801003d8:	74 10                	je     801003ea <cprintf+0x24>
    acquire(&cons.lock);
801003da:	83 ec 0c             	sub    $0xc,%esp
801003dd:	68 e0 c5 10 80       	push   $0x8010c5e0
801003e2:	e8 af 4f 00 00       	call   80105396 <acquire>
801003e7:	83 c4 10             	add    $0x10,%esp

  if (fmt == 0)
801003ea:	8b 45 08             	mov    0x8(%ebp),%eax
801003ed:	85 c0                	test   %eax,%eax
801003ef:	75 0d                	jne    801003fe <cprintf+0x38>
    panic("null fmt");
801003f1:	83 ec 0c             	sub    $0xc,%esp
801003f4:	68 52 8a 10 80       	push   $0x80108a52
801003f9:	e8 68 01 00 00       	call   80100566 <panic>

  argp = (uint*)(void*)(&fmt + 1);
801003fe:	8d 45 0c             	lea    0xc(%ebp),%eax
80100401:	89 45 f0             	mov    %eax,-0x10(%ebp)
  for(i = 0; (c = fmt[i] & 0xff) != 0; i++){
80100404:	c7 45 f4 00 00 00 00 	movl   $0x0,-0xc(%ebp)
8010040b:	e9 1a 01 00 00       	jmp    8010052a <cprintf+0x164>
    if(c != '%'){
80100410:	83 7d e4 25          	cmpl   $0x25,-0x1c(%ebp)
80100414:	74 13                	je     80100429 <cprintf+0x63>
      consputc(c);
80100416:	83 ec 0c             	sub    $0xc,%esp
80100419:	ff 75 e4             	pushl  -0x1c(%ebp)
8010041c:	e8 71 03 00 00       	call   80100792 <consputc>
80100421:	83 c4 10             	add    $0x10,%esp
      continue;
80100424:	e9 fd 00 00 00       	jmp    80100526 <cprintf+0x160>
    }
    c = fmt[++i] & 0xff;
80100429:	8b 55 08             	mov    0x8(%ebp),%edx
8010042c:	83 45 f4 01          	addl   $0x1,-0xc(%ebp)
80100430:	8b 45 f4             	mov    -0xc(%ebp),%eax
80100433:	01 d0                	add    %edx,%eax
80100435:	0f b6 00             	movzbl (%eax),%eax
80100438:	0f be c0             	movsbl %al,%eax
8010043b:	25 ff 00 00 00       	and    $0xff,%eax
80100440:	89 45 e4             	mov    %eax,-0x1c(%ebp)
    if(c == 0)
80100443:	83 7d e4 00          	cmpl   $0x0,-0x1c(%ebp)
80100447:	0f 84 ff 00 00 00    	je     8010054c <cprintf+0x186>
      break;
    switch(c){
8010044d:	8b 45 e4             	mov    -0x1c(%ebp),%eax
80100450:	83 f8 70             	cmp    $0x70,%eax
80100453:	74 47                	je     8010049c <cprintf+0xd6>
80100455:	83 f8 70             	cmp    $0x70,%eax
80100458:	7f 13                	jg     8010046d <cprintf+0xa7>
8010045a:	83 f8 25             	cmp    $0x25,%eax
8010045d:	0f 84 98 00 00 00    	je     801004fb <cprintf+0x135>
80100463:	83 f8 64             	cmp    $0x64,%eax
80100466:	74 14                	je     8010047c <cprintf+0xb6>
80100468:	e9 9d 00 00 00       	jmp    8010050a <cprintf+0x144>
8010046d:	83 f8 73             	cmp    $0x73,%eax
80100470:	74 47                	je     801004b9 <cprintf+0xf3>
80100472:	83 f8 78             	cmp    $0x78,%eax
80100475:	74 25                	je     8010049c <cprintf+0xd6>
80100477:	e9 8e 00 00 00       	jmp    8010050a <cprintf+0x144>
    case 'd':
      printint(*argp++, 10, 1);
8010047c:	8b 45 f0             	mov    -0x10(%ebp),%eax
8010047f:	8d 50 04             	lea    0x4(%eax),%edx
80100482:	89 55 f0             	mov    %edx,-0x10(%ebp)
80100485:	8b 00                	mov    (%eax),%eax
80100487:	83 ec 04             	sub    $0x4,%esp
8010048a:	6a 01                	push   $0x1
8010048c:	6a 0a                	push   $0xa
8010048e:	50                   	push   %eax
8010048f:	e8 83 fe ff ff       	call   80100317 <printint>
80100494:	83 c4 10             	add    $0x10,%esp
      break;
80100497:	e9 8a 00 00 00       	jmp    80100526 <cprintf+0x160>
    case 'x':
    case 'p':
      printint(*argp++, 16, 0);
8010049c:	8b 45 f0             	mov    -0x10(%ebp),%eax
8010049f:	8d 50 04             	lea    0x4(%eax),%edx
801004a2:	89 55 f0             	mov    %edx,-0x10(%ebp)
801004a5:	8b 00                	mov    (%eax),%eax
801004a7:	83 ec 04             	sub    $0x4,%esp
801004aa:	6a 00                	push   $0x0
801004ac:	6a 10                	push   $0x10
801004ae:	50                   	push   %eax
801004af:	e8 63 fe ff ff       	call   80100317 <printint>
801004b4:	83 c4 10             	add    $0x10,%esp
      break;
801004b7:	eb 6d                	jmp    80100526 <cprintf+0x160>
    case 's':
      if((s = (char*)*argp++) == 0)
801004b9:	8b 45 f0             	mov    -0x10(%ebp),%eax
801004bc:	8d 50 04             	lea    0x4(%eax),%edx
801004bf:	89 55 f0             	mov    %edx,-0x10(%ebp)
801004c2:	8b 00                	mov    (%eax),%eax
801004c4:	89 45 ec             	mov    %eax,-0x14(%ebp)
801004c7:	83 7d ec 00          	cmpl   $0x0,-0x14(%ebp)
801004cb:	75 22                	jne    801004ef <cprintf+0x129>
        s = "(null)";
801004cd:	c7 45 ec 5b 8a 10 80 	movl   $0x80108a5b,-0x14(%ebp)
      for(; *s; s++)
801004d4:	eb 19                	jmp    801004ef <cprintf+0x129>
        consputc(*s);
801004d6:	8b 45 ec             	mov    -0x14(%ebp),%eax
801004d9:	0f b6 00             	movzbl (%eax),%eax
801004dc:	0f be c0             	movsbl %al,%eax
801004df:	83 ec 0c             	sub    $0xc,%esp
801004e2:	50                   	push   %eax
801004e3:	e8 aa 02 00 00       	call   80100792 <consputc>
801004e8:	83 c4 10             	add    $0x10,%esp
      printint(*argp++, 16, 0);
      break;
    case 's':
      if((s = (char*)*argp++) == 0)
        s = "(null)";
      for(; *s; s++)
801004eb:	83 45 ec 01          	addl   $0x1,-0x14(%ebp)
801004ef:	8b 45 ec             	mov    -0x14(%ebp),%eax
801004f2:	0f b6 00             	movzbl (%eax),%eax
801004f5:	84 c0                	test   %al,%al
801004f7:	75 dd                	jne    801004d6 <cprintf+0x110>
        consputc(*s);
      break;
801004f9:	eb 2b                	jmp    80100526 <cprintf+0x160>
    case '%':
      consputc('%');
801004fb:	83 ec 0c             	sub    $0xc,%esp
801004fe:	6a 25                	push   $0x25
80100500:	e8 8d 02 00 00       	call   80100792 <consputc>
80100505:	83 c4 10             	add    $0x10,%esp
      break;
80100508:	eb 1c                	jmp    80100526 <cprintf+0x160>
    default:
      // Print unknown % sequence to draw attention.
      consputc('%');
8010050a:	83 ec 0c             	sub    $0xc,%esp
8010050d:	6a 25                	push   $0x25
8010050f:	e8 7e 02 00 00       	call   80100792 <consputc>
80100514:	83 c4 10             	add    $0x10,%esp
      consputc(c);
80100517:	83 ec 0c             	sub    $0xc,%esp
8010051a:	ff 75 e4             	pushl  -0x1c(%ebp)
8010051d:	e8 70 02 00 00       	call   80100792 <consputc>
80100522:	83 c4 10             	add    $0x10,%esp
      break;
80100525:	90                   	nop

  if (fmt == 0)
    panic("null fmt");

  argp = (uint*)(void*)(&fmt + 1);
  for(i = 0; (c = fmt[i] & 0xff) != 0; i++){
80100526:	83 45 f4 01          	addl   $0x1,-0xc(%ebp)
8010052a:	8b 55 08             	mov    0x8(%ebp),%edx
8010052d:	8b 45 f4             	mov    -0xc(%ebp),%eax
80100530:	01 d0                	add    %edx,%eax
80100532:	0f b6 00             	movzbl (%eax),%eax
80100535:	0f be c0             	movsbl %al,%eax
80100538:	25 ff 00 00 00       	and    $0xff,%eax
8010053d:	89 45 e4             	mov    %eax,-0x1c(%ebp)
80100540:	83 7d e4 00          	cmpl   $0x0,-0x1c(%ebp)
80100544:	0f 85 c6 fe ff ff    	jne    80100410 <cprintf+0x4a>
8010054a:	eb 01                	jmp    8010054d <cprintf+0x187>
      consputc(c);
      continue;
    }
    c = fmt[++i] & 0xff;
    if(c == 0)
      break;
8010054c:	90                   	nop
      consputc(c);
      break;
    }
  }

  if(locking)
8010054d:	83 7d e8 00          	cmpl   $0x0,-0x18(%ebp)
80100551:	74 10                	je     80100563 <cprintf+0x19d>
    release(&cons.lock);
80100553:	83 ec 0c             	sub    $0xc,%esp
80100556:	68 e0 c5 10 80       	push   $0x8010c5e0
8010055b:	e8 9d 4e 00 00       	call   801053fd <release>
80100560:	83 c4 10             	add    $0x10,%esp
}
80100563:	90                   	nop
80100564:	c9                   	leave  
80100565:	c3                   	ret    

80100566 <panic>:

void
panic(char *s)
{
80100566:	55                   	push   %ebp
80100567:	89 e5                	mov    %esp,%ebp
80100569:	83 ec 38             	sub    $0x38,%esp
  int i;
  uint pcs[10];
  
  cli();
8010056c:	e8 9f fd ff ff       	call   80100310 <cli>
  cons.locking = 0;
80100571:	c7 05 14 c6 10 80 00 	movl   $0x0,0x8010c614
80100578:	00 00 00 
  cprintf("cpu%d: panic: ", cpu->id);
8010057b:	65 a1 00 00 00 00    	mov    %gs:0x0,%eax
80100581:	0f b6 00             	movzbl (%eax),%eax
80100584:	0f b6 c0             	movzbl %al,%eax
80100587:	83 ec 08             	sub    $0x8,%esp
8010058a:	50                   	push   %eax
8010058b:	68 62 8a 10 80       	push   $0x80108a62
80100590:	e8 31 fe ff ff       	call   801003c6 <cprintf>
80100595:	83 c4 10             	add    $0x10,%esp
  cprintf(s);
80100598:	8b 45 08             	mov    0x8(%ebp),%eax
8010059b:	83 ec 0c             	sub    $0xc,%esp
8010059e:	50                   	push   %eax
8010059f:	e8 22 fe ff ff       	call   801003c6 <cprintf>
801005a4:	83 c4 10             	add    $0x10,%esp
  cprintf("\n");
801005a7:	83 ec 0c             	sub    $0xc,%esp
801005aa:	68 71 8a 10 80       	push   $0x80108a71
801005af:	e8 12 fe ff ff       	call   801003c6 <cprintf>
801005b4:	83 c4 10             	add    $0x10,%esp
  getcallerpcs(&s, pcs);
801005b7:	83 ec 08             	sub    $0x8,%esp
801005ba:	8d 45 cc             	lea    -0x34(%ebp),%eax
801005bd:	50                   	push   %eax
801005be:	8d 45 08             	lea    0x8(%ebp),%eax
801005c1:	50                   	push   %eax
801005c2:	e8 88 4e 00 00       	call   8010544f <getcallerpcs>
801005c7:	83 c4 10             	add    $0x10,%esp
  for(i=0; i<10; i++)
801005ca:	c7 45 f4 00 00 00 00 	movl   $0x0,-0xc(%ebp)
801005d1:	eb 1c                	jmp    801005ef <panic+0x89>
    cprintf(" %p", pcs[i]);
801005d3:	8b 45 f4             	mov    -0xc(%ebp),%eax
801005d6:	8b 44 85 cc          	mov    -0x34(%ebp,%eax,4),%eax
801005da:	83 ec 08             	sub    $0x8,%esp
801005dd:	50                   	push   %eax
801005de:	68 73 8a 10 80       	push   $0x80108a73
801005e3:	e8 de fd ff ff       	call   801003c6 <cprintf>
801005e8:	83 c4 10             	add    $0x10,%esp
  cons.locking = 0;
  cprintf("cpu%d: panic: ", cpu->id);
  cprintf(s);
  cprintf("\n");
  getcallerpcs(&s, pcs);
  for(i=0; i<10; i++)
801005eb:	83 45 f4 01          	addl   $0x1,-0xc(%ebp)
801005ef:	83 7d f4 09          	cmpl   $0x9,-0xc(%ebp)
801005f3:	7e de                	jle    801005d3 <panic+0x6d>
    cprintf(" %p", pcs[i]);
  panicked = 1; // freeze other CPU
801005f5:	c7 05 c0 c5 10 80 01 	movl   $0x1,0x8010c5c0
801005fc:	00 00 00 
  for(;;)
    ;
801005ff:	eb fe                	jmp    801005ff <panic+0x99>

80100601 <cgaputc>:
#define CRTPORT 0x3d4
static ushort *crt = (ushort*)P2V(0xb8000);  // CGA memory

static void
cgaputc(int c)
{
80100601:	55                   	push   %ebp
80100602:	89 e5                	mov    %esp,%ebp
80100604:	83 ec 18             	sub    $0x18,%esp
  int pos;
  
  // Cursor position: col + 80*row.
  outb(CRTPORT, 14);
80100607:	6a 0e                	push   $0xe
80100609:	68 d4 03 00 00       	push   $0x3d4
8010060e:	e8 de fc ff ff       	call   801002f1 <outb>
80100613:	83 c4 08             	add    $0x8,%esp
  pos = inb(CRTPORT+1) << 8;
80100616:	68 d5 03 00 00       	push   $0x3d5
8010061b:	e8 b4 fc ff ff       	call   801002d4 <inb>
80100620:	83 c4 04             	add    $0x4,%esp
80100623:	0f b6 c0             	movzbl %al,%eax
80100626:	c1 e0 08             	shl    $0x8,%eax
80100629:	89 45 f4             	mov    %eax,-0xc(%ebp)
  outb(CRTPORT, 15);
8010062c:	6a 0f                	push   $0xf
8010062e:	68 d4 03 00 00       	push   $0x3d4
80100633:	e8 b9 fc ff ff       	call   801002f1 <outb>
80100638:	83 c4 08             	add    $0x8,%esp
  pos |= inb(CRTPORT+1);
8010063b:	68 d5 03 00 00       	push   $0x3d5
80100640:	e8 8f fc ff ff       	call   801002d4 <inb>
80100645:	83 c4 04             	add    $0x4,%esp
80100648:	0f b6 c0             	movzbl %al,%eax
8010064b:	09 45 f4             	or     %eax,-0xc(%ebp)

  if(c == '\n')
8010064e:	83 7d 08 0a          	cmpl   $0xa,0x8(%ebp)
80100652:	75 30                	jne    80100684 <cgaputc+0x83>
    pos += 80 - pos%80;
80100654:	8b 4d f4             	mov    -0xc(%ebp),%ecx
80100657:	ba 67 66 66 66       	mov    $0x66666667,%edx
8010065c:	89 c8                	mov    %ecx,%eax
8010065e:	f7 ea                	imul   %edx
80100660:	c1 fa 05             	sar    $0x5,%edx
80100663:	89 c8                	mov    %ecx,%eax
80100665:	c1 f8 1f             	sar    $0x1f,%eax
80100668:	29 c2                	sub    %eax,%edx
8010066a:	89 d0                	mov    %edx,%eax
8010066c:	c1 e0 02             	shl    $0x2,%eax
8010066f:	01 d0                	add    %edx,%eax
80100671:	c1 e0 04             	shl    $0x4,%eax
80100674:	29 c1                	sub    %eax,%ecx
80100676:	89 ca                	mov    %ecx,%edx
80100678:	b8 50 00 00 00       	mov    $0x50,%eax
8010067d:	29 d0                	sub    %edx,%eax
8010067f:	01 45 f4             	add    %eax,-0xc(%ebp)
80100682:	eb 34                	jmp    801006b8 <cgaputc+0xb7>
  else if(c == BACKSPACE){
80100684:	81 7d 08 00 01 00 00 	cmpl   $0x100,0x8(%ebp)
8010068b:	75 0c                	jne    80100699 <cgaputc+0x98>
    if(pos > 0) --pos;
8010068d:	83 7d f4 00          	cmpl   $0x0,-0xc(%ebp)
80100691:	7e 25                	jle    801006b8 <cgaputc+0xb7>
80100693:	83 6d f4 01          	subl   $0x1,-0xc(%ebp)
80100697:	eb 1f                	jmp    801006b8 <cgaputc+0xb7>
  } else
    crt[pos++] = (c&0xff) | 0x0700;  // black on white
80100699:	8b 0d 00 a0 10 80    	mov    0x8010a000,%ecx
8010069f:	8b 45 f4             	mov    -0xc(%ebp),%eax
801006a2:	8d 50 01             	lea    0x1(%eax),%edx
801006a5:	89 55 f4             	mov    %edx,-0xc(%ebp)
801006a8:	01 c0                	add    %eax,%eax
801006aa:	01 c8                	add    %ecx,%eax
801006ac:	8b 55 08             	mov    0x8(%ebp),%edx
801006af:	0f b6 d2             	movzbl %dl,%edx
801006b2:	80 ce 07             	or     $0x7,%dh
801006b5:	66 89 10             	mov    %dx,(%eax)

  if(pos < 0 || pos > 25*80)
801006b8:	83 7d f4 00          	cmpl   $0x0,-0xc(%ebp)
801006bc:	78 09                	js     801006c7 <cgaputc+0xc6>
801006be:	81 7d f4 d0 07 00 00 	cmpl   $0x7d0,-0xc(%ebp)
801006c5:	7e 0d                	jle    801006d4 <cgaputc+0xd3>
    panic("pos under/overflow");
801006c7:	83 ec 0c             	sub    $0xc,%esp
801006ca:	68 77 8a 10 80       	push   $0x80108a77
801006cf:	e8 92 fe ff ff       	call   80100566 <panic>
  
  if((pos/80) >= 24){  // Scroll up.
801006d4:	81 7d f4 7f 07 00 00 	cmpl   $0x77f,-0xc(%ebp)
801006db:	7e 4c                	jle    80100729 <cgaputc+0x128>
    memmove(crt, crt+80, sizeof(crt[0])*23*80);
801006dd:	a1 00 a0 10 80       	mov    0x8010a000,%eax
801006e2:	8d 90 a0 00 00 00    	lea    0xa0(%eax),%edx
801006e8:	a1 00 a0 10 80       	mov    0x8010a000,%eax
801006ed:	83 ec 04             	sub    $0x4,%esp
801006f0:	68 60 0e 00 00       	push   $0xe60
801006f5:	52                   	push   %edx
801006f6:	50                   	push   %eax
801006f7:	e8 bc 4f 00 00       	call   801056b8 <memmove>
801006fc:	83 c4 10             	add    $0x10,%esp
    pos -= 80;
801006ff:	83 6d f4 50          	subl   $0x50,-0xc(%ebp)
    memset(crt+pos, 0, sizeof(crt[0])*(24*80 - pos));
80100703:	b8 80 07 00 00       	mov    $0x780,%eax
80100708:	2b 45 f4             	sub    -0xc(%ebp),%eax
8010070b:	8d 14 00             	lea    (%eax,%eax,1),%edx
8010070e:	a1 00 a0 10 80       	mov    0x8010a000,%eax
80100713:	8b 4d f4             	mov    -0xc(%ebp),%ecx
80100716:	01 c9                	add    %ecx,%ecx
80100718:	01 c8                	add    %ecx,%eax
8010071a:	83 ec 04             	sub    $0x4,%esp
8010071d:	52                   	push   %edx
8010071e:	6a 00                	push   $0x0
80100720:	50                   	push   %eax
80100721:	e8 d3 4e 00 00       	call   801055f9 <memset>
80100726:	83 c4 10             	add    $0x10,%esp
  }
  
  outb(CRTPORT, 14);
80100729:	83 ec 08             	sub    $0x8,%esp
8010072c:	6a 0e                	push   $0xe
8010072e:	68 d4 03 00 00       	push   $0x3d4
80100733:	e8 b9 fb ff ff       	call   801002f1 <outb>
80100738:	83 c4 10             	add    $0x10,%esp
  outb(CRTPORT+1, pos>>8);
8010073b:	8b 45 f4             	mov    -0xc(%ebp),%eax
8010073e:	c1 f8 08             	sar    $0x8,%eax
80100741:	0f b6 c0             	movzbl %al,%eax
80100744:	83 ec 08             	sub    $0x8,%esp
80100747:	50                   	push   %eax
80100748:	68 d5 03 00 00       	push   $0x3d5
8010074d:	e8 9f fb ff ff       	call   801002f1 <outb>
80100752:	83 c4 10             	add    $0x10,%esp
  outb(CRTPORT, 15);
80100755:	83 ec 08             	sub    $0x8,%esp
80100758:	6a 0f                	push   $0xf
8010075a:	68 d4 03 00 00       	push   $0x3d4
8010075f:	e8 8d fb ff ff       	call   801002f1 <outb>
80100764:	83 c4 10             	add    $0x10,%esp
  outb(CRTPORT+1, pos);
80100767:	8b 45 f4             	mov    -0xc(%ebp),%eax
8010076a:	0f b6 c0             	movzbl %al,%eax
8010076d:	83 ec 08             	sub    $0x8,%esp
80100770:	50                   	push   %eax
80100771:	68 d5 03 00 00       	push   $0x3d5
80100776:	e8 76 fb ff ff       	call   801002f1 <outb>
8010077b:	83 c4 10             	add    $0x10,%esp
  crt[pos] = ' ' | 0x0700;
8010077e:	a1 00 a0 10 80       	mov    0x8010a000,%eax
80100783:	8b 55 f4             	mov    -0xc(%ebp),%edx
80100786:	01 d2                	add    %edx,%edx
80100788:	01 d0                	add    %edx,%eax
8010078a:	66 c7 00 20 07       	movw   $0x720,(%eax)
}
8010078f:	90                   	nop
80100790:	c9                   	leave  
80100791:	c3                   	ret    

80100792 <consputc>:

void
consputc(int c)
{
80100792:	55                   	push   %ebp
80100793:	89 e5                	mov    %esp,%ebp
80100795:	83 ec 08             	sub    $0x8,%esp
  if(panicked){
80100798:	a1 c0 c5 10 80       	mov    0x8010c5c0,%eax
8010079d:	85 c0                	test   %eax,%eax
8010079f:	74 07                	je     801007a8 <consputc+0x16>
    cli();
801007a1:	e8 6a fb ff ff       	call   80100310 <cli>
    for(;;)
      ;
801007a6:	eb fe                	jmp    801007a6 <consputc+0x14>
  }

  if(c == BACKSPACE){
801007a8:	81 7d 08 00 01 00 00 	cmpl   $0x100,0x8(%ebp)
801007af:	75 29                	jne    801007da <consputc+0x48>
    uartputc('\b'); uartputc(' '); uartputc('\b');
801007b1:	83 ec 0c             	sub    $0xc,%esp
801007b4:	6a 08                	push   $0x8
801007b6:	e8 f7 68 00 00       	call   801070b2 <uartputc>
801007bb:	83 c4 10             	add    $0x10,%esp
801007be:	83 ec 0c             	sub    $0xc,%esp
801007c1:	6a 20                	push   $0x20
801007c3:	e8 ea 68 00 00       	call   801070b2 <uartputc>
801007c8:	83 c4 10             	add    $0x10,%esp
801007cb:	83 ec 0c             	sub    $0xc,%esp
801007ce:	6a 08                	push   $0x8
801007d0:	e8 dd 68 00 00       	call   801070b2 <uartputc>
801007d5:	83 c4 10             	add    $0x10,%esp
801007d8:	eb 0e                	jmp    801007e8 <consputc+0x56>
  } else
    uartputc(c);
801007da:	83 ec 0c             	sub    $0xc,%esp
801007dd:	ff 75 08             	pushl  0x8(%ebp)
801007e0:	e8 cd 68 00 00       	call   801070b2 <uartputc>
801007e5:	83 c4 10             	add    $0x10,%esp
  cgaputc(c);
801007e8:	83 ec 0c             	sub    $0xc,%esp
801007eb:	ff 75 08             	pushl  0x8(%ebp)
801007ee:	e8 0e fe ff ff       	call   80100601 <cgaputc>
801007f3:	83 c4 10             	add    $0x10,%esp
}
801007f6:	90                   	nop
801007f7:	c9                   	leave  
801007f8:	c3                   	ret    

801007f9 <consoleintr>:

#define C(x)  ((x)-'@')  // Control-x

void
consoleintr(int (*getc)(void))
{
801007f9:	55                   	push   %ebp
801007fa:	89 e5                	mov    %esp,%ebp
801007fc:	83 ec 18             	sub    $0x18,%esp
  int c, doprocdump = 0;
801007ff:	c7 45 f4 00 00 00 00 	movl   $0x0,-0xc(%ebp)

  acquire(&cons.lock);
80100806:	83 ec 0c             	sub    $0xc,%esp
80100809:	68 e0 c5 10 80       	push   $0x8010c5e0
8010080e:	e8 83 4b 00 00       	call   80105396 <acquire>
80100813:	83 c4 10             	add    $0x10,%esp
  while((c = getc()) >= 0){
80100816:	e9 44 01 00 00       	jmp    8010095f <consoleintr+0x166>
    switch(c){
8010081b:	8b 45 f0             	mov    -0x10(%ebp),%eax
8010081e:	83 f8 10             	cmp    $0x10,%eax
80100821:	74 1e                	je     80100841 <consoleintr+0x48>
80100823:	83 f8 10             	cmp    $0x10,%eax
80100826:	7f 0a                	jg     80100832 <consoleintr+0x39>
80100828:	83 f8 08             	cmp    $0x8,%eax
8010082b:	74 6b                	je     80100898 <consoleintr+0x9f>
8010082d:	e9 9b 00 00 00       	jmp    801008cd <consoleintr+0xd4>
80100832:	83 f8 15             	cmp    $0x15,%eax
80100835:	74 33                	je     8010086a <consoleintr+0x71>
80100837:	83 f8 7f             	cmp    $0x7f,%eax
8010083a:	74 5c                	je     80100898 <consoleintr+0x9f>
8010083c:	e9 8c 00 00 00       	jmp    801008cd <consoleintr+0xd4>
    case C('P'):  // Process listing.
      doprocdump = 1;   // procdump() locks cons.lock indirectly; invoke later
80100841:	c7 45 f4 01 00 00 00 	movl   $0x1,-0xc(%ebp)
      break;
80100848:	e9 12 01 00 00       	jmp    8010095f <consoleintr+0x166>
    case C('U'):  // Kill line.
      while(input.e != input.w &&
            input.buf[(input.e-1) % INPUT_BUF] != '\n'){
        input.e--;
8010084d:	a1 28 18 11 80       	mov    0x80111828,%eax
80100852:	83 e8 01             	sub    $0x1,%eax
80100855:	a3 28 18 11 80       	mov    %eax,0x80111828
        consputc(BACKSPACE);
8010085a:	83 ec 0c             	sub    $0xc,%esp
8010085d:	68 00 01 00 00       	push   $0x100
80100862:	e8 2b ff ff ff       	call   80100792 <consputc>
80100867:	83 c4 10             	add    $0x10,%esp
    switch(c){
    case C('P'):  // Process listing.
      doprocdump = 1;   // procdump() locks cons.lock indirectly; invoke later
      break;
    case C('U'):  // Kill line.
      while(input.e != input.w &&
8010086a:	8b 15 28 18 11 80    	mov    0x80111828,%edx
80100870:	a1 24 18 11 80       	mov    0x80111824,%eax
80100875:	39 c2                	cmp    %eax,%edx
80100877:	0f 84 e2 00 00 00    	je     8010095f <consoleintr+0x166>
            input.buf[(input.e-1) % INPUT_BUF] != '\n'){
8010087d:	a1 28 18 11 80       	mov    0x80111828,%eax
80100882:	83 e8 01             	sub    $0x1,%eax
80100885:	83 e0 7f             	and    $0x7f,%eax
80100888:	0f b6 80 a0 17 11 80 	movzbl -0x7feee860(%eax),%eax
    switch(c){
    case C('P'):  // Process listing.
      doprocdump = 1;   // procdump() locks cons.lock indirectly; invoke later
      break;
    case C('U'):  // Kill line.
      while(input.e != input.w &&
8010088f:	3c 0a                	cmp    $0xa,%al
80100891:	75 ba                	jne    8010084d <consoleintr+0x54>
            input.buf[(input.e-1) % INPUT_BUF] != '\n'){
        input.e--;
        consputc(BACKSPACE);
      }
      break;
80100893:	e9 c7 00 00 00       	jmp    8010095f <consoleintr+0x166>
    case C('H'): case '\x7f':  // Backspace
      if(input.e != input.w){
80100898:	8b 15 28 18 11 80    	mov    0x80111828,%edx
8010089e:	a1 24 18 11 80       	mov    0x80111824,%eax
801008a3:	39 c2                	cmp    %eax,%edx
801008a5:	0f 84 b4 00 00 00    	je     8010095f <consoleintr+0x166>
        input.e--;
801008ab:	a1 28 18 11 80       	mov    0x80111828,%eax
801008b0:	83 e8 01             	sub    $0x1,%eax
801008b3:	a3 28 18 11 80       	mov    %eax,0x80111828
        consputc(BACKSPACE);
801008b8:	83 ec 0c             	sub    $0xc,%esp
801008bb:	68 00 01 00 00       	push   $0x100
801008c0:	e8 cd fe ff ff       	call   80100792 <consputc>
801008c5:	83 c4 10             	add    $0x10,%esp
      }
      break;
801008c8:	e9 92 00 00 00       	jmp    8010095f <consoleintr+0x166>
    default:
      if(c != 0 && input.e-input.r < INPUT_BUF){
801008cd:	83 7d f0 00          	cmpl   $0x0,-0x10(%ebp)
801008d1:	0f 84 87 00 00 00    	je     8010095e <consoleintr+0x165>
801008d7:	8b 15 28 18 11 80    	mov    0x80111828,%edx
801008dd:	a1 20 18 11 80       	mov    0x80111820,%eax
801008e2:	29 c2                	sub    %eax,%edx
801008e4:	89 d0                	mov    %edx,%eax
801008e6:	83 f8 7f             	cmp    $0x7f,%eax
801008e9:	77 73                	ja     8010095e <consoleintr+0x165>
        c = (c == '\r') ? '\n' : c;
801008eb:	83 7d f0 0d          	cmpl   $0xd,-0x10(%ebp)
801008ef:	74 05                	je     801008f6 <consoleintr+0xfd>
801008f1:	8b 45 f0             	mov    -0x10(%ebp),%eax
801008f4:	eb 05                	jmp    801008fb <consoleintr+0x102>
801008f6:	b8 0a 00 00 00       	mov    $0xa,%eax
801008fb:	89 45 f0             	mov    %eax,-0x10(%ebp)
        input.buf[input.e++ % INPUT_BUF] = c;
801008fe:	a1 28 18 11 80       	mov    0x80111828,%eax
80100903:	8d 50 01             	lea    0x1(%eax),%edx
80100906:	89 15 28 18 11 80    	mov    %edx,0x80111828
8010090c:	83 e0 7f             	and    $0x7f,%eax
8010090f:	8b 55 f0             	mov    -0x10(%ebp),%edx
80100912:	88 90 a0 17 11 80    	mov    %dl,-0x7feee860(%eax)
        consputc(c);
80100918:	83 ec 0c             	sub    $0xc,%esp
8010091b:	ff 75 f0             	pushl  -0x10(%ebp)
8010091e:	e8 6f fe ff ff       	call   80100792 <consputc>
80100923:	83 c4 10             	add    $0x10,%esp
        if(c == '\n' || c == C('D') || input.e == input.r+INPUT_BUF){
80100926:	83 7d f0 0a          	cmpl   $0xa,-0x10(%ebp)
8010092a:	74 18                	je     80100944 <consoleintr+0x14b>
8010092c:	83 7d f0 04          	cmpl   $0x4,-0x10(%ebp)
80100930:	74 12                	je     80100944 <consoleintr+0x14b>
80100932:	a1 28 18 11 80       	mov    0x80111828,%eax
80100937:	8b 15 20 18 11 80    	mov    0x80111820,%edx
8010093d:	83 ea 80             	sub    $0xffffff80,%edx
80100940:	39 d0                	cmp    %edx,%eax
80100942:	75 1a                	jne    8010095e <consoleintr+0x165>
          input.w = input.e;
80100944:	a1 28 18 11 80       	mov    0x80111828,%eax
80100949:	a3 24 18 11 80       	mov    %eax,0x80111824
          wakeup(&input.r);
8010094e:	83 ec 0c             	sub    $0xc,%esp
80100951:	68 20 18 11 80       	push   $0x80111820
80100956:	e8 88 45 00 00       	call   80104ee3 <wakeup>
8010095b:	83 c4 10             	add    $0x10,%esp
        }
      }
      break;
8010095e:	90                   	nop
consoleintr(int (*getc)(void))
{
  int c, doprocdump = 0;

  acquire(&cons.lock);
  while((c = getc()) >= 0){
8010095f:	8b 45 08             	mov    0x8(%ebp),%eax
80100962:	ff d0                	call   *%eax
80100964:	89 45 f0             	mov    %eax,-0x10(%ebp)
80100967:	83 7d f0 00          	cmpl   $0x0,-0x10(%ebp)
8010096b:	0f 89 aa fe ff ff    	jns    8010081b <consoleintr+0x22>
        }
      }
      break;
    }
  }
  release(&cons.lock);
80100971:	83 ec 0c             	sub    $0xc,%esp
80100974:	68 e0 c5 10 80       	push   $0x8010c5e0
80100979:	e8 7f 4a 00 00       	call   801053fd <release>
8010097e:	83 c4 10             	add    $0x10,%esp
  if(doprocdump) {
80100981:	83 7d f4 00          	cmpl   $0x0,-0xc(%ebp)
80100985:	74 05                	je     8010098c <consoleintr+0x193>
    procdump();  // now call procdump() wo. cons.lock held
80100987:	e8 b1 48 00 00       	call   8010523d <procdump>
  }
}
8010098c:	90                   	nop
8010098d:	c9                   	leave  
8010098e:	c3                   	ret    

8010098f <consoleread>:

int
consoleread(struct inode *ip, char *dst, int n)
{
8010098f:	55                   	push   %ebp
80100990:	89 e5                	mov    %esp,%ebp
80100992:	83 ec 18             	sub    $0x18,%esp
  uint target;
  int c;

  iunlock(ip);
80100995:	83 ec 0c             	sub    $0xc,%esp
80100998:	ff 75 08             	pushl  0x8(%ebp)
8010099b:	e8 28 11 00 00       	call   80101ac8 <iunlock>
801009a0:	83 c4 10             	add    $0x10,%esp
  target = n;
801009a3:	8b 45 10             	mov    0x10(%ebp),%eax
801009a6:	89 45 f4             	mov    %eax,-0xc(%ebp)
  acquire(&cons.lock);
801009a9:	83 ec 0c             	sub    $0xc,%esp
801009ac:	68 e0 c5 10 80       	push   $0x8010c5e0
801009b1:	e8 e0 49 00 00       	call   80105396 <acquire>
801009b6:	83 c4 10             	add    $0x10,%esp
  while(n > 0){
801009b9:	e9 ac 00 00 00       	jmp    80100a6a <consoleread+0xdb>
    while(input.r == input.w){
      if(proc->killed){
801009be:	65 a1 04 00 00 00    	mov    %gs:0x4,%eax
801009c4:	8b 40 24             	mov    0x24(%eax),%eax
801009c7:	85 c0                	test   %eax,%eax
801009c9:	74 28                	je     801009f3 <consoleread+0x64>
        release(&cons.lock);
801009cb:	83 ec 0c             	sub    $0xc,%esp
801009ce:	68 e0 c5 10 80       	push   $0x8010c5e0
801009d3:	e8 25 4a 00 00       	call   801053fd <release>
801009d8:	83 c4 10             	add    $0x10,%esp
        ilock(ip);
801009db:	83 ec 0c             	sub    $0xc,%esp
801009de:	ff 75 08             	pushl  0x8(%ebp)
801009e1:	e8 84 0f 00 00       	call   8010196a <ilock>
801009e6:	83 c4 10             	add    $0x10,%esp
        return -1;
801009e9:	b8 ff ff ff ff       	mov    $0xffffffff,%eax
801009ee:	e9 ab 00 00 00       	jmp    80100a9e <consoleread+0x10f>
      }
      sleep(&input.r, &cons.lock);
801009f3:	83 ec 08             	sub    $0x8,%esp
801009f6:	68 e0 c5 10 80       	push   $0x8010c5e0
801009fb:	68 20 18 11 80       	push   $0x80111820
80100a00:	e8 f7 43 00 00       	call   80104dfc <sleep>
80100a05:	83 c4 10             	add    $0x10,%esp

  iunlock(ip);
  target = n;
  acquire(&cons.lock);
  while(n > 0){
    while(input.r == input.w){
80100a08:	8b 15 20 18 11 80    	mov    0x80111820,%edx
80100a0e:	a1 24 18 11 80       	mov    0x80111824,%eax
80100a13:	39 c2                	cmp    %eax,%edx
80100a15:	74 a7                	je     801009be <consoleread+0x2f>
        ilock(ip);
        return -1;
      }
      sleep(&input.r, &cons.lock);
    }
    c = input.buf[input.r++ % INPUT_BUF];
80100a17:	a1 20 18 11 80       	mov    0x80111820,%eax
80100a1c:	8d 50 01             	lea    0x1(%eax),%edx
80100a1f:	89 15 20 18 11 80    	mov    %edx,0x80111820
80100a25:	83 e0 7f             	and    $0x7f,%eax
80100a28:	0f b6 80 a0 17 11 80 	movzbl -0x7feee860(%eax),%eax
80100a2f:	0f be c0             	movsbl %al,%eax
80100a32:	89 45 f0             	mov    %eax,-0x10(%ebp)
    if(c == C('D')){  // EOF
80100a35:	83 7d f0 04          	cmpl   $0x4,-0x10(%ebp)
80100a39:	75 17                	jne    80100a52 <consoleread+0xc3>
      if(n < target){
80100a3b:	8b 45 10             	mov    0x10(%ebp),%eax
80100a3e:	3b 45 f4             	cmp    -0xc(%ebp),%eax
80100a41:	73 2f                	jae    80100a72 <consoleread+0xe3>
        // Save ^D for next time, to make sure
        // caller gets a 0-byte result.
        input.r--;
80100a43:	a1 20 18 11 80       	mov    0x80111820,%eax
80100a48:	83 e8 01             	sub    $0x1,%eax
80100a4b:	a3 20 18 11 80       	mov    %eax,0x80111820
      }
      break;
80100a50:	eb 20                	jmp    80100a72 <consoleread+0xe3>
    }
    *dst++ = c;
80100a52:	8b 45 0c             	mov    0xc(%ebp),%eax
80100a55:	8d 50 01             	lea    0x1(%eax),%edx
80100a58:	89 55 0c             	mov    %edx,0xc(%ebp)
80100a5b:	8b 55 f0             	mov    -0x10(%ebp),%edx
80100a5e:	88 10                	mov    %dl,(%eax)
    --n;
80100a60:	83 6d 10 01          	subl   $0x1,0x10(%ebp)
    if(c == '\n')
80100a64:	83 7d f0 0a          	cmpl   $0xa,-0x10(%ebp)
80100a68:	74 0b                	je     80100a75 <consoleread+0xe6>
  int c;

  iunlock(ip);
  target = n;
  acquire(&cons.lock);
  while(n > 0){
80100a6a:	83 7d 10 00          	cmpl   $0x0,0x10(%ebp)
80100a6e:	7f 98                	jg     80100a08 <consoleread+0x79>
80100a70:	eb 04                	jmp    80100a76 <consoleread+0xe7>
      if(n < target){
        // Save ^D for next time, to make sure
        // caller gets a 0-byte result.
        input.r--;
      }
      break;
80100a72:	90                   	nop
80100a73:	eb 01                	jmp    80100a76 <consoleread+0xe7>
    }
    *dst++ = c;
    --n;
    if(c == '\n')
      break;
80100a75:	90                   	nop
  }
  release(&cons.lock);
80100a76:	83 ec 0c             	sub    $0xc,%esp
80100a79:	68 e0 c5 10 80       	push   $0x8010c5e0
80100a7e:	e8 7a 49 00 00       	call   801053fd <release>
80100a83:	83 c4 10             	add    $0x10,%esp
  ilock(ip);
80100a86:	83 ec 0c             	sub    $0xc,%esp
80100a89:	ff 75 08             	pushl  0x8(%ebp)
80100a8c:	e8 d9 0e 00 00       	call   8010196a <ilock>
80100a91:	83 c4 10             	add    $0x10,%esp

  return target - n;
80100a94:	8b 45 10             	mov    0x10(%ebp),%eax
80100a97:	8b 55 f4             	mov    -0xc(%ebp),%edx
80100a9a:	29 c2                	sub    %eax,%edx
80100a9c:	89 d0                	mov    %edx,%eax
}
80100a9e:	c9                   	leave  
80100a9f:	c3                   	ret    

80100aa0 <consolewrite>:

int
consolewrite(struct inode *ip, char *buf, int n)
{
80100aa0:	55                   	push   %ebp
80100aa1:	89 e5                	mov    %esp,%ebp
80100aa3:	83 ec 18             	sub    $0x18,%esp
  int i;

  iunlock(ip);
80100aa6:	83 ec 0c             	sub    $0xc,%esp
80100aa9:	ff 75 08             	pushl  0x8(%ebp)
80100aac:	e8 17 10 00 00       	call   80101ac8 <iunlock>
80100ab1:	83 c4 10             	add    $0x10,%esp
  acquire(&cons.lock);
80100ab4:	83 ec 0c             	sub    $0xc,%esp
80100ab7:	68 e0 c5 10 80       	push   $0x8010c5e0
80100abc:	e8 d5 48 00 00       	call   80105396 <acquire>
80100ac1:	83 c4 10             	add    $0x10,%esp
  for(i = 0; i < n; i++)
80100ac4:	c7 45 f4 00 00 00 00 	movl   $0x0,-0xc(%ebp)
80100acb:	eb 21                	jmp    80100aee <consolewrite+0x4e>
    consputc(buf[i] & 0xff);
80100acd:	8b 55 f4             	mov    -0xc(%ebp),%edx
80100ad0:	8b 45 0c             	mov    0xc(%ebp),%eax
80100ad3:	01 d0                	add    %edx,%eax
80100ad5:	0f b6 00             	movzbl (%eax),%eax
80100ad8:	0f be c0             	movsbl %al,%eax
80100adb:	0f b6 c0             	movzbl %al,%eax
80100ade:	83 ec 0c             	sub    $0xc,%esp
80100ae1:	50                   	push   %eax
80100ae2:	e8 ab fc ff ff       	call   80100792 <consputc>
80100ae7:	83 c4 10             	add    $0x10,%esp
{
  int i;

  iunlock(ip);
  acquire(&cons.lock);
  for(i = 0; i < n; i++)
80100aea:	83 45 f4 01          	addl   $0x1,-0xc(%ebp)
80100aee:	8b 45 f4             	mov    -0xc(%ebp),%eax
80100af1:	3b 45 10             	cmp    0x10(%ebp),%eax
80100af4:	7c d7                	jl     80100acd <consolewrite+0x2d>
    consputc(buf[i] & 0xff);
  release(&cons.lock);
80100af6:	83 ec 0c             	sub    $0xc,%esp
80100af9:	68 e0 c5 10 80       	push   $0x8010c5e0
80100afe:	e8 fa 48 00 00       	call   801053fd <release>
80100b03:	83 c4 10             	add    $0x10,%esp
  ilock(ip);
80100b06:	83 ec 0c             	sub    $0xc,%esp
80100b09:	ff 75 08             	pushl  0x8(%ebp)
80100b0c:	e8 59 0e 00 00       	call   8010196a <ilock>
80100b11:	83 c4 10             	add    $0x10,%esp

  return n;
80100b14:	8b 45 10             	mov    0x10(%ebp),%eax
}
80100b17:	c9                   	leave  
80100b18:	c3                   	ret    

80100b19 <consoleinit>:

void
consoleinit(void)
{
80100b19:	55                   	push   %ebp
80100b1a:	89 e5                	mov    %esp,%ebp
80100b1c:	83 ec 08             	sub    $0x8,%esp
  initlock(&cons.lock, "console");
80100b1f:	83 ec 08             	sub    $0x8,%esp
80100b22:	68 8a 8a 10 80       	push   $0x80108a8a
80100b27:	68 e0 c5 10 80       	push   $0x8010c5e0
80100b2c:	e8 43 48 00 00       	call   80105374 <initlock>
80100b31:	83 c4 10             	add    $0x10,%esp

  devsw[CONSOLE].write = consolewrite;
80100b34:	c7 05 ec 21 11 80 a0 	movl   $0x80100aa0,0x801121ec
80100b3b:	0a 10 80 
  devsw[CONSOLE].read = consoleread;
80100b3e:	c7 05 e8 21 11 80 8f 	movl   $0x8010098f,0x801121e8
80100b45:	09 10 80 
  cons.locking = 1;
80100b48:	c7 05 14 c6 10 80 01 	movl   $0x1,0x8010c614
80100b4f:	00 00 00 

  picenable(IRQ_KBD);
80100b52:	83 ec 0c             	sub    $0xc,%esp
80100b55:	6a 01                	push   $0x1
80100b57:	e8 cf 33 00 00       	call   80103f2b <picenable>
80100b5c:	83 c4 10             	add    $0x10,%esp
  ioapicenable(IRQ_KBD, 0);
80100b5f:	83 ec 08             	sub    $0x8,%esp
80100b62:	6a 00                	push   $0x0
80100b64:	6a 01                	push   $0x1
80100b66:	e8 6f 1f 00 00       	call   80102ada <ioapicenable>
80100b6b:	83 c4 10             	add    $0x10,%esp
}
80100b6e:	90                   	nop
80100b6f:	c9                   	leave  
80100b70:	c3                   	ret    

80100b71 <exec>:
#include "x86.h"
#include "elf.h"

int
exec(char *path, char **argv)
{
80100b71:	55                   	push   %ebp
80100b72:	89 e5                	mov    %esp,%ebp
80100b74:	81 ec 18 01 00 00    	sub    $0x118,%esp
  struct elfhdr elf;
  struct inode *ip;
  struct proghdr ph;
  pde_t *pgdir, *oldpgdir;

  begin_op();
80100b7a:	e8 ce 29 00 00       	call   8010354d <begin_op>
  if((ip = namei(path)) == 0){
80100b7f:	83 ec 0c             	sub    $0xc,%esp
80100b82:	ff 75 08             	pushl  0x8(%ebp)
80100b85:	e8 9e 19 00 00       	call   80102528 <namei>
80100b8a:	83 c4 10             	add    $0x10,%esp
80100b8d:	89 45 d8             	mov    %eax,-0x28(%ebp)
80100b90:	83 7d d8 00          	cmpl   $0x0,-0x28(%ebp)
80100b94:	75 0f                	jne    80100ba5 <exec+0x34>
    end_op();
80100b96:	e8 3e 2a 00 00       	call   801035d9 <end_op>
    return -1;
80100b9b:	b8 ff ff ff ff       	mov    $0xffffffff,%eax
80100ba0:	e9 ce 03 00 00       	jmp    80100f73 <exec+0x402>
  }
  ilock(ip);
80100ba5:	83 ec 0c             	sub    $0xc,%esp
80100ba8:	ff 75 d8             	pushl  -0x28(%ebp)
80100bab:	e8 ba 0d 00 00       	call   8010196a <ilock>
80100bb0:	83 c4 10             	add    $0x10,%esp
  pgdir = 0;
80100bb3:	c7 45 d4 00 00 00 00 	movl   $0x0,-0x2c(%ebp)

  // Check ELF header
  if(readi(ip, (char*)&elf, 0, sizeof(elf)) < sizeof(elf))
80100bba:	6a 34                	push   $0x34
80100bbc:	6a 00                	push   $0x0
80100bbe:	8d 85 0c ff ff ff    	lea    -0xf4(%ebp),%eax
80100bc4:	50                   	push   %eax
80100bc5:	ff 75 d8             	pushl  -0x28(%ebp)
80100bc8:	e8 0b 13 00 00       	call   80101ed8 <readi>
80100bcd:	83 c4 10             	add    $0x10,%esp
80100bd0:	83 f8 33             	cmp    $0x33,%eax
80100bd3:	0f 86 49 03 00 00    	jbe    80100f22 <exec+0x3b1>
    goto bad;
  if(elf.magic != ELF_MAGIC)
80100bd9:	8b 85 0c ff ff ff    	mov    -0xf4(%ebp),%eax
80100bdf:	3d 7f 45 4c 46       	cmp    $0x464c457f,%eax
80100be4:	0f 85 3b 03 00 00    	jne    80100f25 <exec+0x3b4>
    goto bad;

  if((pgdir = setupkvm()) == 0)
80100bea:	e8 18 76 00 00       	call   80108207 <setupkvm>
80100bef:	89 45 d4             	mov    %eax,-0x2c(%ebp)
80100bf2:	83 7d d4 00          	cmpl   $0x0,-0x2c(%ebp)
80100bf6:	0f 84 2c 03 00 00    	je     80100f28 <exec+0x3b7>
    goto bad;

  // Load program into memory.
  sz = 0;
80100bfc:	c7 45 e0 00 00 00 00 	movl   $0x0,-0x20(%ebp)
  for(i=0, off=elf.phoff; i<elf.phnum; i++, off+=sizeof(ph)){
80100c03:	c7 45 ec 00 00 00 00 	movl   $0x0,-0x14(%ebp)
80100c0a:	8b 85 28 ff ff ff    	mov    -0xd8(%ebp),%eax
80100c10:	89 45 e8             	mov    %eax,-0x18(%ebp)
80100c13:	e9 ab 00 00 00       	jmp    80100cc3 <exec+0x152>
    if(readi(ip, (char*)&ph, off, sizeof(ph)) != sizeof(ph))
80100c18:	8b 45 e8             	mov    -0x18(%ebp),%eax
80100c1b:	6a 20                	push   $0x20
80100c1d:	50                   	push   %eax
80100c1e:	8d 85 ec fe ff ff    	lea    -0x114(%ebp),%eax
80100c24:	50                   	push   %eax
80100c25:	ff 75 d8             	pushl  -0x28(%ebp)
80100c28:	e8 ab 12 00 00       	call   80101ed8 <readi>
80100c2d:	83 c4 10             	add    $0x10,%esp
80100c30:	83 f8 20             	cmp    $0x20,%eax
80100c33:	0f 85 f2 02 00 00    	jne    80100f2b <exec+0x3ba>
      goto bad;
    if(ph.type != ELF_PROG_LOAD)
80100c39:	8b 85 ec fe ff ff    	mov    -0x114(%ebp),%eax
80100c3f:	83 f8 01             	cmp    $0x1,%eax
80100c42:	75 71                	jne    80100cb5 <exec+0x144>
      continue;
    if(ph.memsz < ph.filesz)
80100c44:	8b 95 00 ff ff ff    	mov    -0x100(%ebp),%edx
80100c4a:	8b 85 fc fe ff ff    	mov    -0x104(%ebp),%eax
80100c50:	39 c2                	cmp    %eax,%edx
80100c52:	0f 82 d6 02 00 00    	jb     80100f2e <exec+0x3bd>
      goto bad;
    if((sz = allocuvm(pgdir, sz, ph.vaddr + ph.memsz)) == 0)
80100c58:	8b 95 f4 fe ff ff    	mov    -0x10c(%ebp),%edx
80100c5e:	8b 85 00 ff ff ff    	mov    -0x100(%ebp),%eax
80100c64:	01 d0                	add    %edx,%eax
80100c66:	83 ec 04             	sub    $0x4,%esp
80100c69:	50                   	push   %eax
80100c6a:	ff 75 e0             	pushl  -0x20(%ebp)
80100c6d:	ff 75 d4             	pushl  -0x2c(%ebp)
80100c70:	e8 39 79 00 00       	call   801085ae <allocuvm>
80100c75:	83 c4 10             	add    $0x10,%esp
80100c78:	89 45 e0             	mov    %eax,-0x20(%ebp)
80100c7b:	83 7d e0 00          	cmpl   $0x0,-0x20(%ebp)
80100c7f:	0f 84 ac 02 00 00    	je     80100f31 <exec+0x3c0>
      goto bad;
    if(loaduvm(pgdir, (char*)ph.vaddr, ip, ph.off, ph.filesz) < 0)
80100c85:	8b 95 fc fe ff ff    	mov    -0x104(%ebp),%edx
80100c8b:	8b 85 f0 fe ff ff    	mov    -0x110(%ebp),%eax
80100c91:	8b 8d f4 fe ff ff    	mov    -0x10c(%ebp),%ecx
80100c97:	83 ec 0c             	sub    $0xc,%esp
80100c9a:	52                   	push   %edx
80100c9b:	50                   	push   %eax
80100c9c:	ff 75 d8             	pushl  -0x28(%ebp)
80100c9f:	51                   	push   %ecx
80100ca0:	ff 75 d4             	pushl  -0x2c(%ebp)
80100ca3:	e8 2f 78 00 00       	call   801084d7 <loaduvm>
80100ca8:	83 c4 20             	add    $0x20,%esp
80100cab:	85 c0                	test   %eax,%eax
80100cad:	0f 88 81 02 00 00    	js     80100f34 <exec+0x3c3>
80100cb3:	eb 01                	jmp    80100cb6 <exec+0x145>
  sz = 0;
  for(i=0, off=elf.phoff; i<elf.phnum; i++, off+=sizeof(ph)){
    if(readi(ip, (char*)&ph, off, sizeof(ph)) != sizeof(ph))
      goto bad;
    if(ph.type != ELF_PROG_LOAD)
      continue;
80100cb5:	90                   	nop
  if((pgdir = setupkvm()) == 0)
    goto bad;

  // Load program into memory.
  sz = 0;
  for(i=0, off=elf.phoff; i<elf.phnum; i++, off+=sizeof(ph)){
80100cb6:	83 45 ec 01          	addl   $0x1,-0x14(%ebp)
80100cba:	8b 45 e8             	mov    -0x18(%ebp),%eax
80100cbd:	83 c0 20             	add    $0x20,%eax
80100cc0:	89 45 e8             	mov    %eax,-0x18(%ebp)
80100cc3:	0f b7 85 38 ff ff ff 	movzwl -0xc8(%ebp),%eax
80100cca:	0f b7 c0             	movzwl %ax,%eax
80100ccd:	3b 45 ec             	cmp    -0x14(%ebp),%eax
80100cd0:	0f 8f 42 ff ff ff    	jg     80100c18 <exec+0xa7>
    if((sz = allocuvm(pgdir, sz, ph.vaddr + ph.memsz)) == 0)
      goto bad;
    if(loaduvm(pgdir, (char*)ph.vaddr, ip, ph.off, ph.filesz) < 0)
      goto bad;
  }
  iunlockput(ip);
80100cd6:	83 ec 0c             	sub    $0xc,%esp
80100cd9:	ff 75 d8             	pushl  -0x28(%ebp)
80100cdc:	e8 49 0f 00 00       	call   80101c2a <iunlockput>
80100ce1:	83 c4 10             	add    $0x10,%esp
  end_op();
80100ce4:	e8 f0 28 00 00       	call   801035d9 <end_op>
  ip = 0;
80100ce9:	c7 45 d8 00 00 00 00 	movl   $0x0,-0x28(%ebp)

  // Allocate two pages at the next page boundary.
  // Make the first inaccessible.  Use the second as the user stack.
  sz = PGROUNDUP(sz);
80100cf0:	8b 45 e0             	mov    -0x20(%ebp),%eax
80100cf3:	05 ff 0f 00 00       	add    $0xfff,%eax
80100cf8:	25 00 f0 ff ff       	and    $0xfffff000,%eax
80100cfd:	89 45 e0             	mov    %eax,-0x20(%ebp)
  if((sz = allocuvm(pgdir, sz, sz + 2*PGSIZE)) == 0)
80100d00:	8b 45 e0             	mov    -0x20(%ebp),%eax
80100d03:	05 00 20 00 00       	add    $0x2000,%eax
80100d08:	83 ec 04             	sub    $0x4,%esp
80100d0b:	50                   	push   %eax
80100d0c:	ff 75 e0             	pushl  -0x20(%ebp)
80100d0f:	ff 75 d4             	pushl  -0x2c(%ebp)
80100d12:	e8 97 78 00 00       	call   801085ae <allocuvm>
80100d17:	83 c4 10             	add    $0x10,%esp
80100d1a:	89 45 e0             	mov    %eax,-0x20(%ebp)
80100d1d:	83 7d e0 00          	cmpl   $0x0,-0x20(%ebp)
80100d21:	0f 84 10 02 00 00    	je     80100f37 <exec+0x3c6>
    goto bad;
  clearpteu(pgdir, (char*)(sz - 2*PGSIZE));
80100d27:	8b 45 e0             	mov    -0x20(%ebp),%eax
80100d2a:	2d 00 20 00 00       	sub    $0x2000,%eax
80100d2f:	83 ec 08             	sub    $0x8,%esp
80100d32:	50                   	push   %eax
80100d33:	ff 75 d4             	pushl  -0x2c(%ebp)
80100d36:	e8 99 7a 00 00       	call   801087d4 <clearpteu>
80100d3b:	83 c4 10             	add    $0x10,%esp
  sp = sz;
80100d3e:	8b 45 e0             	mov    -0x20(%ebp),%eax
80100d41:	89 45 dc             	mov    %eax,-0x24(%ebp)

  // Push argument strings, prepare rest of stack in ustack.
  for(argc = 0; argv[argc]; argc++) {
80100d44:	c7 45 e4 00 00 00 00 	movl   $0x0,-0x1c(%ebp)
80100d4b:	e9 96 00 00 00       	jmp    80100de6 <exec+0x275>
    if(argc >= MAXARG)
80100d50:	83 7d e4 1f          	cmpl   $0x1f,-0x1c(%ebp)
80100d54:	0f 87 e0 01 00 00    	ja     80100f3a <exec+0x3c9>
      goto bad;
    sp = (sp - (strlen(argv[argc]) + 1)) & ~3;
80100d5a:	8b 45 e4             	mov    -0x1c(%ebp),%eax
80100d5d:	8d 14 85 00 00 00 00 	lea    0x0(,%eax,4),%edx
80100d64:	8b 45 0c             	mov    0xc(%ebp),%eax
80100d67:	01 d0                	add    %edx,%eax
80100d69:	8b 00                	mov    (%eax),%eax
80100d6b:	83 ec 0c             	sub    $0xc,%esp
80100d6e:	50                   	push   %eax
80100d6f:	e8 d2 4a 00 00       	call   80105846 <strlen>
80100d74:	83 c4 10             	add    $0x10,%esp
80100d77:	89 c2                	mov    %eax,%edx
80100d79:	8b 45 dc             	mov    -0x24(%ebp),%eax
80100d7c:	29 d0                	sub    %edx,%eax
80100d7e:	83 e8 01             	sub    $0x1,%eax
80100d81:	83 e0 fc             	and    $0xfffffffc,%eax
80100d84:	89 45 dc             	mov    %eax,-0x24(%ebp)
    if(copyout(pgdir, sp, argv[argc], strlen(argv[argc]) + 1) < 0)
80100d87:	8b 45 e4             	mov    -0x1c(%ebp),%eax
80100d8a:	8d 14 85 00 00 00 00 	lea    0x0(,%eax,4),%edx
80100d91:	8b 45 0c             	mov    0xc(%ebp),%eax
80100d94:	01 d0                	add    %edx,%eax
80100d96:	8b 00                	mov    (%eax),%eax
80100d98:	83 ec 0c             	sub    $0xc,%esp
80100d9b:	50                   	push   %eax
80100d9c:	e8 a5 4a 00 00       	call   80105846 <strlen>
80100da1:	83 c4 10             	add    $0x10,%esp
80100da4:	83 c0 01             	add    $0x1,%eax
80100da7:	89 c1                	mov    %eax,%ecx
80100da9:	8b 45 e4             	mov    -0x1c(%ebp),%eax
80100dac:	8d 14 85 00 00 00 00 	lea    0x0(,%eax,4),%edx
80100db3:	8b 45 0c             	mov    0xc(%ebp),%eax
80100db6:	01 d0                	add    %edx,%eax
80100db8:	8b 00                	mov    (%eax),%eax
80100dba:	51                   	push   %ecx
80100dbb:	50                   	push   %eax
80100dbc:	ff 75 dc             	pushl  -0x24(%ebp)
80100dbf:	ff 75 d4             	pushl  -0x2c(%ebp)
80100dc2:	e8 c4 7b 00 00       	call   8010898b <copyout>
80100dc7:	83 c4 10             	add    $0x10,%esp
80100dca:	85 c0                	test   %eax,%eax
80100dcc:	0f 88 6b 01 00 00    	js     80100f3d <exec+0x3cc>
      goto bad;
    ustack[3+argc] = sp;
80100dd2:	8b 45 e4             	mov    -0x1c(%ebp),%eax
80100dd5:	8d 50 03             	lea    0x3(%eax),%edx
80100dd8:	8b 45 dc             	mov    -0x24(%ebp),%eax
80100ddb:	89 84 95 40 ff ff ff 	mov    %eax,-0xc0(%ebp,%edx,4)
    goto bad;
  clearpteu(pgdir, (char*)(sz - 2*PGSIZE));
  sp = sz;

  // Push argument strings, prepare rest of stack in ustack.
  for(argc = 0; argv[argc]; argc++) {
80100de2:	83 45 e4 01          	addl   $0x1,-0x1c(%ebp)
80100de6:	8b 45 e4             	mov    -0x1c(%ebp),%eax
80100de9:	8d 14 85 00 00 00 00 	lea    0x0(,%eax,4),%edx
80100df0:	8b 45 0c             	mov    0xc(%ebp),%eax
80100df3:	01 d0                	add    %edx,%eax
80100df5:	8b 00                	mov    (%eax),%eax
80100df7:	85 c0                	test   %eax,%eax
80100df9:	0f 85 51 ff ff ff    	jne    80100d50 <exec+0x1df>
    sp = (sp - (strlen(argv[argc]) + 1)) & ~3;
    if(copyout(pgdir, sp, argv[argc], strlen(argv[argc]) + 1) < 0)
      goto bad;
    ustack[3+argc] = sp;
  }
  ustack[3+argc] = 0;
80100dff:	8b 45 e4             	mov    -0x1c(%ebp),%eax
80100e02:	83 c0 03             	add    $0x3,%eax
80100e05:	c7 84 85 40 ff ff ff 	movl   $0x0,-0xc0(%ebp,%eax,4)
80100e0c:	00 00 00 00 

  ustack[0] = 0xffffffff;  // fake return PC
80100e10:	c7 85 40 ff ff ff ff 	movl   $0xffffffff,-0xc0(%ebp)
80100e17:	ff ff ff 
  ustack[1] = argc;
80100e1a:	8b 45 e4             	mov    -0x1c(%ebp),%eax
80100e1d:	89 85 44 ff ff ff    	mov    %eax,-0xbc(%ebp)
  ustack[2] = sp - (argc+1)*4;  // argv pointer
80100e23:	8b 45 e4             	mov    -0x1c(%ebp),%eax
80100e26:	83 c0 01             	add    $0x1,%eax
80100e29:	8d 14 85 00 00 00 00 	lea    0x0(,%eax,4),%edx
80100e30:	8b 45 dc             	mov    -0x24(%ebp),%eax
80100e33:	29 d0                	sub    %edx,%eax
80100e35:	89 85 48 ff ff ff    	mov    %eax,-0xb8(%ebp)

  sp -= (3+argc+1) * 4;
80100e3b:	8b 45 e4             	mov    -0x1c(%ebp),%eax
80100e3e:	83 c0 04             	add    $0x4,%eax
80100e41:	c1 e0 02             	shl    $0x2,%eax
80100e44:	29 45 dc             	sub    %eax,-0x24(%ebp)
  if(copyout(pgdir, sp, ustack, (3+argc+1)*4) < 0)
80100e47:	8b 45 e4             	mov    -0x1c(%ebp),%eax
80100e4a:	83 c0 04             	add    $0x4,%eax
80100e4d:	c1 e0 02             	shl    $0x2,%eax
80100e50:	50                   	push   %eax
80100e51:	8d 85 40 ff ff ff    	lea    -0xc0(%ebp),%eax
80100e57:	50                   	push   %eax
80100e58:	ff 75 dc             	pushl  -0x24(%ebp)
80100e5b:	ff 75 d4             	pushl  -0x2c(%ebp)
80100e5e:	e8 28 7b 00 00       	call   8010898b <copyout>
80100e63:	83 c4 10             	add    $0x10,%esp
80100e66:	85 c0                	test   %eax,%eax
80100e68:	0f 88 d2 00 00 00    	js     80100f40 <exec+0x3cf>
    goto bad;

  // Save program name for debugging.
  for(last=s=path; *s; s++)
80100e6e:	8b 45 08             	mov    0x8(%ebp),%eax
80100e71:	89 45 f4             	mov    %eax,-0xc(%ebp)
80100e74:	8b 45 f4             	mov    -0xc(%ebp),%eax
80100e77:	89 45 f0             	mov    %eax,-0x10(%ebp)
80100e7a:	eb 17                	jmp    80100e93 <exec+0x322>
    if(*s == '/')
80100e7c:	8b 45 f4             	mov    -0xc(%ebp),%eax
80100e7f:	0f b6 00             	movzbl (%eax),%eax
80100e82:	3c 2f                	cmp    $0x2f,%al
80100e84:	75 09                	jne    80100e8f <exec+0x31e>
      last = s+1;
80100e86:	8b 45 f4             	mov    -0xc(%ebp),%eax
80100e89:	83 c0 01             	add    $0x1,%eax
80100e8c:	89 45 f0             	mov    %eax,-0x10(%ebp)
  sp -= (3+argc+1) * 4;
  if(copyout(pgdir, sp, ustack, (3+argc+1)*4) < 0)
    goto bad;

  // Save program name for debugging.
  for(last=s=path; *s; s++)
80100e8f:	83 45 f4 01          	addl   $0x1,-0xc(%ebp)
80100e93:	8b 45 f4             	mov    -0xc(%ebp),%eax
80100e96:	0f b6 00             	movzbl (%eax),%eax
80100e99:	84 c0                	test   %al,%al
80100e9b:	75 df                	jne    80100e7c <exec+0x30b>
    if(*s == '/')
      last = s+1;
  safestrcpy(proc->name, last, sizeof(proc->name));
80100e9d:	65 a1 04 00 00 00    	mov    %gs:0x4,%eax
80100ea3:	83 c0 6c             	add    $0x6c,%eax
80100ea6:	83 ec 04             	sub    $0x4,%esp
80100ea9:	6a 10                	push   $0x10
80100eab:	ff 75 f0             	pushl  -0x10(%ebp)
80100eae:	50                   	push   %eax
80100eaf:	e8 48 49 00 00       	call   801057fc <safestrcpy>
80100eb4:	83 c4 10             	add    $0x10,%esp

  // Commit to the user image.
  oldpgdir = proc->pgdir;
80100eb7:	65 a1 04 00 00 00    	mov    %gs:0x4,%eax
80100ebd:	8b 40 04             	mov    0x4(%eax),%eax
80100ec0:	89 45 d0             	mov    %eax,-0x30(%ebp)
  proc->pgdir = pgdir;
80100ec3:	65 a1 04 00 00 00    	mov    %gs:0x4,%eax
80100ec9:	8b 55 d4             	mov    -0x2c(%ebp),%edx
80100ecc:	89 50 04             	mov    %edx,0x4(%eax)
  proc->sz = sz;
80100ecf:	65 a1 04 00 00 00    	mov    %gs:0x4,%eax
80100ed5:	8b 55 e0             	mov    -0x20(%ebp),%edx
80100ed8:	89 10                	mov    %edx,(%eax)
  proc->tf->eip = elf.entry;  // main
80100eda:	65 a1 04 00 00 00    	mov    %gs:0x4,%eax
80100ee0:	8b 40 18             	mov    0x18(%eax),%eax
80100ee3:	8b 95 24 ff ff ff    	mov    -0xdc(%ebp),%edx
80100ee9:	89 50 38             	mov    %edx,0x38(%eax)
  proc->tf->esp = sp;
80100eec:	65 a1 04 00 00 00    	mov    %gs:0x4,%eax
80100ef2:	8b 40 18             	mov    0x18(%eax),%eax
80100ef5:	8b 55 dc             	mov    -0x24(%ebp),%edx
80100ef8:	89 50 44             	mov    %edx,0x44(%eax)
  switchuvm(proc);
80100efb:	65 a1 04 00 00 00    	mov    %gs:0x4,%eax
80100f01:	83 ec 0c             	sub    $0xc,%esp
80100f04:	50                   	push   %eax
80100f05:	e8 e4 73 00 00       	call   801082ee <switchuvm>
80100f0a:	83 c4 10             	add    $0x10,%esp
  freevm(oldpgdir);
80100f0d:	83 ec 0c             	sub    $0xc,%esp
80100f10:	ff 75 d0             	pushl  -0x30(%ebp)
80100f13:	e8 1c 78 00 00       	call   80108734 <freevm>
80100f18:	83 c4 10             	add    $0x10,%esp
  return 0;
80100f1b:	b8 00 00 00 00       	mov    $0x0,%eax
80100f20:	eb 51                	jmp    80100f73 <exec+0x402>
  ilock(ip);
  pgdir = 0;

  // Check ELF header
  if(readi(ip, (char*)&elf, 0, sizeof(elf)) < sizeof(elf))
    goto bad;
80100f22:	90                   	nop
80100f23:	eb 1c                	jmp    80100f41 <exec+0x3d0>
  if(elf.magic != ELF_MAGIC)
    goto bad;
80100f25:	90                   	nop
80100f26:	eb 19                	jmp    80100f41 <exec+0x3d0>

  if((pgdir = setupkvm()) == 0)
    goto bad;
80100f28:	90                   	nop
80100f29:	eb 16                	jmp    80100f41 <exec+0x3d0>

  // Load program into memory.
  sz = 0;
  for(i=0, off=elf.phoff; i<elf.phnum; i++, off+=sizeof(ph)){
    if(readi(ip, (char*)&ph, off, sizeof(ph)) != sizeof(ph))
      goto bad;
80100f2b:	90                   	nop
80100f2c:	eb 13                	jmp    80100f41 <exec+0x3d0>
    if(ph.type != ELF_PROG_LOAD)
      continue;
    if(ph.memsz < ph.filesz)
      goto bad;
80100f2e:	90                   	nop
80100f2f:	eb 10                	jmp    80100f41 <exec+0x3d0>
    if((sz = allocuvm(pgdir, sz, ph.vaddr + ph.memsz)) == 0)
      goto bad;
80100f31:	90                   	nop
80100f32:	eb 0d                	jmp    80100f41 <exec+0x3d0>
    if(loaduvm(pgdir, (char*)ph.vaddr, ip, ph.off, ph.filesz) < 0)
      goto bad;
80100f34:	90                   	nop
80100f35:	eb 0a                	jmp    80100f41 <exec+0x3d0>

  // Allocate two pages at the next page boundary.
  // Make the first inaccessible.  Use the second as the user stack.
  sz = PGROUNDUP(sz);
  if((sz = allocuvm(pgdir, sz, sz + 2*PGSIZE)) == 0)
    goto bad;
80100f37:	90                   	nop
80100f38:	eb 07                	jmp    80100f41 <exec+0x3d0>
  sp = sz;

  // Push argument strings, prepare rest of stack in ustack.
  for(argc = 0; argv[argc]; argc++) {
    if(argc >= MAXARG)
      goto bad;
80100f3a:	90                   	nop
80100f3b:	eb 04                	jmp    80100f41 <exec+0x3d0>
    sp = (sp - (strlen(argv[argc]) + 1)) & ~3;
    if(copyout(pgdir, sp, argv[argc], strlen(argv[argc]) + 1) < 0)
      goto bad;
80100f3d:	90                   	nop
80100f3e:	eb 01                	jmp    80100f41 <exec+0x3d0>
  ustack[1] = argc;
  ustack[2] = sp - (argc+1)*4;  // argv pointer

  sp -= (3+argc+1) * 4;
  if(copyout(pgdir, sp, ustack, (3+argc+1)*4) < 0)
    goto bad;
80100f40:	90                   	nop
  switchuvm(proc);
  freevm(oldpgdir);
  return 0;

 bad:
  if(pgdir)
80100f41:	83 7d d4 00          	cmpl   $0x0,-0x2c(%ebp)
80100f45:	74 0e                	je     80100f55 <exec+0x3e4>
    freevm(pgdir);
80100f47:	83 ec 0c             	sub    $0xc,%esp
80100f4a:	ff 75 d4             	pushl  -0x2c(%ebp)
80100f4d:	e8 e2 77 00 00       	call   80108734 <freevm>
80100f52:	83 c4 10             	add    $0x10,%esp
  if(ip){
80100f55:	83 7d d8 00          	cmpl   $0x0,-0x28(%ebp)
80100f59:	74 13                	je     80100f6e <exec+0x3fd>
    iunlockput(ip);
80100f5b:	83 ec 0c             	sub    $0xc,%esp
80100f5e:	ff 75 d8             	pushl  -0x28(%ebp)
80100f61:	e8 c4 0c 00 00       	call   80101c2a <iunlockput>
80100f66:	83 c4 10             	add    $0x10,%esp
    end_op();
80100f69:	e8 6b 26 00 00       	call   801035d9 <end_op>
  }
  return -1;
80100f6e:	b8 ff ff ff ff       	mov    $0xffffffff,%eax
}
80100f73:	c9                   	leave  
80100f74:	c3                   	ret    

80100f75 <fileinit>:
  struct file file[NFILE];
} ftable;

void
fileinit(void)
{
80100f75:	55                   	push   %ebp
80100f76:	89 e5                	mov    %esp,%ebp
80100f78:	83 ec 08             	sub    $0x8,%esp
  initlock(&ftable.lock, "ftable");
80100f7b:	83 ec 08             	sub    $0x8,%esp
80100f7e:	68 92 8a 10 80       	push   $0x80108a92
80100f83:	68 40 18 11 80       	push   $0x80111840
80100f88:	e8 e7 43 00 00       	call   80105374 <initlock>
80100f8d:	83 c4 10             	add    $0x10,%esp
}
80100f90:	90                   	nop
80100f91:	c9                   	leave  
80100f92:	c3                   	ret    

80100f93 <filealloc>:

// Allocate a file structure.
struct file*
filealloc(void)
{
80100f93:	55                   	push   %ebp
80100f94:	89 e5                	mov    %esp,%ebp
80100f96:	83 ec 18             	sub    $0x18,%esp
  struct file *f;

  acquire(&ftable.lock);
80100f99:	83 ec 0c             	sub    $0xc,%esp
80100f9c:	68 40 18 11 80       	push   $0x80111840
80100fa1:	e8 f0 43 00 00       	call   80105396 <acquire>
80100fa6:	83 c4 10             	add    $0x10,%esp
  for(f = ftable.file; f < ftable.file + NFILE; f++){
80100fa9:	c7 45 f4 74 18 11 80 	movl   $0x80111874,-0xc(%ebp)
80100fb0:	eb 2d                	jmp    80100fdf <filealloc+0x4c>
    if(f->ref == 0){
80100fb2:	8b 45 f4             	mov    -0xc(%ebp),%eax
80100fb5:	8b 40 04             	mov    0x4(%eax),%eax
80100fb8:	85 c0                	test   %eax,%eax
80100fba:	75 1f                	jne    80100fdb <filealloc+0x48>
      f->ref = 1;
80100fbc:	8b 45 f4             	mov    -0xc(%ebp),%eax
80100fbf:	c7 40 04 01 00 00 00 	movl   $0x1,0x4(%eax)
      release(&ftable.lock);
80100fc6:	83 ec 0c             	sub    $0xc,%esp
80100fc9:	68 40 18 11 80       	push   $0x80111840
80100fce:	e8 2a 44 00 00       	call   801053fd <release>
80100fd3:	83 c4 10             	add    $0x10,%esp
      return f;
80100fd6:	8b 45 f4             	mov    -0xc(%ebp),%eax
80100fd9:	eb 23                	jmp    80100ffe <filealloc+0x6b>
filealloc(void)
{
  struct file *f;

  acquire(&ftable.lock);
  for(f = ftable.file; f < ftable.file + NFILE; f++){
80100fdb:	83 45 f4 18          	addl   $0x18,-0xc(%ebp)
80100fdf:	b8 d4 21 11 80       	mov    $0x801121d4,%eax
80100fe4:	39 45 f4             	cmp    %eax,-0xc(%ebp)
80100fe7:	72 c9                	jb     80100fb2 <filealloc+0x1f>
      f->ref = 1;
      release(&ftable.lock);
      return f;
    }
  }
  release(&ftable.lock);
80100fe9:	83 ec 0c             	sub    $0xc,%esp
80100fec:	68 40 18 11 80       	push   $0x80111840
80100ff1:	e8 07 44 00 00       	call   801053fd <release>
80100ff6:	83 c4 10             	add    $0x10,%esp
  return 0;
80100ff9:	b8 00 00 00 00       	mov    $0x0,%eax
}
80100ffe:	c9                   	leave  
80100fff:	c3                   	ret    

80101000 <filedup>:

// Increment ref count for file f.
struct file*
filedup(struct file *f)
{
80101000:	55                   	push   %ebp
80101001:	89 e5                	mov    %esp,%ebp
80101003:	83 ec 08             	sub    $0x8,%esp
  acquire(&ftable.lock);
80101006:	83 ec 0c             	sub    $0xc,%esp
80101009:	68 40 18 11 80       	push   $0x80111840
8010100e:	e8 83 43 00 00       	call   80105396 <acquire>
80101013:	83 c4 10             	add    $0x10,%esp
  if(f->ref < 1)
80101016:	8b 45 08             	mov    0x8(%ebp),%eax
80101019:	8b 40 04             	mov    0x4(%eax),%eax
8010101c:	85 c0                	test   %eax,%eax
8010101e:	7f 0d                	jg     8010102d <filedup+0x2d>
    panic("filedup");
80101020:	83 ec 0c             	sub    $0xc,%esp
80101023:	68 99 8a 10 80       	push   $0x80108a99
80101028:	e8 39 f5 ff ff       	call   80100566 <panic>
  f->ref++;
8010102d:	8b 45 08             	mov    0x8(%ebp),%eax
80101030:	8b 40 04             	mov    0x4(%eax),%eax
80101033:	8d 50 01             	lea    0x1(%eax),%edx
80101036:	8b 45 08             	mov    0x8(%ebp),%eax
80101039:	89 50 04             	mov    %edx,0x4(%eax)
  release(&ftable.lock);
8010103c:	83 ec 0c             	sub    $0xc,%esp
8010103f:	68 40 18 11 80       	push   $0x80111840
80101044:	e8 b4 43 00 00       	call   801053fd <release>
80101049:	83 c4 10             	add    $0x10,%esp
  return f;
8010104c:	8b 45 08             	mov    0x8(%ebp),%eax
}
8010104f:	c9                   	leave  
80101050:	c3                   	ret    

80101051 <fileclose>:

// Close file f.  (Decrement ref count, close when reaches 0.)
void
fileclose(struct file *f)
{
80101051:	55                   	push   %ebp
80101052:	89 e5                	mov    %esp,%ebp
80101054:	83 ec 28             	sub    $0x28,%esp
  struct file ff;

  acquire(&ftable.lock);
80101057:	83 ec 0c             	sub    $0xc,%esp
8010105a:	68 40 18 11 80       	push   $0x80111840
8010105f:	e8 32 43 00 00       	call   80105396 <acquire>
80101064:	83 c4 10             	add    $0x10,%esp
  if(f->ref < 1)
80101067:	8b 45 08             	mov    0x8(%ebp),%eax
8010106a:	8b 40 04             	mov    0x4(%eax),%eax
8010106d:	85 c0                	test   %eax,%eax
8010106f:	7f 0d                	jg     8010107e <fileclose+0x2d>
    panic("fileclose");
80101071:	83 ec 0c             	sub    $0xc,%esp
80101074:	68 a1 8a 10 80       	push   $0x80108aa1
80101079:	e8 e8 f4 ff ff       	call   80100566 <panic>
  if(--f->ref > 0){
8010107e:	8b 45 08             	mov    0x8(%ebp),%eax
80101081:	8b 40 04             	mov    0x4(%eax),%eax
80101084:	8d 50 ff             	lea    -0x1(%eax),%edx
80101087:	8b 45 08             	mov    0x8(%ebp),%eax
8010108a:	89 50 04             	mov    %edx,0x4(%eax)
8010108d:	8b 45 08             	mov    0x8(%ebp),%eax
80101090:	8b 40 04             	mov    0x4(%eax),%eax
80101093:	85 c0                	test   %eax,%eax
80101095:	7e 15                	jle    801010ac <fileclose+0x5b>
    release(&ftable.lock);
80101097:	83 ec 0c             	sub    $0xc,%esp
8010109a:	68 40 18 11 80       	push   $0x80111840
8010109f:	e8 59 43 00 00       	call   801053fd <release>
801010a4:	83 c4 10             	add    $0x10,%esp
801010a7:	e9 8b 00 00 00       	jmp    80101137 <fileclose+0xe6>
    return;
  }
  ff = *f;
801010ac:	8b 45 08             	mov    0x8(%ebp),%eax
801010af:	8b 10                	mov    (%eax),%edx
801010b1:	89 55 e0             	mov    %edx,-0x20(%ebp)
801010b4:	8b 50 04             	mov    0x4(%eax),%edx
801010b7:	89 55 e4             	mov    %edx,-0x1c(%ebp)
801010ba:	8b 50 08             	mov    0x8(%eax),%edx
801010bd:	89 55 e8             	mov    %edx,-0x18(%ebp)
801010c0:	8b 50 0c             	mov    0xc(%eax),%edx
801010c3:	89 55 ec             	mov    %edx,-0x14(%ebp)
801010c6:	8b 50 10             	mov    0x10(%eax),%edx
801010c9:	89 55 f0             	mov    %edx,-0x10(%ebp)
801010cc:	8b 40 14             	mov    0x14(%eax),%eax
801010cf:	89 45 f4             	mov    %eax,-0xc(%ebp)
  f->ref = 0;
801010d2:	8b 45 08             	mov    0x8(%ebp),%eax
801010d5:	c7 40 04 00 00 00 00 	movl   $0x0,0x4(%eax)
  f->type = FD_NONE;
801010dc:	8b 45 08             	mov    0x8(%ebp),%eax
801010df:	c7 00 00 00 00 00    	movl   $0x0,(%eax)
  release(&ftable.lock);
801010e5:	83 ec 0c             	sub    $0xc,%esp
801010e8:	68 40 18 11 80       	push   $0x80111840
801010ed:	e8 0b 43 00 00       	call   801053fd <release>
801010f2:	83 c4 10             	add    $0x10,%esp
  
  if(ff.type == FD_PIPE)
801010f5:	8b 45 e0             	mov    -0x20(%ebp),%eax
801010f8:	83 f8 01             	cmp    $0x1,%eax
801010fb:	75 19                	jne    80101116 <fileclose+0xc5>
    pipeclose(ff.pipe, ff.writable);
801010fd:	0f b6 45 e9          	movzbl -0x17(%ebp),%eax
80101101:	0f be d0             	movsbl %al,%edx
80101104:	8b 45 ec             	mov    -0x14(%ebp),%eax
80101107:	83 ec 08             	sub    $0x8,%esp
8010110a:	52                   	push   %edx
8010110b:	50                   	push   %eax
8010110c:	e8 83 30 00 00       	call   80104194 <pipeclose>
80101111:	83 c4 10             	add    $0x10,%esp
80101114:	eb 21                	jmp    80101137 <fileclose+0xe6>
  else if(ff.type == FD_INODE){
80101116:	8b 45 e0             	mov    -0x20(%ebp),%eax
80101119:	83 f8 02             	cmp    $0x2,%eax
8010111c:	75 19                	jne    80101137 <fileclose+0xe6>
    begin_op();
8010111e:	e8 2a 24 00 00       	call   8010354d <begin_op>
    iput(ff.ip);
80101123:	8b 45 f0             	mov    -0x10(%ebp),%eax
80101126:	83 ec 0c             	sub    $0xc,%esp
80101129:	50                   	push   %eax
8010112a:	e8 0b 0a 00 00       	call   80101b3a <iput>
8010112f:	83 c4 10             	add    $0x10,%esp
    end_op();
80101132:	e8 a2 24 00 00       	call   801035d9 <end_op>
  }
}
80101137:	c9                   	leave  
80101138:	c3                   	ret    

80101139 <filestat>:

// Get metadata about file f.
int
filestat(struct file *f, struct stat *st)
{
80101139:	55                   	push   %ebp
8010113a:	89 e5                	mov    %esp,%ebp
8010113c:	83 ec 08             	sub    $0x8,%esp
  if(f->type == FD_INODE){
8010113f:	8b 45 08             	mov    0x8(%ebp),%eax
80101142:	8b 00                	mov    (%eax),%eax
80101144:	83 f8 02             	cmp    $0x2,%eax
80101147:	75 40                	jne    80101189 <filestat+0x50>
    ilock(f->ip);
80101149:	8b 45 08             	mov    0x8(%ebp),%eax
8010114c:	8b 40 10             	mov    0x10(%eax),%eax
8010114f:	83 ec 0c             	sub    $0xc,%esp
80101152:	50                   	push   %eax
80101153:	e8 12 08 00 00       	call   8010196a <ilock>
80101158:	83 c4 10             	add    $0x10,%esp
    stati(f->ip, st);
8010115b:	8b 45 08             	mov    0x8(%ebp),%eax
8010115e:	8b 40 10             	mov    0x10(%eax),%eax
80101161:	83 ec 08             	sub    $0x8,%esp
80101164:	ff 75 0c             	pushl  0xc(%ebp)
80101167:	50                   	push   %eax
80101168:	e8 25 0d 00 00       	call   80101e92 <stati>
8010116d:	83 c4 10             	add    $0x10,%esp
    iunlock(f->ip);
80101170:	8b 45 08             	mov    0x8(%ebp),%eax
80101173:	8b 40 10             	mov    0x10(%eax),%eax
80101176:	83 ec 0c             	sub    $0xc,%esp
80101179:	50                   	push   %eax
8010117a:	e8 49 09 00 00       	call   80101ac8 <iunlock>
8010117f:	83 c4 10             	add    $0x10,%esp
    return 0;
80101182:	b8 00 00 00 00       	mov    $0x0,%eax
80101187:	eb 05                	jmp    8010118e <filestat+0x55>
  }
  return -1;
80101189:	b8 ff ff ff ff       	mov    $0xffffffff,%eax
}
8010118e:	c9                   	leave  
8010118f:	c3                   	ret    

80101190 <fileread>:

// Read from file f.
int
fileread(struct file *f, char *addr, int n)
{
80101190:	55                   	push   %ebp
80101191:	89 e5                	mov    %esp,%ebp
80101193:	83 ec 18             	sub    $0x18,%esp
  int r;

  if(f->readable == 0)
80101196:	8b 45 08             	mov    0x8(%ebp),%eax
80101199:	0f b6 40 08          	movzbl 0x8(%eax),%eax
8010119d:	84 c0                	test   %al,%al
8010119f:	75 0a                	jne    801011ab <fileread+0x1b>
    return -1;
801011a1:	b8 ff ff ff ff       	mov    $0xffffffff,%eax
801011a6:	e9 9b 00 00 00       	jmp    80101246 <fileread+0xb6>
  if(f->type == FD_PIPE)
801011ab:	8b 45 08             	mov    0x8(%ebp),%eax
801011ae:	8b 00                	mov    (%eax),%eax
801011b0:	83 f8 01             	cmp    $0x1,%eax
801011b3:	75 1a                	jne    801011cf <fileread+0x3f>
    return piperead(f->pipe, addr, n);
801011b5:	8b 45 08             	mov    0x8(%ebp),%eax
801011b8:	8b 40 0c             	mov    0xc(%eax),%eax
801011bb:	83 ec 04             	sub    $0x4,%esp
801011be:	ff 75 10             	pushl  0x10(%ebp)
801011c1:	ff 75 0c             	pushl  0xc(%ebp)
801011c4:	50                   	push   %eax
801011c5:	e8 72 31 00 00       	call   8010433c <piperead>
801011ca:	83 c4 10             	add    $0x10,%esp
801011cd:	eb 77                	jmp    80101246 <fileread+0xb6>
  if(f->type == FD_INODE){
801011cf:	8b 45 08             	mov    0x8(%ebp),%eax
801011d2:	8b 00                	mov    (%eax),%eax
801011d4:	83 f8 02             	cmp    $0x2,%eax
801011d7:	75 60                	jne    80101239 <fileread+0xa9>
    ilock(f->ip);
801011d9:	8b 45 08             	mov    0x8(%ebp),%eax
801011dc:	8b 40 10             	mov    0x10(%eax),%eax
801011df:	83 ec 0c             	sub    $0xc,%esp
801011e2:	50                   	push   %eax
801011e3:	e8 82 07 00 00       	call   8010196a <ilock>
801011e8:	83 c4 10             	add    $0x10,%esp
    if((r = readi(f->ip, addr, f->off, n)) > 0)
801011eb:	8b 4d 10             	mov    0x10(%ebp),%ecx
801011ee:	8b 45 08             	mov    0x8(%ebp),%eax
801011f1:	8b 50 14             	mov    0x14(%eax),%edx
801011f4:	8b 45 08             	mov    0x8(%ebp),%eax
801011f7:	8b 40 10             	mov    0x10(%eax),%eax
801011fa:	51                   	push   %ecx
801011fb:	52                   	push   %edx
801011fc:	ff 75 0c             	pushl  0xc(%ebp)
801011ff:	50                   	push   %eax
80101200:	e8 d3 0c 00 00       	call   80101ed8 <readi>
80101205:	83 c4 10             	add    $0x10,%esp
80101208:	89 45 f4             	mov    %eax,-0xc(%ebp)
8010120b:	83 7d f4 00          	cmpl   $0x0,-0xc(%ebp)
8010120f:	7e 11                	jle    80101222 <fileread+0x92>
      f->off += r;
80101211:	8b 45 08             	mov    0x8(%ebp),%eax
80101214:	8b 50 14             	mov    0x14(%eax),%edx
80101217:	8b 45 f4             	mov    -0xc(%ebp),%eax
8010121a:	01 c2                	add    %eax,%edx
8010121c:	8b 45 08             	mov    0x8(%ebp),%eax
8010121f:	89 50 14             	mov    %edx,0x14(%eax)
    iunlock(f->ip);
80101222:	8b 45 08             	mov    0x8(%ebp),%eax
80101225:	8b 40 10             	mov    0x10(%eax),%eax
80101228:	83 ec 0c             	sub    $0xc,%esp
8010122b:	50                   	push   %eax
8010122c:	e8 97 08 00 00       	call   80101ac8 <iunlock>
80101231:	83 c4 10             	add    $0x10,%esp
    return r;
80101234:	8b 45 f4             	mov    -0xc(%ebp),%eax
80101237:	eb 0d                	jmp    80101246 <fileread+0xb6>
  }
  panic("fileread");
80101239:	83 ec 0c             	sub    $0xc,%esp
8010123c:	68 ab 8a 10 80       	push   $0x80108aab
80101241:	e8 20 f3 ff ff       	call   80100566 <panic>
}
80101246:	c9                   	leave  
80101247:	c3                   	ret    

80101248 <filewrite>:

//PAGEBREAK!
// Write to file f.
int
filewrite(struct file *f, char *addr, int n)
{
80101248:	55                   	push   %ebp
80101249:	89 e5                	mov    %esp,%ebp
8010124b:	53                   	push   %ebx
8010124c:	83 ec 14             	sub    $0x14,%esp
  int r;

  if(f->writable == 0)
8010124f:	8b 45 08             	mov    0x8(%ebp),%eax
80101252:	0f b6 40 09          	movzbl 0x9(%eax),%eax
80101256:	84 c0                	test   %al,%al
80101258:	75 0a                	jne    80101264 <filewrite+0x1c>
    return -1;
8010125a:	b8 ff ff ff ff       	mov    $0xffffffff,%eax
8010125f:	e9 1b 01 00 00       	jmp    8010137f <filewrite+0x137>
  if(f->type == FD_PIPE)
80101264:	8b 45 08             	mov    0x8(%ebp),%eax
80101267:	8b 00                	mov    (%eax),%eax
80101269:	83 f8 01             	cmp    $0x1,%eax
8010126c:	75 1d                	jne    8010128b <filewrite+0x43>
    return pipewrite(f->pipe, addr, n);
8010126e:	8b 45 08             	mov    0x8(%ebp),%eax
80101271:	8b 40 0c             	mov    0xc(%eax),%eax
80101274:	83 ec 04             	sub    $0x4,%esp
80101277:	ff 75 10             	pushl  0x10(%ebp)
8010127a:	ff 75 0c             	pushl  0xc(%ebp)
8010127d:	50                   	push   %eax
8010127e:	e8 bb 2f 00 00       	call   8010423e <pipewrite>
80101283:	83 c4 10             	add    $0x10,%esp
80101286:	e9 f4 00 00 00       	jmp    8010137f <filewrite+0x137>
  if(f->type == FD_INODE){
8010128b:	8b 45 08             	mov    0x8(%ebp),%eax
8010128e:	8b 00                	mov    (%eax),%eax
80101290:	83 f8 02             	cmp    $0x2,%eax
80101293:	0f 85 d9 00 00 00    	jne    80101372 <filewrite+0x12a>
    // the maximum log transaction size, including
    // i-node, indirect block, allocation blocks,
    // and 2 blocks of slop for non-aligned writes.
    // this really belongs lower down, since writei()
    // might be writing a device like the console.
    int max = ((LOGSIZE-1-1-2) / 2) * 512;
80101299:	c7 45 ec 00 1a 00 00 	movl   $0x1a00,-0x14(%ebp)
    int i = 0;
801012a0:	c7 45 f4 00 00 00 00 	movl   $0x0,-0xc(%ebp)
    while(i < n){
801012a7:	e9 a3 00 00 00       	jmp    8010134f <filewrite+0x107>
      int n1 = n - i;
801012ac:	8b 45 10             	mov    0x10(%ebp),%eax
801012af:	2b 45 f4             	sub    -0xc(%ebp),%eax
801012b2:	89 45 f0             	mov    %eax,-0x10(%ebp)
      if(n1 > max)
801012b5:	8b 45 f0             	mov    -0x10(%ebp),%eax
801012b8:	3b 45 ec             	cmp    -0x14(%ebp),%eax
801012bb:	7e 06                	jle    801012c3 <filewrite+0x7b>
        n1 = max;
801012bd:	8b 45 ec             	mov    -0x14(%ebp),%eax
801012c0:	89 45 f0             	mov    %eax,-0x10(%ebp)

      begin_op();
801012c3:	e8 85 22 00 00       	call   8010354d <begin_op>
      ilock(f->ip);
801012c8:	8b 45 08             	mov    0x8(%ebp),%eax
801012cb:	8b 40 10             	mov    0x10(%eax),%eax
801012ce:	83 ec 0c             	sub    $0xc,%esp
801012d1:	50                   	push   %eax
801012d2:	e8 93 06 00 00       	call   8010196a <ilock>
801012d7:	83 c4 10             	add    $0x10,%esp
      if ((r = writei(f->ip, addr + i, f->off, n1)) > 0)
801012da:	8b 4d f0             	mov    -0x10(%ebp),%ecx
801012dd:	8b 45 08             	mov    0x8(%ebp),%eax
801012e0:	8b 50 14             	mov    0x14(%eax),%edx
801012e3:	8b 5d f4             	mov    -0xc(%ebp),%ebx
801012e6:	8b 45 0c             	mov    0xc(%ebp),%eax
801012e9:	01 c3                	add    %eax,%ebx
801012eb:	8b 45 08             	mov    0x8(%ebp),%eax
801012ee:	8b 40 10             	mov    0x10(%eax),%eax
801012f1:	51                   	push   %ecx
801012f2:	52                   	push   %edx
801012f3:	53                   	push   %ebx
801012f4:	50                   	push   %eax
801012f5:	e8 35 0d 00 00       	call   8010202f <writei>
801012fa:	83 c4 10             	add    $0x10,%esp
801012fd:	89 45 e8             	mov    %eax,-0x18(%ebp)
80101300:	83 7d e8 00          	cmpl   $0x0,-0x18(%ebp)
80101304:	7e 11                	jle    80101317 <filewrite+0xcf>
        f->off += r;
80101306:	8b 45 08             	mov    0x8(%ebp),%eax
80101309:	8b 50 14             	mov    0x14(%eax),%edx
8010130c:	8b 45 e8             	mov    -0x18(%ebp),%eax
8010130f:	01 c2                	add    %eax,%edx
80101311:	8b 45 08             	mov    0x8(%ebp),%eax
80101314:	89 50 14             	mov    %edx,0x14(%eax)
      iunlock(f->ip);
80101317:	8b 45 08             	mov    0x8(%ebp),%eax
8010131a:	8b 40 10             	mov    0x10(%eax),%eax
8010131d:	83 ec 0c             	sub    $0xc,%esp
80101320:	50                   	push   %eax
80101321:	e8 a2 07 00 00       	call   80101ac8 <iunlock>
80101326:	83 c4 10             	add    $0x10,%esp
      end_op();
80101329:	e8 ab 22 00 00       	call   801035d9 <end_op>

      if(r < 0)
8010132e:	83 7d e8 00          	cmpl   $0x0,-0x18(%ebp)
80101332:	78 29                	js     8010135d <filewrite+0x115>
        break;
      if(r != n1)
80101334:	8b 45 e8             	mov    -0x18(%ebp),%eax
80101337:	3b 45 f0             	cmp    -0x10(%ebp),%eax
8010133a:	74 0d                	je     80101349 <filewrite+0x101>
        panic("short filewrite");
8010133c:	83 ec 0c             	sub    $0xc,%esp
8010133f:	68 b4 8a 10 80       	push   $0x80108ab4
80101344:	e8 1d f2 ff ff       	call   80100566 <panic>
      i += r;
80101349:	8b 45 e8             	mov    -0x18(%ebp),%eax
8010134c:	01 45 f4             	add    %eax,-0xc(%ebp)
    // and 2 blocks of slop for non-aligned writes.
    // this really belongs lower down, since writei()
    // might be writing a device like the console.
    int max = ((LOGSIZE-1-1-2) / 2) * 512;
    int i = 0;
    while(i < n){
8010134f:	8b 45 f4             	mov    -0xc(%ebp),%eax
80101352:	3b 45 10             	cmp    0x10(%ebp),%eax
80101355:	0f 8c 51 ff ff ff    	jl     801012ac <filewrite+0x64>
8010135b:	eb 01                	jmp    8010135e <filewrite+0x116>
        f->off += r;
      iunlock(f->ip);
      end_op();

      if(r < 0)
        break;
8010135d:	90                   	nop
      if(r != n1)
        panic("short filewrite");
      i += r;
    }
    return i == n ? n : -1;
8010135e:	8b 45 f4             	mov    -0xc(%ebp),%eax
80101361:	3b 45 10             	cmp    0x10(%ebp),%eax
80101364:	75 05                	jne    8010136b <filewrite+0x123>
80101366:	8b 45 10             	mov    0x10(%ebp),%eax
80101369:	eb 14                	jmp    8010137f <filewrite+0x137>
8010136b:	b8 ff ff ff ff       	mov    $0xffffffff,%eax
80101370:	eb 0d                	jmp    8010137f <filewrite+0x137>
  }
  panic("filewrite");
80101372:	83 ec 0c             	sub    $0xc,%esp
80101375:	68 c4 8a 10 80       	push   $0x80108ac4
8010137a:	e8 e7 f1 ff ff       	call   80100566 <panic>
}
8010137f:	8b 5d fc             	mov    -0x4(%ebp),%ebx
80101382:	c9                   	leave  
80101383:	c3                   	ret    

80101384 <readsb>:
struct superblock sb;   // there should be one per dev, but we run with one dev

// Read the super block.
void
readsb(int dev, struct superblock *sb)
{
80101384:	55                   	push   %ebp
80101385:	89 e5                	mov    %esp,%ebp
80101387:	83 ec 18             	sub    $0x18,%esp
  struct buf *bp;
  
  bp = bread(dev, 1);
8010138a:	8b 45 08             	mov    0x8(%ebp),%eax
8010138d:	83 ec 08             	sub    $0x8,%esp
80101390:	6a 01                	push   $0x1
80101392:	50                   	push   %eax
80101393:	e8 1e ee ff ff       	call   801001b6 <bread>
80101398:	83 c4 10             	add    $0x10,%esp
8010139b:	89 45 f4             	mov    %eax,-0xc(%ebp)
  memmove(sb, bp->data, sizeof(*sb));
8010139e:	8b 45 f4             	mov    -0xc(%ebp),%eax
801013a1:	83 c0 18             	add    $0x18,%eax
801013a4:	83 ec 04             	sub    $0x4,%esp
801013a7:	6a 1c                	push   $0x1c
801013a9:	50                   	push   %eax
801013aa:	ff 75 0c             	pushl  0xc(%ebp)
801013ad:	e8 06 43 00 00       	call   801056b8 <memmove>
801013b2:	83 c4 10             	add    $0x10,%esp
  brelse(bp);
801013b5:	83 ec 0c             	sub    $0xc,%esp
801013b8:	ff 75 f4             	pushl  -0xc(%ebp)
801013bb:	e8 6e ee ff ff       	call   8010022e <brelse>
801013c0:	83 c4 10             	add    $0x10,%esp
}
801013c3:	90                   	nop
801013c4:	c9                   	leave  
801013c5:	c3                   	ret    

801013c6 <bzero>:

// Zero a block.
static void
bzero(int dev, int bno)
{
801013c6:	55                   	push   %ebp
801013c7:	89 e5                	mov    %esp,%ebp
801013c9:	83 ec 18             	sub    $0x18,%esp
  struct buf *bp;
  
  bp = bread(dev, bno);
801013cc:	8b 55 0c             	mov    0xc(%ebp),%edx
801013cf:	8b 45 08             	mov    0x8(%ebp),%eax
801013d2:	83 ec 08             	sub    $0x8,%esp
801013d5:	52                   	push   %edx
801013d6:	50                   	push   %eax
801013d7:	e8 da ed ff ff       	call   801001b6 <bread>
801013dc:	83 c4 10             	add    $0x10,%esp
801013df:	89 45 f4             	mov    %eax,-0xc(%ebp)
  memset(bp->data, 0, BSIZE);
801013e2:	8b 45 f4             	mov    -0xc(%ebp),%eax
801013e5:	83 c0 18             	add    $0x18,%eax
801013e8:	83 ec 04             	sub    $0x4,%esp
801013eb:	68 00 02 00 00       	push   $0x200
801013f0:	6a 00                	push   $0x0
801013f2:	50                   	push   %eax
801013f3:	e8 01 42 00 00       	call   801055f9 <memset>
801013f8:	83 c4 10             	add    $0x10,%esp
  log_write(bp);
801013fb:	83 ec 0c             	sub    $0xc,%esp
801013fe:	ff 75 f4             	pushl  -0xc(%ebp)
80101401:	e8 7f 23 00 00       	call   80103785 <log_write>
80101406:	83 c4 10             	add    $0x10,%esp
  brelse(bp);
80101409:	83 ec 0c             	sub    $0xc,%esp
8010140c:	ff 75 f4             	pushl  -0xc(%ebp)
8010140f:	e8 1a ee ff ff       	call   8010022e <brelse>
80101414:	83 c4 10             	add    $0x10,%esp
}
80101417:	90                   	nop
80101418:	c9                   	leave  
80101419:	c3                   	ret    

8010141a <balloc>:
// Blocks. 

// Allocate a zeroed disk block.
static uint
balloc(uint dev)
{
8010141a:	55                   	push   %ebp
8010141b:	89 e5                	mov    %esp,%ebp
8010141d:	83 ec 18             	sub    $0x18,%esp
  int b, bi, m;
  struct buf *bp;

  bp = 0;
80101420:	c7 45 ec 00 00 00 00 	movl   $0x0,-0x14(%ebp)
  for(b = 0; b < sb.size; b += BPB){
80101427:	c7 45 f4 00 00 00 00 	movl   $0x0,-0xc(%ebp)
8010142e:	e9 13 01 00 00       	jmp    80101546 <balloc+0x12c>
    bp = bread(dev, BBLOCK(b, sb));
80101433:	8b 45 f4             	mov    -0xc(%ebp),%eax
80101436:	8d 90 ff 0f 00 00    	lea    0xfff(%eax),%edx
8010143c:	85 c0                	test   %eax,%eax
8010143e:	0f 48 c2             	cmovs  %edx,%eax
80101441:	c1 f8 0c             	sar    $0xc,%eax
80101444:	89 c2                	mov    %eax,%edx
80101446:	a1 58 22 11 80       	mov    0x80112258,%eax
8010144b:	01 d0                	add    %edx,%eax
8010144d:	83 ec 08             	sub    $0x8,%esp
80101450:	50                   	push   %eax
80101451:	ff 75 08             	pushl  0x8(%ebp)
80101454:	e8 5d ed ff ff       	call   801001b6 <bread>
80101459:	83 c4 10             	add    $0x10,%esp
8010145c:	89 45 ec             	mov    %eax,-0x14(%ebp)
    for(bi = 0; bi < BPB && b + bi < sb.size; bi++){
8010145f:	c7 45 f0 00 00 00 00 	movl   $0x0,-0x10(%ebp)
80101466:	e9 a6 00 00 00       	jmp    80101511 <balloc+0xf7>
      m = 1 << (bi % 8);
8010146b:	8b 45 f0             	mov    -0x10(%ebp),%eax
8010146e:	99                   	cltd   
8010146f:	c1 ea 1d             	shr    $0x1d,%edx
80101472:	01 d0                	add    %edx,%eax
80101474:	83 e0 07             	and    $0x7,%eax
80101477:	29 d0                	sub    %edx,%eax
80101479:	ba 01 00 00 00       	mov    $0x1,%edx
8010147e:	89 c1                	mov    %eax,%ecx
80101480:	d3 e2                	shl    %cl,%edx
80101482:	89 d0                	mov    %edx,%eax
80101484:	89 45 e8             	mov    %eax,-0x18(%ebp)
      if((bp->data[bi/8] & m) == 0){  // Is block free?
80101487:	8b 45 f0             	mov    -0x10(%ebp),%eax
8010148a:	8d 50 07             	lea    0x7(%eax),%edx
8010148d:	85 c0                	test   %eax,%eax
8010148f:	0f 48 c2             	cmovs  %edx,%eax
80101492:	c1 f8 03             	sar    $0x3,%eax
80101495:	89 c2                	mov    %eax,%edx
80101497:	8b 45 ec             	mov    -0x14(%ebp),%eax
8010149a:	0f b6 44 10 18       	movzbl 0x18(%eax,%edx,1),%eax
8010149f:	0f b6 c0             	movzbl %al,%eax
801014a2:	23 45 e8             	and    -0x18(%ebp),%eax
801014a5:	85 c0                	test   %eax,%eax
801014a7:	75 64                	jne    8010150d <balloc+0xf3>
        bp->data[bi/8] |= m;  // Mark block in use.
801014a9:	8b 45 f0             	mov    -0x10(%ebp),%eax
801014ac:	8d 50 07             	lea    0x7(%eax),%edx
801014af:	85 c0                	test   %eax,%eax
801014b1:	0f 48 c2             	cmovs  %edx,%eax
801014b4:	c1 f8 03             	sar    $0x3,%eax
801014b7:	8b 55 ec             	mov    -0x14(%ebp),%edx
801014ba:	0f b6 54 02 18       	movzbl 0x18(%edx,%eax,1),%edx
801014bf:	89 d1                	mov    %edx,%ecx
801014c1:	8b 55 e8             	mov    -0x18(%ebp),%edx
801014c4:	09 ca                	or     %ecx,%edx
801014c6:	89 d1                	mov    %edx,%ecx
801014c8:	8b 55 ec             	mov    -0x14(%ebp),%edx
801014cb:	88 4c 02 18          	mov    %cl,0x18(%edx,%eax,1)
        log_write(bp);
801014cf:	83 ec 0c             	sub    $0xc,%esp
801014d2:	ff 75 ec             	pushl  -0x14(%ebp)
801014d5:	e8 ab 22 00 00       	call   80103785 <log_write>
801014da:	83 c4 10             	add    $0x10,%esp
        brelse(bp);
801014dd:	83 ec 0c             	sub    $0xc,%esp
801014e0:	ff 75 ec             	pushl  -0x14(%ebp)
801014e3:	e8 46 ed ff ff       	call   8010022e <brelse>
801014e8:	83 c4 10             	add    $0x10,%esp
        bzero(dev, b + bi);
801014eb:	8b 55 f4             	mov    -0xc(%ebp),%edx
801014ee:	8b 45 f0             	mov    -0x10(%ebp),%eax
801014f1:	01 c2                	add    %eax,%edx
801014f3:	8b 45 08             	mov    0x8(%ebp),%eax
801014f6:	83 ec 08             	sub    $0x8,%esp
801014f9:	52                   	push   %edx
801014fa:	50                   	push   %eax
801014fb:	e8 c6 fe ff ff       	call   801013c6 <bzero>
80101500:	83 c4 10             	add    $0x10,%esp
        return b + bi;
80101503:	8b 55 f4             	mov    -0xc(%ebp),%edx
80101506:	8b 45 f0             	mov    -0x10(%ebp),%eax
80101509:	01 d0                	add    %edx,%eax
8010150b:	eb 57                	jmp    80101564 <balloc+0x14a>
  struct buf *bp;

  bp = 0;
  for(b = 0; b < sb.size; b += BPB){
    bp = bread(dev, BBLOCK(b, sb));
    for(bi = 0; bi < BPB && b + bi < sb.size; bi++){
8010150d:	83 45 f0 01          	addl   $0x1,-0x10(%ebp)
80101511:	81 7d f0 ff 0f 00 00 	cmpl   $0xfff,-0x10(%ebp)
80101518:	7f 17                	jg     80101531 <balloc+0x117>
8010151a:	8b 55 f4             	mov    -0xc(%ebp),%edx
8010151d:	8b 45 f0             	mov    -0x10(%ebp),%eax
80101520:	01 d0                	add    %edx,%eax
80101522:	89 c2                	mov    %eax,%edx
80101524:	a1 40 22 11 80       	mov    0x80112240,%eax
80101529:	39 c2                	cmp    %eax,%edx
8010152b:	0f 82 3a ff ff ff    	jb     8010146b <balloc+0x51>
        brelse(bp);
        bzero(dev, b + bi);
        return b + bi;
      }
    }
    brelse(bp);
80101531:	83 ec 0c             	sub    $0xc,%esp
80101534:	ff 75 ec             	pushl  -0x14(%ebp)
80101537:	e8 f2 ec ff ff       	call   8010022e <brelse>
8010153c:	83 c4 10             	add    $0x10,%esp
{
  int b, bi, m;
  struct buf *bp;

  bp = 0;
  for(b = 0; b < sb.size; b += BPB){
8010153f:	81 45 f4 00 10 00 00 	addl   $0x1000,-0xc(%ebp)
80101546:	8b 15 40 22 11 80    	mov    0x80112240,%edx
8010154c:	8b 45 f4             	mov    -0xc(%ebp),%eax
8010154f:	39 c2                	cmp    %eax,%edx
80101551:	0f 87 dc fe ff ff    	ja     80101433 <balloc+0x19>
        return b + bi;
      }
    }
    brelse(bp);
  }
  panic("balloc: out of blocks");
80101557:	83 ec 0c             	sub    $0xc,%esp
8010155a:	68 d0 8a 10 80       	push   $0x80108ad0
8010155f:	e8 02 f0 ff ff       	call   80100566 <panic>
}
80101564:	c9                   	leave  
80101565:	c3                   	ret    

80101566 <bfree>:

// Free a disk block.
static void
bfree(int dev, uint b)
{
80101566:	55                   	push   %ebp
80101567:	89 e5                	mov    %esp,%ebp
80101569:	83 ec 18             	sub    $0x18,%esp
  struct buf *bp;
  int bi, m;

  readsb(dev, &sb);
8010156c:	83 ec 08             	sub    $0x8,%esp
8010156f:	68 40 22 11 80       	push   $0x80112240
80101574:	ff 75 08             	pushl  0x8(%ebp)
80101577:	e8 08 fe ff ff       	call   80101384 <readsb>
8010157c:	83 c4 10             	add    $0x10,%esp
  bp = bread(dev, BBLOCK(b, sb));
8010157f:	8b 45 0c             	mov    0xc(%ebp),%eax
80101582:	c1 e8 0c             	shr    $0xc,%eax
80101585:	89 c2                	mov    %eax,%edx
80101587:	a1 58 22 11 80       	mov    0x80112258,%eax
8010158c:	01 c2                	add    %eax,%edx
8010158e:	8b 45 08             	mov    0x8(%ebp),%eax
80101591:	83 ec 08             	sub    $0x8,%esp
80101594:	52                   	push   %edx
80101595:	50                   	push   %eax
80101596:	e8 1b ec ff ff       	call   801001b6 <bread>
8010159b:	83 c4 10             	add    $0x10,%esp
8010159e:	89 45 f4             	mov    %eax,-0xc(%ebp)
  bi = b % BPB;
801015a1:	8b 45 0c             	mov    0xc(%ebp),%eax
801015a4:	25 ff 0f 00 00       	and    $0xfff,%eax
801015a9:	89 45 f0             	mov    %eax,-0x10(%ebp)
  m = 1 << (bi % 8);
801015ac:	8b 45 f0             	mov    -0x10(%ebp),%eax
801015af:	99                   	cltd   
801015b0:	c1 ea 1d             	shr    $0x1d,%edx
801015b3:	01 d0                	add    %edx,%eax
801015b5:	83 e0 07             	and    $0x7,%eax
801015b8:	29 d0                	sub    %edx,%eax
801015ba:	ba 01 00 00 00       	mov    $0x1,%edx
801015bf:	89 c1                	mov    %eax,%ecx
801015c1:	d3 e2                	shl    %cl,%edx
801015c3:	89 d0                	mov    %edx,%eax
801015c5:	89 45 ec             	mov    %eax,-0x14(%ebp)
  if((bp->data[bi/8] & m) == 0)
801015c8:	8b 45 f0             	mov    -0x10(%ebp),%eax
801015cb:	8d 50 07             	lea    0x7(%eax),%edx
801015ce:	85 c0                	test   %eax,%eax
801015d0:	0f 48 c2             	cmovs  %edx,%eax
801015d3:	c1 f8 03             	sar    $0x3,%eax
801015d6:	89 c2                	mov    %eax,%edx
801015d8:	8b 45 f4             	mov    -0xc(%ebp),%eax
801015db:	0f b6 44 10 18       	movzbl 0x18(%eax,%edx,1),%eax
801015e0:	0f b6 c0             	movzbl %al,%eax
801015e3:	23 45 ec             	and    -0x14(%ebp),%eax
801015e6:	85 c0                	test   %eax,%eax
801015e8:	75 0d                	jne    801015f7 <bfree+0x91>
    panic("freeing free block");
801015ea:	83 ec 0c             	sub    $0xc,%esp
801015ed:	68 e6 8a 10 80       	push   $0x80108ae6
801015f2:	e8 6f ef ff ff       	call   80100566 <panic>
  bp->data[bi/8] &= ~m;
801015f7:	8b 45 f0             	mov    -0x10(%ebp),%eax
801015fa:	8d 50 07             	lea    0x7(%eax),%edx
801015fd:	85 c0                	test   %eax,%eax
801015ff:	0f 48 c2             	cmovs  %edx,%eax
80101602:	c1 f8 03             	sar    $0x3,%eax
80101605:	8b 55 f4             	mov    -0xc(%ebp),%edx
80101608:	0f b6 54 02 18       	movzbl 0x18(%edx,%eax,1),%edx
8010160d:	89 d1                	mov    %edx,%ecx
8010160f:	8b 55 ec             	mov    -0x14(%ebp),%edx
80101612:	f7 d2                	not    %edx
80101614:	21 ca                	and    %ecx,%edx
80101616:	89 d1                	mov    %edx,%ecx
80101618:	8b 55 f4             	mov    -0xc(%ebp),%edx
8010161b:	88 4c 02 18          	mov    %cl,0x18(%edx,%eax,1)
  log_write(bp);
8010161f:	83 ec 0c             	sub    $0xc,%esp
80101622:	ff 75 f4             	pushl  -0xc(%ebp)
80101625:	e8 5b 21 00 00       	call   80103785 <log_write>
8010162a:	83 c4 10             	add    $0x10,%esp
  brelse(bp);
8010162d:	83 ec 0c             	sub    $0xc,%esp
80101630:	ff 75 f4             	pushl  -0xc(%ebp)
80101633:	e8 f6 eb ff ff       	call   8010022e <brelse>
80101638:	83 c4 10             	add    $0x10,%esp
}
8010163b:	90                   	nop
8010163c:	c9                   	leave  
8010163d:	c3                   	ret    

8010163e <iinit>:
  struct inode inode[NINODE];
} icache;

void
iinit(int dev)
{
8010163e:	55                   	push   %ebp
8010163f:	89 e5                	mov    %esp,%ebp
80101641:	57                   	push   %edi
80101642:	56                   	push   %esi
80101643:	53                   	push   %ebx
80101644:	83 ec 1c             	sub    $0x1c,%esp
  initlock(&icache.lock, "icache");
80101647:	83 ec 08             	sub    $0x8,%esp
8010164a:	68 f9 8a 10 80       	push   $0x80108af9
8010164f:	68 60 22 11 80       	push   $0x80112260
80101654:	e8 1b 3d 00 00       	call   80105374 <initlock>
80101659:	83 c4 10             	add    $0x10,%esp
  readsb(dev, &sb);
8010165c:	83 ec 08             	sub    $0x8,%esp
8010165f:	68 40 22 11 80       	push   $0x80112240
80101664:	ff 75 08             	pushl  0x8(%ebp)
80101667:	e8 18 fd ff ff       	call   80101384 <readsb>
8010166c:	83 c4 10             	add    $0x10,%esp
  cprintf("sb: size %d nblocks %d ninodes %d nlog %d logstart %d inodestart %d bmap start %d\n", sb.size,
8010166f:	a1 58 22 11 80       	mov    0x80112258,%eax
80101674:	89 45 e4             	mov    %eax,-0x1c(%ebp)
80101677:	8b 3d 54 22 11 80    	mov    0x80112254,%edi
8010167d:	8b 35 50 22 11 80    	mov    0x80112250,%esi
80101683:	8b 1d 4c 22 11 80    	mov    0x8011224c,%ebx
80101689:	8b 0d 48 22 11 80    	mov    0x80112248,%ecx
8010168f:	8b 15 44 22 11 80    	mov    0x80112244,%edx
80101695:	a1 40 22 11 80       	mov    0x80112240,%eax
8010169a:	ff 75 e4             	pushl  -0x1c(%ebp)
8010169d:	57                   	push   %edi
8010169e:	56                   	push   %esi
8010169f:	53                   	push   %ebx
801016a0:	51                   	push   %ecx
801016a1:	52                   	push   %edx
801016a2:	50                   	push   %eax
801016a3:	68 00 8b 10 80       	push   $0x80108b00
801016a8:	e8 19 ed ff ff       	call   801003c6 <cprintf>
801016ad:	83 c4 20             	add    $0x20,%esp
          sb.nblocks, sb.ninodes, sb.nlog, sb.logstart, sb.inodestart, sb.bmapstart);
}
801016b0:	90                   	nop
801016b1:	8d 65 f4             	lea    -0xc(%ebp),%esp
801016b4:	5b                   	pop    %ebx
801016b5:	5e                   	pop    %esi
801016b6:	5f                   	pop    %edi
801016b7:	5d                   	pop    %ebp
801016b8:	c3                   	ret    

801016b9 <ialloc>:
//PAGEBREAK!
// Allocate a new inode with the given type on device dev.
// A free inode has a type of zero.
struct inode*
ialloc(uint dev, short type)
{
801016b9:	55                   	push   %ebp
801016ba:	89 e5                	mov    %esp,%ebp
801016bc:	83 ec 28             	sub    $0x28,%esp
801016bf:	8b 45 0c             	mov    0xc(%ebp),%eax
801016c2:	66 89 45 e4          	mov    %ax,-0x1c(%ebp)
  int inum;
  struct buf *bp;
  struct dinode *dip;

  for(inum = 1; inum < sb.ninodes; inum++){
801016c6:	c7 45 f4 01 00 00 00 	movl   $0x1,-0xc(%ebp)
801016cd:	e9 9e 00 00 00       	jmp    80101770 <ialloc+0xb7>
    bp = bread(dev, IBLOCK(inum, sb));
801016d2:	8b 45 f4             	mov    -0xc(%ebp),%eax
801016d5:	c1 e8 03             	shr    $0x3,%eax
801016d8:	89 c2                	mov    %eax,%edx
801016da:	a1 54 22 11 80       	mov    0x80112254,%eax
801016df:	01 d0                	add    %edx,%eax
801016e1:	83 ec 08             	sub    $0x8,%esp
801016e4:	50                   	push   %eax
801016e5:	ff 75 08             	pushl  0x8(%ebp)
801016e8:	e8 c9 ea ff ff       	call   801001b6 <bread>
801016ed:	83 c4 10             	add    $0x10,%esp
801016f0:	89 45 f0             	mov    %eax,-0x10(%ebp)
    dip = (struct dinode*)bp->data + inum%IPB;
801016f3:	8b 45 f0             	mov    -0x10(%ebp),%eax
801016f6:	8d 50 18             	lea    0x18(%eax),%edx
801016f9:	8b 45 f4             	mov    -0xc(%ebp),%eax
801016fc:	83 e0 07             	and    $0x7,%eax
801016ff:	c1 e0 06             	shl    $0x6,%eax
80101702:	01 d0                	add    %edx,%eax
80101704:	89 45 ec             	mov    %eax,-0x14(%ebp)
    if(dip->type == 0){  // a free inode
80101707:	8b 45 ec             	mov    -0x14(%ebp),%eax
8010170a:	0f b7 00             	movzwl (%eax),%eax
8010170d:	66 85 c0             	test   %ax,%ax
80101710:	75 4c                	jne    8010175e <ialloc+0xa5>
      memset(dip, 0, sizeof(*dip));
80101712:	83 ec 04             	sub    $0x4,%esp
80101715:	6a 40                	push   $0x40
80101717:	6a 00                	push   $0x0
80101719:	ff 75 ec             	pushl  -0x14(%ebp)
8010171c:	e8 d8 3e 00 00       	call   801055f9 <memset>
80101721:	83 c4 10             	add    $0x10,%esp
      dip->type = type;
80101724:	8b 45 ec             	mov    -0x14(%ebp),%eax
80101727:	0f b7 55 e4          	movzwl -0x1c(%ebp),%edx
8010172b:	66 89 10             	mov    %dx,(%eax)
      log_write(bp);   // mark it allocated on the disk
8010172e:	83 ec 0c             	sub    $0xc,%esp
80101731:	ff 75 f0             	pushl  -0x10(%ebp)
80101734:	e8 4c 20 00 00       	call   80103785 <log_write>
80101739:	83 c4 10             	add    $0x10,%esp
      brelse(bp);
8010173c:	83 ec 0c             	sub    $0xc,%esp
8010173f:	ff 75 f0             	pushl  -0x10(%ebp)
80101742:	e8 e7 ea ff ff       	call   8010022e <brelse>
80101747:	83 c4 10             	add    $0x10,%esp
      return iget(dev, inum);
8010174a:	8b 45 f4             	mov    -0xc(%ebp),%eax
8010174d:	83 ec 08             	sub    $0x8,%esp
80101750:	50                   	push   %eax
80101751:	ff 75 08             	pushl  0x8(%ebp)
80101754:	e8 f8 00 00 00       	call   80101851 <iget>
80101759:	83 c4 10             	add    $0x10,%esp
8010175c:	eb 30                	jmp    8010178e <ialloc+0xd5>
    }
    brelse(bp);
8010175e:	83 ec 0c             	sub    $0xc,%esp
80101761:	ff 75 f0             	pushl  -0x10(%ebp)
80101764:	e8 c5 ea ff ff       	call   8010022e <brelse>
80101769:	83 c4 10             	add    $0x10,%esp
{
  int inum;
  struct buf *bp;
  struct dinode *dip;

  for(inum = 1; inum < sb.ninodes; inum++){
8010176c:	83 45 f4 01          	addl   $0x1,-0xc(%ebp)
80101770:	8b 15 48 22 11 80    	mov    0x80112248,%edx
80101776:	8b 45 f4             	mov    -0xc(%ebp),%eax
80101779:	39 c2                	cmp    %eax,%edx
8010177b:	0f 87 51 ff ff ff    	ja     801016d2 <ialloc+0x19>
      brelse(bp);
      return iget(dev, inum);
    }
    brelse(bp);
  }
  panic("ialloc: no inodes");
80101781:	83 ec 0c             	sub    $0xc,%esp
80101784:	68 53 8b 10 80       	push   $0x80108b53
80101789:	e8 d8 ed ff ff       	call   80100566 <panic>
}
8010178e:	c9                   	leave  
8010178f:	c3                   	ret    

80101790 <iupdate>:

// Copy a modified in-memory inode to disk.
void
iupdate(struct inode *ip)
{
80101790:	55                   	push   %ebp
80101791:	89 e5                	mov    %esp,%ebp
80101793:	83 ec 18             	sub    $0x18,%esp
  struct buf *bp;
  struct dinode *dip;

  bp = bread(ip->dev, IBLOCK(ip->inum, sb));
80101796:	8b 45 08             	mov    0x8(%ebp),%eax
80101799:	8b 40 04             	mov    0x4(%eax),%eax
8010179c:	c1 e8 03             	shr    $0x3,%eax
8010179f:	89 c2                	mov    %eax,%edx
801017a1:	a1 54 22 11 80       	mov    0x80112254,%eax
801017a6:	01 c2                	add    %eax,%edx
801017a8:	8b 45 08             	mov    0x8(%ebp),%eax
801017ab:	8b 00                	mov    (%eax),%eax
801017ad:	83 ec 08             	sub    $0x8,%esp
801017b0:	52                   	push   %edx
801017b1:	50                   	push   %eax
801017b2:	e8 ff e9 ff ff       	call   801001b6 <bread>
801017b7:	83 c4 10             	add    $0x10,%esp
801017ba:	89 45 f4             	mov    %eax,-0xc(%ebp)
  dip = (struct dinode*)bp->data + ip->inum%IPB;
801017bd:	8b 45 f4             	mov    -0xc(%ebp),%eax
801017c0:	8d 50 18             	lea    0x18(%eax),%edx
801017c3:	8b 45 08             	mov    0x8(%ebp),%eax
801017c6:	8b 40 04             	mov    0x4(%eax),%eax
801017c9:	83 e0 07             	and    $0x7,%eax
801017cc:	c1 e0 06             	shl    $0x6,%eax
801017cf:	01 d0                	add    %edx,%eax
801017d1:	89 45 f0             	mov    %eax,-0x10(%ebp)
  dip->type = ip->type;
801017d4:	8b 45 08             	mov    0x8(%ebp),%eax
801017d7:	0f b7 50 10          	movzwl 0x10(%eax),%edx
801017db:	8b 45 f0             	mov    -0x10(%ebp),%eax
801017de:	66 89 10             	mov    %dx,(%eax)
  dip->major = ip->major;
801017e1:	8b 45 08             	mov    0x8(%ebp),%eax
801017e4:	0f b7 50 12          	movzwl 0x12(%eax),%edx
801017e8:	8b 45 f0             	mov    -0x10(%ebp),%eax
801017eb:	66 89 50 02          	mov    %dx,0x2(%eax)
  dip->minor = ip->minor;
801017ef:	8b 45 08             	mov    0x8(%ebp),%eax
801017f2:	0f b7 50 14          	movzwl 0x14(%eax),%edx
801017f6:	8b 45 f0             	mov    -0x10(%ebp),%eax
801017f9:	66 89 50 04          	mov    %dx,0x4(%eax)
  dip->nlink = ip->nlink;
801017fd:	8b 45 08             	mov    0x8(%ebp),%eax
80101800:	0f b7 50 16          	movzwl 0x16(%eax),%edx
80101804:	8b 45 f0             	mov    -0x10(%ebp),%eax
80101807:	66 89 50 06          	mov    %dx,0x6(%eax)
  dip->size = ip->size;
8010180b:	8b 45 08             	mov    0x8(%ebp),%eax
8010180e:	8b 50 18             	mov    0x18(%eax),%edx
80101811:	8b 45 f0             	mov    -0x10(%ebp),%eax
80101814:	89 50 08             	mov    %edx,0x8(%eax)
  memmove(dip->addrs, ip->addrs, sizeof(ip->addrs));
80101817:	8b 45 08             	mov    0x8(%ebp),%eax
8010181a:	8d 50 1c             	lea    0x1c(%eax),%edx
8010181d:	8b 45 f0             	mov    -0x10(%ebp),%eax
80101820:	83 c0 0c             	add    $0xc,%eax
80101823:	83 ec 04             	sub    $0x4,%esp
80101826:	6a 34                	push   $0x34
80101828:	52                   	push   %edx
80101829:	50                   	push   %eax
8010182a:	e8 89 3e 00 00       	call   801056b8 <memmove>
8010182f:	83 c4 10             	add    $0x10,%esp
  log_write(bp);
80101832:	83 ec 0c             	sub    $0xc,%esp
80101835:	ff 75 f4             	pushl  -0xc(%ebp)
80101838:	e8 48 1f 00 00       	call   80103785 <log_write>
8010183d:	83 c4 10             	add    $0x10,%esp
  brelse(bp);
80101840:	83 ec 0c             	sub    $0xc,%esp
80101843:	ff 75 f4             	pushl  -0xc(%ebp)
80101846:	e8 e3 e9 ff ff       	call   8010022e <brelse>
8010184b:	83 c4 10             	add    $0x10,%esp
}
8010184e:	90                   	nop
8010184f:	c9                   	leave  
80101850:	c3                   	ret    

80101851 <iget>:
// Find the inode with number inum on device dev
// and return the in-memory copy. Does not lock
// the inode and does not read it from disk.
static struct inode*
iget(uint dev, uint inum)
{
80101851:	55                   	push   %ebp
80101852:	89 e5                	mov    %esp,%ebp
80101854:	83 ec 18             	sub    $0x18,%esp
  struct inode *ip, *empty;

  acquire(&icache.lock);
80101857:	83 ec 0c             	sub    $0xc,%esp
8010185a:	68 60 22 11 80       	push   $0x80112260
8010185f:	e8 32 3b 00 00       	call   80105396 <acquire>
80101864:	83 c4 10             	add    $0x10,%esp

  // Is the inode already cached?
  empty = 0;
80101867:	c7 45 f0 00 00 00 00 	movl   $0x0,-0x10(%ebp)
  for(ip = &icache.inode[0]; ip < &icache.inode[NINODE]; ip++){
8010186e:	c7 45 f4 94 22 11 80 	movl   $0x80112294,-0xc(%ebp)
80101875:	eb 5d                	jmp    801018d4 <iget+0x83>
    if(ip->ref > 0 && ip->dev == dev && ip->inum == inum){
80101877:	8b 45 f4             	mov    -0xc(%ebp),%eax
8010187a:	8b 40 08             	mov    0x8(%eax),%eax
8010187d:	85 c0                	test   %eax,%eax
8010187f:	7e 39                	jle    801018ba <iget+0x69>
80101881:	8b 45 f4             	mov    -0xc(%ebp),%eax
80101884:	8b 00                	mov    (%eax),%eax
80101886:	3b 45 08             	cmp    0x8(%ebp),%eax
80101889:	75 2f                	jne    801018ba <iget+0x69>
8010188b:	8b 45 f4             	mov    -0xc(%ebp),%eax
8010188e:	8b 40 04             	mov    0x4(%eax),%eax
80101891:	3b 45 0c             	cmp    0xc(%ebp),%eax
80101894:	75 24                	jne    801018ba <iget+0x69>
      ip->ref++;
80101896:	8b 45 f4             	mov    -0xc(%ebp),%eax
80101899:	8b 40 08             	mov    0x8(%eax),%eax
8010189c:	8d 50 01             	lea    0x1(%eax),%edx
8010189f:	8b 45 f4             	mov    -0xc(%ebp),%eax
801018a2:	89 50 08             	mov    %edx,0x8(%eax)
      release(&icache.lock);
801018a5:	83 ec 0c             	sub    $0xc,%esp
801018a8:	68 60 22 11 80       	push   $0x80112260
801018ad:	e8 4b 3b 00 00       	call   801053fd <release>
801018b2:	83 c4 10             	add    $0x10,%esp
      return ip;
801018b5:	8b 45 f4             	mov    -0xc(%ebp),%eax
801018b8:	eb 74                	jmp    8010192e <iget+0xdd>
    }
    if(empty == 0 && ip->ref == 0)    // Remember empty slot.
801018ba:	83 7d f0 00          	cmpl   $0x0,-0x10(%ebp)
801018be:	75 10                	jne    801018d0 <iget+0x7f>
801018c0:	8b 45 f4             	mov    -0xc(%ebp),%eax
801018c3:	8b 40 08             	mov    0x8(%eax),%eax
801018c6:	85 c0                	test   %eax,%eax
801018c8:	75 06                	jne    801018d0 <iget+0x7f>
      empty = ip;
801018ca:	8b 45 f4             	mov    -0xc(%ebp),%eax
801018cd:	89 45 f0             	mov    %eax,-0x10(%ebp)

  acquire(&icache.lock);

  // Is the inode already cached?
  empty = 0;
  for(ip = &icache.inode[0]; ip < &icache.inode[NINODE]; ip++){
801018d0:	83 45 f4 50          	addl   $0x50,-0xc(%ebp)
801018d4:	81 7d f4 34 32 11 80 	cmpl   $0x80113234,-0xc(%ebp)
801018db:	72 9a                	jb     80101877 <iget+0x26>
    if(empty == 0 && ip->ref == 0)    // Remember empty slot.
      empty = ip;
  }

  // Recycle an inode cache entry.
  if(empty == 0)
801018dd:	83 7d f0 00          	cmpl   $0x0,-0x10(%ebp)
801018e1:	75 0d                	jne    801018f0 <iget+0x9f>
    panic("iget: no inodes");
801018e3:	83 ec 0c             	sub    $0xc,%esp
801018e6:	68 65 8b 10 80       	push   $0x80108b65
801018eb:	e8 76 ec ff ff       	call   80100566 <panic>

  ip = empty;
801018f0:	8b 45 f0             	mov    -0x10(%ebp),%eax
801018f3:	89 45 f4             	mov    %eax,-0xc(%ebp)
  ip->dev = dev;
801018f6:	8b 45 f4             	mov    -0xc(%ebp),%eax
801018f9:	8b 55 08             	mov    0x8(%ebp),%edx
801018fc:	89 10                	mov    %edx,(%eax)
  ip->inum = inum;
801018fe:	8b 45 f4             	mov    -0xc(%ebp),%eax
80101901:	8b 55 0c             	mov    0xc(%ebp),%edx
80101904:	89 50 04             	mov    %edx,0x4(%eax)
  ip->ref = 1;
80101907:	8b 45 f4             	mov    -0xc(%ebp),%eax
8010190a:	c7 40 08 01 00 00 00 	movl   $0x1,0x8(%eax)
  ip->flags = 0;
80101911:	8b 45 f4             	mov    -0xc(%ebp),%eax
80101914:	c7 40 0c 00 00 00 00 	movl   $0x0,0xc(%eax)
  release(&icache.lock);
8010191b:	83 ec 0c             	sub    $0xc,%esp
8010191e:	68 60 22 11 80       	push   $0x80112260
80101923:	e8 d5 3a 00 00       	call   801053fd <release>
80101928:	83 c4 10             	add    $0x10,%esp

  return ip;
8010192b:	8b 45 f4             	mov    -0xc(%ebp),%eax
}
8010192e:	c9                   	leave  
8010192f:	c3                   	ret    

80101930 <idup>:

// Increment reference count for ip.
// Returns ip to enable ip = idup(ip1) idiom.
struct inode*
idup(struct inode *ip)
{
80101930:	55                   	push   %ebp
80101931:	89 e5                	mov    %esp,%ebp
80101933:	83 ec 08             	sub    $0x8,%esp
  acquire(&icache.lock);
80101936:	83 ec 0c             	sub    $0xc,%esp
80101939:	68 60 22 11 80       	push   $0x80112260
8010193e:	e8 53 3a 00 00       	call   80105396 <acquire>
80101943:	83 c4 10             	add    $0x10,%esp
  ip->ref++;
80101946:	8b 45 08             	mov    0x8(%ebp),%eax
80101949:	8b 40 08             	mov    0x8(%eax),%eax
8010194c:	8d 50 01             	lea    0x1(%eax),%edx
8010194f:	8b 45 08             	mov    0x8(%ebp),%eax
80101952:	89 50 08             	mov    %edx,0x8(%eax)
  release(&icache.lock);
80101955:	83 ec 0c             	sub    $0xc,%esp
80101958:	68 60 22 11 80       	push   $0x80112260
8010195d:	e8 9b 3a 00 00       	call   801053fd <release>
80101962:	83 c4 10             	add    $0x10,%esp
  return ip;
80101965:	8b 45 08             	mov    0x8(%ebp),%eax
}
80101968:	c9                   	leave  
80101969:	c3                   	ret    

8010196a <ilock>:

// Lock the given inode.
// Reads the inode from disk if necessary.
void
ilock(struct inode *ip)
{
8010196a:	55                   	push   %ebp
8010196b:	89 e5                	mov    %esp,%ebp
8010196d:	83 ec 18             	sub    $0x18,%esp
  struct buf *bp;
  struct dinode *dip;

  if(ip == 0 || ip->ref < 1)
80101970:	83 7d 08 00          	cmpl   $0x0,0x8(%ebp)
80101974:	74 0a                	je     80101980 <ilock+0x16>
80101976:	8b 45 08             	mov    0x8(%ebp),%eax
80101979:	8b 40 08             	mov    0x8(%eax),%eax
8010197c:	85 c0                	test   %eax,%eax
8010197e:	7f 0d                	jg     8010198d <ilock+0x23>
    panic("ilock");
80101980:	83 ec 0c             	sub    $0xc,%esp
80101983:	68 75 8b 10 80       	push   $0x80108b75
80101988:	e8 d9 eb ff ff       	call   80100566 <panic>

  acquire(&icache.lock);
8010198d:	83 ec 0c             	sub    $0xc,%esp
80101990:	68 60 22 11 80       	push   $0x80112260
80101995:	e8 fc 39 00 00       	call   80105396 <acquire>
8010199a:	83 c4 10             	add    $0x10,%esp
  while(ip->flags & I_BUSY)
8010199d:	eb 13                	jmp    801019b2 <ilock+0x48>
    sleep(ip, &icache.lock);
8010199f:	83 ec 08             	sub    $0x8,%esp
801019a2:	68 60 22 11 80       	push   $0x80112260
801019a7:	ff 75 08             	pushl  0x8(%ebp)
801019aa:	e8 4d 34 00 00       	call   80104dfc <sleep>
801019af:	83 c4 10             	add    $0x10,%esp

  if(ip == 0 || ip->ref < 1)
    panic("ilock");

  acquire(&icache.lock);
  while(ip->flags & I_BUSY)
801019b2:	8b 45 08             	mov    0x8(%ebp),%eax
801019b5:	8b 40 0c             	mov    0xc(%eax),%eax
801019b8:	83 e0 01             	and    $0x1,%eax
801019bb:	85 c0                	test   %eax,%eax
801019bd:	75 e0                	jne    8010199f <ilock+0x35>
    sleep(ip, &icache.lock);
  ip->flags |= I_BUSY;
801019bf:	8b 45 08             	mov    0x8(%ebp),%eax
801019c2:	8b 40 0c             	mov    0xc(%eax),%eax
801019c5:	83 c8 01             	or     $0x1,%eax
801019c8:	89 c2                	mov    %eax,%edx
801019ca:	8b 45 08             	mov    0x8(%ebp),%eax
801019cd:	89 50 0c             	mov    %edx,0xc(%eax)
  release(&icache.lock);
801019d0:	83 ec 0c             	sub    $0xc,%esp
801019d3:	68 60 22 11 80       	push   $0x80112260
801019d8:	e8 20 3a 00 00       	call   801053fd <release>
801019dd:	83 c4 10             	add    $0x10,%esp

  if(!(ip->flags & I_VALID)){
801019e0:	8b 45 08             	mov    0x8(%ebp),%eax
801019e3:	8b 40 0c             	mov    0xc(%eax),%eax
801019e6:	83 e0 02             	and    $0x2,%eax
801019e9:	85 c0                	test   %eax,%eax
801019eb:	0f 85 d4 00 00 00    	jne    80101ac5 <ilock+0x15b>
    bp = bread(ip->dev, IBLOCK(ip->inum, sb));
801019f1:	8b 45 08             	mov    0x8(%ebp),%eax
801019f4:	8b 40 04             	mov    0x4(%eax),%eax
801019f7:	c1 e8 03             	shr    $0x3,%eax
801019fa:	89 c2                	mov    %eax,%edx
801019fc:	a1 54 22 11 80       	mov    0x80112254,%eax
80101a01:	01 c2                	add    %eax,%edx
80101a03:	8b 45 08             	mov    0x8(%ebp),%eax
80101a06:	8b 00                	mov    (%eax),%eax
80101a08:	83 ec 08             	sub    $0x8,%esp
80101a0b:	52                   	push   %edx
80101a0c:	50                   	push   %eax
80101a0d:	e8 a4 e7 ff ff       	call   801001b6 <bread>
80101a12:	83 c4 10             	add    $0x10,%esp
80101a15:	89 45 f4             	mov    %eax,-0xc(%ebp)
    dip = (struct dinode*)bp->data + ip->inum%IPB;
80101a18:	8b 45 f4             	mov    -0xc(%ebp),%eax
80101a1b:	8d 50 18             	lea    0x18(%eax),%edx
80101a1e:	8b 45 08             	mov    0x8(%ebp),%eax
80101a21:	8b 40 04             	mov    0x4(%eax),%eax
80101a24:	83 e0 07             	and    $0x7,%eax
80101a27:	c1 e0 06             	shl    $0x6,%eax
80101a2a:	01 d0                	add    %edx,%eax
80101a2c:	89 45 f0             	mov    %eax,-0x10(%ebp)
    ip->type = dip->type;
80101a2f:	8b 45 f0             	mov    -0x10(%ebp),%eax
80101a32:	0f b7 10             	movzwl (%eax),%edx
80101a35:	8b 45 08             	mov    0x8(%ebp),%eax
80101a38:	66 89 50 10          	mov    %dx,0x10(%eax)
    ip->major = dip->major;
80101a3c:	8b 45 f0             	mov    -0x10(%ebp),%eax
80101a3f:	0f b7 50 02          	movzwl 0x2(%eax),%edx
80101a43:	8b 45 08             	mov    0x8(%ebp),%eax
80101a46:	66 89 50 12          	mov    %dx,0x12(%eax)
    ip->minor = dip->minor;
80101a4a:	8b 45 f0             	mov    -0x10(%ebp),%eax
80101a4d:	0f b7 50 04          	movzwl 0x4(%eax),%edx
80101a51:	8b 45 08             	mov    0x8(%ebp),%eax
80101a54:	66 89 50 14          	mov    %dx,0x14(%eax)
    ip->nlink = dip->nlink;
80101a58:	8b 45 f0             	mov    -0x10(%ebp),%eax
80101a5b:	0f b7 50 06          	movzwl 0x6(%eax),%edx
80101a5f:	8b 45 08             	mov    0x8(%ebp),%eax
80101a62:	66 89 50 16          	mov    %dx,0x16(%eax)
    ip->size = dip->size;
80101a66:	8b 45 f0             	mov    -0x10(%ebp),%eax
80101a69:	8b 50 08             	mov    0x8(%eax),%edx
80101a6c:	8b 45 08             	mov    0x8(%ebp),%eax
80101a6f:	89 50 18             	mov    %edx,0x18(%eax)
    memmove(ip->addrs, dip->addrs, sizeof(ip->addrs));
80101a72:	8b 45 f0             	mov    -0x10(%ebp),%eax
80101a75:	8d 50 0c             	lea    0xc(%eax),%edx
80101a78:	8b 45 08             	mov    0x8(%ebp),%eax
80101a7b:	83 c0 1c             	add    $0x1c,%eax
80101a7e:	83 ec 04             	sub    $0x4,%esp
80101a81:	6a 34                	push   $0x34
80101a83:	52                   	push   %edx
80101a84:	50                   	push   %eax
80101a85:	e8 2e 3c 00 00       	call   801056b8 <memmove>
80101a8a:	83 c4 10             	add    $0x10,%esp
    brelse(bp);
80101a8d:	83 ec 0c             	sub    $0xc,%esp
80101a90:	ff 75 f4             	pushl  -0xc(%ebp)
80101a93:	e8 96 e7 ff ff       	call   8010022e <brelse>
80101a98:	83 c4 10             	add    $0x10,%esp
    ip->flags |= I_VALID;
80101a9b:	8b 45 08             	mov    0x8(%ebp),%eax
80101a9e:	8b 40 0c             	mov    0xc(%eax),%eax
80101aa1:	83 c8 02             	or     $0x2,%eax
80101aa4:	89 c2                	mov    %eax,%edx
80101aa6:	8b 45 08             	mov    0x8(%ebp),%eax
80101aa9:	89 50 0c             	mov    %edx,0xc(%eax)
    if(ip->type == 0)
80101aac:	8b 45 08             	mov    0x8(%ebp),%eax
80101aaf:	0f b7 40 10          	movzwl 0x10(%eax),%eax
80101ab3:	66 85 c0             	test   %ax,%ax
80101ab6:	75 0d                	jne    80101ac5 <ilock+0x15b>
      panic("ilock: no type");
80101ab8:	83 ec 0c             	sub    $0xc,%esp
80101abb:	68 7b 8b 10 80       	push   $0x80108b7b
80101ac0:	e8 a1 ea ff ff       	call   80100566 <panic>
  }
}
80101ac5:	90                   	nop
80101ac6:	c9                   	leave  
80101ac7:	c3                   	ret    

80101ac8 <iunlock>:

// Unlock the given inode.
void
iunlock(struct inode *ip)
{
80101ac8:	55                   	push   %ebp
80101ac9:	89 e5                	mov    %esp,%ebp
80101acb:	83 ec 08             	sub    $0x8,%esp
  if(ip == 0 || !(ip->flags & I_BUSY) || ip->ref < 1)
80101ace:	83 7d 08 00          	cmpl   $0x0,0x8(%ebp)
80101ad2:	74 17                	je     80101aeb <iunlock+0x23>
80101ad4:	8b 45 08             	mov    0x8(%ebp),%eax
80101ad7:	8b 40 0c             	mov    0xc(%eax),%eax
80101ada:	83 e0 01             	and    $0x1,%eax
80101add:	85 c0                	test   %eax,%eax
80101adf:	74 0a                	je     80101aeb <iunlock+0x23>
80101ae1:	8b 45 08             	mov    0x8(%ebp),%eax
80101ae4:	8b 40 08             	mov    0x8(%eax),%eax
80101ae7:	85 c0                	test   %eax,%eax
80101ae9:	7f 0d                	jg     80101af8 <iunlock+0x30>
    panic("iunlock");
80101aeb:	83 ec 0c             	sub    $0xc,%esp
80101aee:	68 8a 8b 10 80       	push   $0x80108b8a
80101af3:	e8 6e ea ff ff       	call   80100566 <panic>

  acquire(&icache.lock);
80101af8:	83 ec 0c             	sub    $0xc,%esp
80101afb:	68 60 22 11 80       	push   $0x80112260
80101b00:	e8 91 38 00 00       	call   80105396 <acquire>
80101b05:	83 c4 10             	add    $0x10,%esp
  ip->flags &= ~I_BUSY;
80101b08:	8b 45 08             	mov    0x8(%ebp),%eax
80101b0b:	8b 40 0c             	mov    0xc(%eax),%eax
80101b0e:	83 e0 fe             	and    $0xfffffffe,%eax
80101b11:	89 c2                	mov    %eax,%edx
80101b13:	8b 45 08             	mov    0x8(%ebp),%eax
80101b16:	89 50 0c             	mov    %edx,0xc(%eax)
  wakeup(ip);
80101b19:	83 ec 0c             	sub    $0xc,%esp
80101b1c:	ff 75 08             	pushl  0x8(%ebp)
80101b1f:	e8 bf 33 00 00       	call   80104ee3 <wakeup>
80101b24:	83 c4 10             	add    $0x10,%esp
  release(&icache.lock);
80101b27:	83 ec 0c             	sub    $0xc,%esp
80101b2a:	68 60 22 11 80       	push   $0x80112260
80101b2f:	e8 c9 38 00 00       	call   801053fd <release>
80101b34:	83 c4 10             	add    $0x10,%esp
}
80101b37:	90                   	nop
80101b38:	c9                   	leave  
80101b39:	c3                   	ret    

80101b3a <iput>:
// to it, free the inode (and its content) on disk.
// All calls to iput() must be inside a transaction in
// case it has to free the inode.
void
iput(struct inode *ip)
{
80101b3a:	55                   	push   %ebp
80101b3b:	89 e5                	mov    %esp,%ebp
80101b3d:	83 ec 08             	sub    $0x8,%esp
  acquire(&icache.lock);
80101b40:	83 ec 0c             	sub    $0xc,%esp
80101b43:	68 60 22 11 80       	push   $0x80112260
80101b48:	e8 49 38 00 00       	call   80105396 <acquire>
80101b4d:	83 c4 10             	add    $0x10,%esp
  if(ip->ref == 1 && (ip->flags & I_VALID) && ip->nlink == 0){
80101b50:	8b 45 08             	mov    0x8(%ebp),%eax
80101b53:	8b 40 08             	mov    0x8(%eax),%eax
80101b56:	83 f8 01             	cmp    $0x1,%eax
80101b59:	0f 85 a9 00 00 00    	jne    80101c08 <iput+0xce>
80101b5f:	8b 45 08             	mov    0x8(%ebp),%eax
80101b62:	8b 40 0c             	mov    0xc(%eax),%eax
80101b65:	83 e0 02             	and    $0x2,%eax
80101b68:	85 c0                	test   %eax,%eax
80101b6a:	0f 84 98 00 00 00    	je     80101c08 <iput+0xce>
80101b70:	8b 45 08             	mov    0x8(%ebp),%eax
80101b73:	0f b7 40 16          	movzwl 0x16(%eax),%eax
80101b77:	66 85 c0             	test   %ax,%ax
80101b7a:	0f 85 88 00 00 00    	jne    80101c08 <iput+0xce>
    // inode has no links and no other references: truncate and free.
    if(ip->flags & I_BUSY)
80101b80:	8b 45 08             	mov    0x8(%ebp),%eax
80101b83:	8b 40 0c             	mov    0xc(%eax),%eax
80101b86:	83 e0 01             	and    $0x1,%eax
80101b89:	85 c0                	test   %eax,%eax
80101b8b:	74 0d                	je     80101b9a <iput+0x60>
      panic("iput busy");
80101b8d:	83 ec 0c             	sub    $0xc,%esp
80101b90:	68 92 8b 10 80       	push   $0x80108b92
80101b95:	e8 cc e9 ff ff       	call   80100566 <panic>
    ip->flags |= I_BUSY;
80101b9a:	8b 45 08             	mov    0x8(%ebp),%eax
80101b9d:	8b 40 0c             	mov    0xc(%eax),%eax
80101ba0:	83 c8 01             	or     $0x1,%eax
80101ba3:	89 c2                	mov    %eax,%edx
80101ba5:	8b 45 08             	mov    0x8(%ebp),%eax
80101ba8:	89 50 0c             	mov    %edx,0xc(%eax)
    release(&icache.lock);
80101bab:	83 ec 0c             	sub    $0xc,%esp
80101bae:	68 60 22 11 80       	push   $0x80112260
80101bb3:	e8 45 38 00 00       	call   801053fd <release>
80101bb8:	83 c4 10             	add    $0x10,%esp
    itrunc(ip);
80101bbb:	83 ec 0c             	sub    $0xc,%esp
80101bbe:	ff 75 08             	pushl  0x8(%ebp)
80101bc1:	e8 a8 01 00 00       	call   80101d6e <itrunc>
80101bc6:	83 c4 10             	add    $0x10,%esp
    ip->type = 0;
80101bc9:	8b 45 08             	mov    0x8(%ebp),%eax
80101bcc:	66 c7 40 10 00 00    	movw   $0x0,0x10(%eax)
    iupdate(ip);
80101bd2:	83 ec 0c             	sub    $0xc,%esp
80101bd5:	ff 75 08             	pushl  0x8(%ebp)
80101bd8:	e8 b3 fb ff ff       	call   80101790 <iupdate>
80101bdd:	83 c4 10             	add    $0x10,%esp
    acquire(&icache.lock);
80101be0:	83 ec 0c             	sub    $0xc,%esp
80101be3:	68 60 22 11 80       	push   $0x80112260
80101be8:	e8 a9 37 00 00       	call   80105396 <acquire>
80101bed:	83 c4 10             	add    $0x10,%esp
    ip->flags = 0;
80101bf0:	8b 45 08             	mov    0x8(%ebp),%eax
80101bf3:	c7 40 0c 00 00 00 00 	movl   $0x0,0xc(%eax)
    wakeup(ip);
80101bfa:	83 ec 0c             	sub    $0xc,%esp
80101bfd:	ff 75 08             	pushl  0x8(%ebp)
80101c00:	e8 de 32 00 00       	call   80104ee3 <wakeup>
80101c05:	83 c4 10             	add    $0x10,%esp
  }
  ip->ref--;
80101c08:	8b 45 08             	mov    0x8(%ebp),%eax
80101c0b:	8b 40 08             	mov    0x8(%eax),%eax
80101c0e:	8d 50 ff             	lea    -0x1(%eax),%edx
80101c11:	8b 45 08             	mov    0x8(%ebp),%eax
80101c14:	89 50 08             	mov    %edx,0x8(%eax)
  release(&icache.lock);
80101c17:	83 ec 0c             	sub    $0xc,%esp
80101c1a:	68 60 22 11 80       	push   $0x80112260
80101c1f:	e8 d9 37 00 00       	call   801053fd <release>
80101c24:	83 c4 10             	add    $0x10,%esp
}
80101c27:	90                   	nop
80101c28:	c9                   	leave  
80101c29:	c3                   	ret    

80101c2a <iunlockput>:

// Common idiom: unlock, then put.
void
iunlockput(struct inode *ip)
{
80101c2a:	55                   	push   %ebp
80101c2b:	89 e5                	mov    %esp,%ebp
80101c2d:	83 ec 08             	sub    $0x8,%esp
  iunlock(ip);
80101c30:	83 ec 0c             	sub    $0xc,%esp
80101c33:	ff 75 08             	pushl  0x8(%ebp)
80101c36:	e8 8d fe ff ff       	call   80101ac8 <iunlock>
80101c3b:	83 c4 10             	add    $0x10,%esp
  iput(ip);
80101c3e:	83 ec 0c             	sub    $0xc,%esp
80101c41:	ff 75 08             	pushl  0x8(%ebp)
80101c44:	e8 f1 fe ff ff       	call   80101b3a <iput>
80101c49:	83 c4 10             	add    $0x10,%esp
}
80101c4c:	90                   	nop
80101c4d:	c9                   	leave  
80101c4e:	c3                   	ret    

80101c4f <bmap>:

// Return the disk block address of the nth block in inode ip.
// If there is no such block, bmap allocates one.
static uint
bmap(struct inode *ip, uint bn)
{
80101c4f:	55                   	push   %ebp
80101c50:	89 e5                	mov    %esp,%ebp
80101c52:	53                   	push   %ebx
80101c53:	83 ec 14             	sub    $0x14,%esp
  uint addr, *a;
  struct buf *bp;

  if(bn < NDIRECT){
80101c56:	83 7d 0c 0b          	cmpl   $0xb,0xc(%ebp)
80101c5a:	77 42                	ja     80101c9e <bmap+0x4f>
    if((addr = ip->addrs[bn]) == 0)
80101c5c:	8b 45 08             	mov    0x8(%ebp),%eax
80101c5f:	8b 55 0c             	mov    0xc(%ebp),%edx
80101c62:	83 c2 04             	add    $0x4,%edx
80101c65:	8b 44 90 0c          	mov    0xc(%eax,%edx,4),%eax
80101c69:	89 45 f4             	mov    %eax,-0xc(%ebp)
80101c6c:	83 7d f4 00          	cmpl   $0x0,-0xc(%ebp)
80101c70:	75 24                	jne    80101c96 <bmap+0x47>
      ip->addrs[bn] = addr = balloc(ip->dev);
80101c72:	8b 45 08             	mov    0x8(%ebp),%eax
80101c75:	8b 00                	mov    (%eax),%eax
80101c77:	83 ec 0c             	sub    $0xc,%esp
80101c7a:	50                   	push   %eax
80101c7b:	e8 9a f7 ff ff       	call   8010141a <balloc>
80101c80:	83 c4 10             	add    $0x10,%esp
80101c83:	89 45 f4             	mov    %eax,-0xc(%ebp)
80101c86:	8b 45 08             	mov    0x8(%ebp),%eax
80101c89:	8b 55 0c             	mov    0xc(%ebp),%edx
80101c8c:	8d 4a 04             	lea    0x4(%edx),%ecx
80101c8f:	8b 55 f4             	mov    -0xc(%ebp),%edx
80101c92:	89 54 88 0c          	mov    %edx,0xc(%eax,%ecx,4)
    return addr;
80101c96:	8b 45 f4             	mov    -0xc(%ebp),%eax
80101c99:	e9 cb 00 00 00       	jmp    80101d69 <bmap+0x11a>
  }
  bn -= NDIRECT;
80101c9e:	83 6d 0c 0c          	subl   $0xc,0xc(%ebp)

  if(bn < NINDIRECT){
80101ca2:	83 7d 0c 7f          	cmpl   $0x7f,0xc(%ebp)
80101ca6:	0f 87 b0 00 00 00    	ja     80101d5c <bmap+0x10d>
    // Load indirect block, allocating if necessary.
    if((addr = ip->addrs[NDIRECT]) == 0)
80101cac:	8b 45 08             	mov    0x8(%ebp),%eax
80101caf:	8b 40 4c             	mov    0x4c(%eax),%eax
80101cb2:	89 45 f4             	mov    %eax,-0xc(%ebp)
80101cb5:	83 7d f4 00          	cmpl   $0x0,-0xc(%ebp)
80101cb9:	75 1d                	jne    80101cd8 <bmap+0x89>
      ip->addrs[NDIRECT] = addr = balloc(ip->dev);
80101cbb:	8b 45 08             	mov    0x8(%ebp),%eax
80101cbe:	8b 00                	mov    (%eax),%eax
80101cc0:	83 ec 0c             	sub    $0xc,%esp
80101cc3:	50                   	push   %eax
80101cc4:	e8 51 f7 ff ff       	call   8010141a <balloc>
80101cc9:	83 c4 10             	add    $0x10,%esp
80101ccc:	89 45 f4             	mov    %eax,-0xc(%ebp)
80101ccf:	8b 45 08             	mov    0x8(%ebp),%eax
80101cd2:	8b 55 f4             	mov    -0xc(%ebp),%edx
80101cd5:	89 50 4c             	mov    %edx,0x4c(%eax)
    bp = bread(ip->dev, addr);
80101cd8:	8b 45 08             	mov    0x8(%ebp),%eax
80101cdb:	8b 00                	mov    (%eax),%eax
80101cdd:	83 ec 08             	sub    $0x8,%esp
80101ce0:	ff 75 f4             	pushl  -0xc(%ebp)
80101ce3:	50                   	push   %eax
80101ce4:	e8 cd e4 ff ff       	call   801001b6 <bread>
80101ce9:	83 c4 10             	add    $0x10,%esp
80101cec:	89 45 f0             	mov    %eax,-0x10(%ebp)
    a = (uint*)bp->data;
80101cef:	8b 45 f0             	mov    -0x10(%ebp),%eax
80101cf2:	83 c0 18             	add    $0x18,%eax
80101cf5:	89 45 ec             	mov    %eax,-0x14(%ebp)
    if((addr = a[bn]) == 0){
80101cf8:	8b 45 0c             	mov    0xc(%ebp),%eax
80101cfb:	8d 14 85 00 00 00 00 	lea    0x0(,%eax,4),%edx
80101d02:	8b 45 ec             	mov    -0x14(%ebp),%eax
80101d05:	01 d0                	add    %edx,%eax
80101d07:	8b 00                	mov    (%eax),%eax
80101d09:	89 45 f4             	mov    %eax,-0xc(%ebp)
80101d0c:	83 7d f4 00          	cmpl   $0x0,-0xc(%ebp)
80101d10:	75 37                	jne    80101d49 <bmap+0xfa>
      a[bn] = addr = balloc(ip->dev);
80101d12:	8b 45 0c             	mov    0xc(%ebp),%eax
80101d15:	8d 14 85 00 00 00 00 	lea    0x0(,%eax,4),%edx
80101d1c:	8b 45 ec             	mov    -0x14(%ebp),%eax
80101d1f:	8d 1c 02             	lea    (%edx,%eax,1),%ebx
80101d22:	8b 45 08             	mov    0x8(%ebp),%eax
80101d25:	8b 00                	mov    (%eax),%eax
80101d27:	83 ec 0c             	sub    $0xc,%esp
80101d2a:	50                   	push   %eax
80101d2b:	e8 ea f6 ff ff       	call   8010141a <balloc>
80101d30:	83 c4 10             	add    $0x10,%esp
80101d33:	89 45 f4             	mov    %eax,-0xc(%ebp)
80101d36:	8b 45 f4             	mov    -0xc(%ebp),%eax
80101d39:	89 03                	mov    %eax,(%ebx)
      log_write(bp);
80101d3b:	83 ec 0c             	sub    $0xc,%esp
80101d3e:	ff 75 f0             	pushl  -0x10(%ebp)
80101d41:	e8 3f 1a 00 00       	call   80103785 <log_write>
80101d46:	83 c4 10             	add    $0x10,%esp
    }
    brelse(bp);
80101d49:	83 ec 0c             	sub    $0xc,%esp
80101d4c:	ff 75 f0             	pushl  -0x10(%ebp)
80101d4f:	e8 da e4 ff ff       	call   8010022e <brelse>
80101d54:	83 c4 10             	add    $0x10,%esp
    return addr;
80101d57:	8b 45 f4             	mov    -0xc(%ebp),%eax
80101d5a:	eb 0d                	jmp    80101d69 <bmap+0x11a>
  }

  panic("bmap: out of range");
80101d5c:	83 ec 0c             	sub    $0xc,%esp
80101d5f:	68 9c 8b 10 80       	push   $0x80108b9c
80101d64:	e8 fd e7 ff ff       	call   80100566 <panic>
}
80101d69:	8b 5d fc             	mov    -0x4(%ebp),%ebx
80101d6c:	c9                   	leave  
80101d6d:	c3                   	ret    

80101d6e <itrunc>:
// to it (no directory entries referring to it)
// and has no in-memory reference to it (is
// not an open file or current directory).
static void
itrunc(struct inode *ip)
{
80101d6e:	55                   	push   %ebp
80101d6f:	89 e5                	mov    %esp,%ebp
80101d71:	83 ec 18             	sub    $0x18,%esp
  int i, j;
  struct buf *bp;
  uint *a;

  for(i = 0; i < NDIRECT; i++){
80101d74:	c7 45 f4 00 00 00 00 	movl   $0x0,-0xc(%ebp)
80101d7b:	eb 45                	jmp    80101dc2 <itrunc+0x54>
    if(ip->addrs[i]){
80101d7d:	8b 45 08             	mov    0x8(%ebp),%eax
80101d80:	8b 55 f4             	mov    -0xc(%ebp),%edx
80101d83:	83 c2 04             	add    $0x4,%edx
80101d86:	8b 44 90 0c          	mov    0xc(%eax,%edx,4),%eax
80101d8a:	85 c0                	test   %eax,%eax
80101d8c:	74 30                	je     80101dbe <itrunc+0x50>
      bfree(ip->dev, ip->addrs[i]);
80101d8e:	8b 45 08             	mov    0x8(%ebp),%eax
80101d91:	8b 55 f4             	mov    -0xc(%ebp),%edx
80101d94:	83 c2 04             	add    $0x4,%edx
80101d97:	8b 44 90 0c          	mov    0xc(%eax,%edx,4),%eax
80101d9b:	8b 55 08             	mov    0x8(%ebp),%edx
80101d9e:	8b 12                	mov    (%edx),%edx
80101da0:	83 ec 08             	sub    $0x8,%esp
80101da3:	50                   	push   %eax
80101da4:	52                   	push   %edx
80101da5:	e8 bc f7 ff ff       	call   80101566 <bfree>
80101daa:	83 c4 10             	add    $0x10,%esp
      ip->addrs[i] = 0;
80101dad:	8b 45 08             	mov    0x8(%ebp),%eax
80101db0:	8b 55 f4             	mov    -0xc(%ebp),%edx
80101db3:	83 c2 04             	add    $0x4,%edx
80101db6:	c7 44 90 0c 00 00 00 	movl   $0x0,0xc(%eax,%edx,4)
80101dbd:	00 
{
  int i, j;
  struct buf *bp;
  uint *a;

  for(i = 0; i < NDIRECT; i++){
80101dbe:	83 45 f4 01          	addl   $0x1,-0xc(%ebp)
80101dc2:	83 7d f4 0b          	cmpl   $0xb,-0xc(%ebp)
80101dc6:	7e b5                	jle    80101d7d <itrunc+0xf>
      bfree(ip->dev, ip->addrs[i]);
      ip->addrs[i] = 0;
    }
  }
  
  if(ip->addrs[NDIRECT]){
80101dc8:	8b 45 08             	mov    0x8(%ebp),%eax
80101dcb:	8b 40 4c             	mov    0x4c(%eax),%eax
80101dce:	85 c0                	test   %eax,%eax
80101dd0:	0f 84 a1 00 00 00    	je     80101e77 <itrunc+0x109>
    bp = bread(ip->dev, ip->addrs[NDIRECT]);
80101dd6:	8b 45 08             	mov    0x8(%ebp),%eax
80101dd9:	8b 50 4c             	mov    0x4c(%eax),%edx
80101ddc:	8b 45 08             	mov    0x8(%ebp),%eax
80101ddf:	8b 00                	mov    (%eax),%eax
80101de1:	83 ec 08             	sub    $0x8,%esp
80101de4:	52                   	push   %edx
80101de5:	50                   	push   %eax
80101de6:	e8 cb e3 ff ff       	call   801001b6 <bread>
80101deb:	83 c4 10             	add    $0x10,%esp
80101dee:	89 45 ec             	mov    %eax,-0x14(%ebp)
    a = (uint*)bp->data;
80101df1:	8b 45 ec             	mov    -0x14(%ebp),%eax
80101df4:	83 c0 18             	add    $0x18,%eax
80101df7:	89 45 e8             	mov    %eax,-0x18(%ebp)
    for(j = 0; j < NINDIRECT; j++){
80101dfa:	c7 45 f0 00 00 00 00 	movl   $0x0,-0x10(%ebp)
80101e01:	eb 3c                	jmp    80101e3f <itrunc+0xd1>
      if(a[j])
80101e03:	8b 45 f0             	mov    -0x10(%ebp),%eax
80101e06:	8d 14 85 00 00 00 00 	lea    0x0(,%eax,4),%edx
80101e0d:	8b 45 e8             	mov    -0x18(%ebp),%eax
80101e10:	01 d0                	add    %edx,%eax
80101e12:	8b 00                	mov    (%eax),%eax
80101e14:	85 c0                	test   %eax,%eax
80101e16:	74 23                	je     80101e3b <itrunc+0xcd>
        bfree(ip->dev, a[j]);
80101e18:	8b 45 f0             	mov    -0x10(%ebp),%eax
80101e1b:	8d 14 85 00 00 00 00 	lea    0x0(,%eax,4),%edx
80101e22:	8b 45 e8             	mov    -0x18(%ebp),%eax
80101e25:	01 d0                	add    %edx,%eax
80101e27:	8b 00                	mov    (%eax),%eax
80101e29:	8b 55 08             	mov    0x8(%ebp),%edx
80101e2c:	8b 12                	mov    (%edx),%edx
80101e2e:	83 ec 08             	sub    $0x8,%esp
80101e31:	50                   	push   %eax
80101e32:	52                   	push   %edx
80101e33:	e8 2e f7 ff ff       	call   80101566 <bfree>
80101e38:	83 c4 10             	add    $0x10,%esp
  }
  
  if(ip->addrs[NDIRECT]){
    bp = bread(ip->dev, ip->addrs[NDIRECT]);
    a = (uint*)bp->data;
    for(j = 0; j < NINDIRECT; j++){
80101e3b:	83 45 f0 01          	addl   $0x1,-0x10(%ebp)
80101e3f:	8b 45 f0             	mov    -0x10(%ebp),%eax
80101e42:	83 f8 7f             	cmp    $0x7f,%eax
80101e45:	76 bc                	jbe    80101e03 <itrunc+0x95>
      if(a[j])
        bfree(ip->dev, a[j]);
    }
    brelse(bp);
80101e47:	83 ec 0c             	sub    $0xc,%esp
80101e4a:	ff 75 ec             	pushl  -0x14(%ebp)
80101e4d:	e8 dc e3 ff ff       	call   8010022e <brelse>
80101e52:	83 c4 10             	add    $0x10,%esp
    bfree(ip->dev, ip->addrs[NDIRECT]);
80101e55:	8b 45 08             	mov    0x8(%ebp),%eax
80101e58:	8b 40 4c             	mov    0x4c(%eax),%eax
80101e5b:	8b 55 08             	mov    0x8(%ebp),%edx
80101e5e:	8b 12                	mov    (%edx),%edx
80101e60:	83 ec 08             	sub    $0x8,%esp
80101e63:	50                   	push   %eax
80101e64:	52                   	push   %edx
80101e65:	e8 fc f6 ff ff       	call   80101566 <bfree>
80101e6a:	83 c4 10             	add    $0x10,%esp
    ip->addrs[NDIRECT] = 0;
80101e6d:	8b 45 08             	mov    0x8(%ebp),%eax
80101e70:	c7 40 4c 00 00 00 00 	movl   $0x0,0x4c(%eax)
  }

  ip->size = 0;
80101e77:	8b 45 08             	mov    0x8(%ebp),%eax
80101e7a:	c7 40 18 00 00 00 00 	movl   $0x0,0x18(%eax)
  iupdate(ip);
80101e81:	83 ec 0c             	sub    $0xc,%esp
80101e84:	ff 75 08             	pushl  0x8(%ebp)
80101e87:	e8 04 f9 ff ff       	call   80101790 <iupdate>
80101e8c:	83 c4 10             	add    $0x10,%esp
}
80101e8f:	90                   	nop
80101e90:	c9                   	leave  
80101e91:	c3                   	ret    

80101e92 <stati>:

// Copy stat information from inode.
void
stati(struct inode *ip, struct stat *st)
{
80101e92:	55                   	push   %ebp
80101e93:	89 e5                	mov    %esp,%ebp
  st->dev = ip->dev;
80101e95:	8b 45 08             	mov    0x8(%ebp),%eax
80101e98:	8b 00                	mov    (%eax),%eax
80101e9a:	89 c2                	mov    %eax,%edx
80101e9c:	8b 45 0c             	mov    0xc(%ebp),%eax
80101e9f:	89 50 04             	mov    %edx,0x4(%eax)
  st->ino = ip->inum;
80101ea2:	8b 45 08             	mov    0x8(%ebp),%eax
80101ea5:	8b 50 04             	mov    0x4(%eax),%edx
80101ea8:	8b 45 0c             	mov    0xc(%ebp),%eax
80101eab:	89 50 08             	mov    %edx,0x8(%eax)
  st->type = ip->type;
80101eae:	8b 45 08             	mov    0x8(%ebp),%eax
80101eb1:	0f b7 50 10          	movzwl 0x10(%eax),%edx
80101eb5:	8b 45 0c             	mov    0xc(%ebp),%eax
80101eb8:	66 89 10             	mov    %dx,(%eax)
  st->nlink = ip->nlink;
80101ebb:	8b 45 08             	mov    0x8(%ebp),%eax
80101ebe:	0f b7 50 16          	movzwl 0x16(%eax),%edx
80101ec2:	8b 45 0c             	mov    0xc(%ebp),%eax
80101ec5:	66 89 50 0c          	mov    %dx,0xc(%eax)
  st->size = ip->size;
80101ec9:	8b 45 08             	mov    0x8(%ebp),%eax
80101ecc:	8b 50 18             	mov    0x18(%eax),%edx
80101ecf:	8b 45 0c             	mov    0xc(%ebp),%eax
80101ed2:	89 50 10             	mov    %edx,0x10(%eax)
}
80101ed5:	90                   	nop
80101ed6:	5d                   	pop    %ebp
80101ed7:	c3                   	ret    

80101ed8 <readi>:

//PAGEBREAK!
// Read data from inode.
int
readi(struct inode *ip, char *dst, uint off, uint n)
{
80101ed8:	55                   	push   %ebp
80101ed9:	89 e5                	mov    %esp,%ebp
80101edb:	83 ec 18             	sub    $0x18,%esp
  uint tot, m;
  struct buf *bp;

  if(ip->type == T_DEV){
80101ede:	8b 45 08             	mov    0x8(%ebp),%eax
80101ee1:	0f b7 40 10          	movzwl 0x10(%eax),%eax
80101ee5:	66 83 f8 03          	cmp    $0x3,%ax
80101ee9:	75 5c                	jne    80101f47 <readi+0x6f>
    if(ip->major < 0 || ip->major >= NDEV || !devsw[ip->major].read)
80101eeb:	8b 45 08             	mov    0x8(%ebp),%eax
80101eee:	0f b7 40 12          	movzwl 0x12(%eax),%eax
80101ef2:	66 85 c0             	test   %ax,%ax
80101ef5:	78 20                	js     80101f17 <readi+0x3f>
80101ef7:	8b 45 08             	mov    0x8(%ebp),%eax
80101efa:	0f b7 40 12          	movzwl 0x12(%eax),%eax
80101efe:	66 83 f8 09          	cmp    $0x9,%ax
80101f02:	7f 13                	jg     80101f17 <readi+0x3f>
80101f04:	8b 45 08             	mov    0x8(%ebp),%eax
80101f07:	0f b7 40 12          	movzwl 0x12(%eax),%eax
80101f0b:	98                   	cwtl   
80101f0c:	8b 04 c5 e0 21 11 80 	mov    -0x7feede20(,%eax,8),%eax
80101f13:	85 c0                	test   %eax,%eax
80101f15:	75 0a                	jne    80101f21 <readi+0x49>
      return -1;
80101f17:	b8 ff ff ff ff       	mov    $0xffffffff,%eax
80101f1c:	e9 0c 01 00 00       	jmp    8010202d <readi+0x155>
    return devsw[ip->major].read(ip, dst, n);
80101f21:	8b 45 08             	mov    0x8(%ebp),%eax
80101f24:	0f b7 40 12          	movzwl 0x12(%eax),%eax
80101f28:	98                   	cwtl   
80101f29:	8b 04 c5 e0 21 11 80 	mov    -0x7feede20(,%eax,8),%eax
80101f30:	8b 55 14             	mov    0x14(%ebp),%edx
80101f33:	83 ec 04             	sub    $0x4,%esp
80101f36:	52                   	push   %edx
80101f37:	ff 75 0c             	pushl  0xc(%ebp)
80101f3a:	ff 75 08             	pushl  0x8(%ebp)
80101f3d:	ff d0                	call   *%eax
80101f3f:	83 c4 10             	add    $0x10,%esp
80101f42:	e9 e6 00 00 00       	jmp    8010202d <readi+0x155>
  }

  if(off > ip->size || off + n < off)
80101f47:	8b 45 08             	mov    0x8(%ebp),%eax
80101f4a:	8b 40 18             	mov    0x18(%eax),%eax
80101f4d:	3b 45 10             	cmp    0x10(%ebp),%eax
80101f50:	72 0d                	jb     80101f5f <readi+0x87>
80101f52:	8b 55 10             	mov    0x10(%ebp),%edx
80101f55:	8b 45 14             	mov    0x14(%ebp),%eax
80101f58:	01 d0                	add    %edx,%eax
80101f5a:	3b 45 10             	cmp    0x10(%ebp),%eax
80101f5d:	73 0a                	jae    80101f69 <readi+0x91>
    return -1;
80101f5f:	b8 ff ff ff ff       	mov    $0xffffffff,%eax
80101f64:	e9 c4 00 00 00       	jmp    8010202d <readi+0x155>
  if(off + n > ip->size)
80101f69:	8b 55 10             	mov    0x10(%ebp),%edx
80101f6c:	8b 45 14             	mov    0x14(%ebp),%eax
80101f6f:	01 c2                	add    %eax,%edx
80101f71:	8b 45 08             	mov    0x8(%ebp),%eax
80101f74:	8b 40 18             	mov    0x18(%eax),%eax
80101f77:	39 c2                	cmp    %eax,%edx
80101f79:	76 0c                	jbe    80101f87 <readi+0xaf>
    n = ip->size - off;
80101f7b:	8b 45 08             	mov    0x8(%ebp),%eax
80101f7e:	8b 40 18             	mov    0x18(%eax),%eax
80101f81:	2b 45 10             	sub    0x10(%ebp),%eax
80101f84:	89 45 14             	mov    %eax,0x14(%ebp)

  for(tot=0; tot<n; tot+=m, off+=m, dst+=m){
80101f87:	c7 45 f4 00 00 00 00 	movl   $0x0,-0xc(%ebp)
80101f8e:	e9 8b 00 00 00       	jmp    8010201e <readi+0x146>
    bp = bread(ip->dev, bmap(ip, off/BSIZE));
80101f93:	8b 45 10             	mov    0x10(%ebp),%eax
80101f96:	c1 e8 09             	shr    $0x9,%eax
80101f99:	83 ec 08             	sub    $0x8,%esp
80101f9c:	50                   	push   %eax
80101f9d:	ff 75 08             	pushl  0x8(%ebp)
80101fa0:	e8 aa fc ff ff       	call   80101c4f <bmap>
80101fa5:	83 c4 10             	add    $0x10,%esp
80101fa8:	89 c2                	mov    %eax,%edx
80101faa:	8b 45 08             	mov    0x8(%ebp),%eax
80101fad:	8b 00                	mov    (%eax),%eax
80101faf:	83 ec 08             	sub    $0x8,%esp
80101fb2:	52                   	push   %edx
80101fb3:	50                   	push   %eax
80101fb4:	e8 fd e1 ff ff       	call   801001b6 <bread>
80101fb9:	83 c4 10             	add    $0x10,%esp
80101fbc:	89 45 f0             	mov    %eax,-0x10(%ebp)
    m = min(n - tot, BSIZE - off%BSIZE);
80101fbf:	8b 45 10             	mov    0x10(%ebp),%eax
80101fc2:	25 ff 01 00 00       	and    $0x1ff,%eax
80101fc7:	ba 00 02 00 00       	mov    $0x200,%edx
80101fcc:	29 c2                	sub    %eax,%edx
80101fce:	8b 45 14             	mov    0x14(%ebp),%eax
80101fd1:	2b 45 f4             	sub    -0xc(%ebp),%eax
80101fd4:	39 c2                	cmp    %eax,%edx
80101fd6:	0f 46 c2             	cmovbe %edx,%eax
80101fd9:	89 45 ec             	mov    %eax,-0x14(%ebp)
    memmove(dst, bp->data + off%BSIZE, m);
80101fdc:	8b 45 f0             	mov    -0x10(%ebp),%eax
80101fdf:	8d 50 18             	lea    0x18(%eax),%edx
80101fe2:	8b 45 10             	mov    0x10(%ebp),%eax
80101fe5:	25 ff 01 00 00       	and    $0x1ff,%eax
80101fea:	01 d0                	add    %edx,%eax
80101fec:	83 ec 04             	sub    $0x4,%esp
80101fef:	ff 75 ec             	pushl  -0x14(%ebp)
80101ff2:	50                   	push   %eax
80101ff3:	ff 75 0c             	pushl  0xc(%ebp)
80101ff6:	e8 bd 36 00 00       	call   801056b8 <memmove>
80101ffb:	83 c4 10             	add    $0x10,%esp
    brelse(bp);
80101ffe:	83 ec 0c             	sub    $0xc,%esp
80102001:	ff 75 f0             	pushl  -0x10(%ebp)
80102004:	e8 25 e2 ff ff       	call   8010022e <brelse>
80102009:	83 c4 10             	add    $0x10,%esp
  if(off > ip->size || off + n < off)
    return -1;
  if(off + n > ip->size)
    n = ip->size - off;

  for(tot=0; tot<n; tot+=m, off+=m, dst+=m){
8010200c:	8b 45 ec             	mov    -0x14(%ebp),%eax
8010200f:	01 45 f4             	add    %eax,-0xc(%ebp)
80102012:	8b 45 ec             	mov    -0x14(%ebp),%eax
80102015:	01 45 10             	add    %eax,0x10(%ebp)
80102018:	8b 45 ec             	mov    -0x14(%ebp),%eax
8010201b:	01 45 0c             	add    %eax,0xc(%ebp)
8010201e:	8b 45 f4             	mov    -0xc(%ebp),%eax
80102021:	3b 45 14             	cmp    0x14(%ebp),%eax
80102024:	0f 82 69 ff ff ff    	jb     80101f93 <readi+0xbb>
    bp = bread(ip->dev, bmap(ip, off/BSIZE));
    m = min(n - tot, BSIZE - off%BSIZE);
    memmove(dst, bp->data + off%BSIZE, m);
    brelse(bp);
  }
  return n;
8010202a:	8b 45 14             	mov    0x14(%ebp),%eax
}
8010202d:	c9                   	leave  
8010202e:	c3                   	ret    

8010202f <writei>:

// PAGEBREAK!
// Write data to inode.
int
writei(struct inode *ip, char *src, uint off, uint n)
{
8010202f:	55                   	push   %ebp
80102030:	89 e5                	mov    %esp,%ebp
80102032:	83 ec 18             	sub    $0x18,%esp
  uint tot, m;
  struct buf *bp;

  if(ip->type == T_DEV){
80102035:	8b 45 08             	mov    0x8(%ebp),%eax
80102038:	0f b7 40 10          	movzwl 0x10(%eax),%eax
8010203c:	66 83 f8 03          	cmp    $0x3,%ax
80102040:	75 5c                	jne    8010209e <writei+0x6f>
    if(ip->major < 0 || ip->major >= NDEV || !devsw[ip->major].write)
80102042:	8b 45 08             	mov    0x8(%ebp),%eax
80102045:	0f b7 40 12          	movzwl 0x12(%eax),%eax
80102049:	66 85 c0             	test   %ax,%ax
8010204c:	78 20                	js     8010206e <writei+0x3f>
8010204e:	8b 45 08             	mov    0x8(%ebp),%eax
80102051:	0f b7 40 12          	movzwl 0x12(%eax),%eax
80102055:	66 83 f8 09          	cmp    $0x9,%ax
80102059:	7f 13                	jg     8010206e <writei+0x3f>
8010205b:	8b 45 08             	mov    0x8(%ebp),%eax
8010205e:	0f b7 40 12          	movzwl 0x12(%eax),%eax
80102062:	98                   	cwtl   
80102063:	8b 04 c5 e4 21 11 80 	mov    -0x7feede1c(,%eax,8),%eax
8010206a:	85 c0                	test   %eax,%eax
8010206c:	75 0a                	jne    80102078 <writei+0x49>
      return -1;
8010206e:	b8 ff ff ff ff       	mov    $0xffffffff,%eax
80102073:	e9 3d 01 00 00       	jmp    801021b5 <writei+0x186>
    return devsw[ip->major].write(ip, src, n);
80102078:	8b 45 08             	mov    0x8(%ebp),%eax
8010207b:	0f b7 40 12          	movzwl 0x12(%eax),%eax
8010207f:	98                   	cwtl   
80102080:	8b 04 c5 e4 21 11 80 	mov    -0x7feede1c(,%eax,8),%eax
80102087:	8b 55 14             	mov    0x14(%ebp),%edx
8010208a:	83 ec 04             	sub    $0x4,%esp
8010208d:	52                   	push   %edx
8010208e:	ff 75 0c             	pushl  0xc(%ebp)
80102091:	ff 75 08             	pushl  0x8(%ebp)
80102094:	ff d0                	call   *%eax
80102096:	83 c4 10             	add    $0x10,%esp
80102099:	e9 17 01 00 00       	jmp    801021b5 <writei+0x186>
  }

  if(off > ip->size || off + n < off)
8010209e:	8b 45 08             	mov    0x8(%ebp),%eax
801020a1:	8b 40 18             	mov    0x18(%eax),%eax
801020a4:	3b 45 10             	cmp    0x10(%ebp),%eax
801020a7:	72 0d                	jb     801020b6 <writei+0x87>
801020a9:	8b 55 10             	mov    0x10(%ebp),%edx
801020ac:	8b 45 14             	mov    0x14(%ebp),%eax
801020af:	01 d0                	add    %edx,%eax
801020b1:	3b 45 10             	cmp    0x10(%ebp),%eax
801020b4:	73 0a                	jae    801020c0 <writei+0x91>
    return -1;
801020b6:	b8 ff ff ff ff       	mov    $0xffffffff,%eax
801020bb:	e9 f5 00 00 00       	jmp    801021b5 <writei+0x186>
  if(off + n > MAXFILE*BSIZE)
801020c0:	8b 55 10             	mov    0x10(%ebp),%edx
801020c3:	8b 45 14             	mov    0x14(%ebp),%eax
801020c6:	01 d0                	add    %edx,%eax
801020c8:	3d 00 18 01 00       	cmp    $0x11800,%eax
801020cd:	76 0a                	jbe    801020d9 <writei+0xaa>
    return -1;
801020cf:	b8 ff ff ff ff       	mov    $0xffffffff,%eax
801020d4:	e9 dc 00 00 00       	jmp    801021b5 <writei+0x186>

  for(tot=0; tot<n; tot+=m, off+=m, src+=m){
801020d9:	c7 45 f4 00 00 00 00 	movl   $0x0,-0xc(%ebp)
801020e0:	e9 99 00 00 00       	jmp    8010217e <writei+0x14f>
    bp = bread(ip->dev, bmap(ip, off/BSIZE));
801020e5:	8b 45 10             	mov    0x10(%ebp),%eax
801020e8:	c1 e8 09             	shr    $0x9,%eax
801020eb:	83 ec 08             	sub    $0x8,%esp
801020ee:	50                   	push   %eax
801020ef:	ff 75 08             	pushl  0x8(%ebp)
801020f2:	e8 58 fb ff ff       	call   80101c4f <bmap>
801020f7:	83 c4 10             	add    $0x10,%esp
801020fa:	89 c2                	mov    %eax,%edx
801020fc:	8b 45 08             	mov    0x8(%ebp),%eax
801020ff:	8b 00                	mov    (%eax),%eax
80102101:	83 ec 08             	sub    $0x8,%esp
80102104:	52                   	push   %edx
80102105:	50                   	push   %eax
80102106:	e8 ab e0 ff ff       	call   801001b6 <bread>
8010210b:	83 c4 10             	add    $0x10,%esp
8010210e:	89 45 f0             	mov    %eax,-0x10(%ebp)
    m = min(n - tot, BSIZE - off%BSIZE);
80102111:	8b 45 10             	mov    0x10(%ebp),%eax
80102114:	25 ff 01 00 00       	and    $0x1ff,%eax
80102119:	ba 00 02 00 00       	mov    $0x200,%edx
8010211e:	29 c2                	sub    %eax,%edx
80102120:	8b 45 14             	mov    0x14(%ebp),%eax
80102123:	2b 45 f4             	sub    -0xc(%ebp),%eax
80102126:	39 c2                	cmp    %eax,%edx
80102128:	0f 46 c2             	cmovbe %edx,%eax
8010212b:	89 45 ec             	mov    %eax,-0x14(%ebp)
    memmove(bp->data + off%BSIZE, src, m);
8010212e:	8b 45 f0             	mov    -0x10(%ebp),%eax
80102131:	8d 50 18             	lea    0x18(%eax),%edx
80102134:	8b 45 10             	mov    0x10(%ebp),%eax
80102137:	25 ff 01 00 00       	and    $0x1ff,%eax
8010213c:	01 d0                	add    %edx,%eax
8010213e:	83 ec 04             	sub    $0x4,%esp
80102141:	ff 75 ec             	pushl  -0x14(%ebp)
80102144:	ff 75 0c             	pushl  0xc(%ebp)
80102147:	50                   	push   %eax
80102148:	e8 6b 35 00 00       	call   801056b8 <memmove>
8010214d:	83 c4 10             	add    $0x10,%esp
    log_write(bp);
80102150:	83 ec 0c             	sub    $0xc,%esp
80102153:	ff 75 f0             	pushl  -0x10(%ebp)
80102156:	e8 2a 16 00 00       	call   80103785 <log_write>
8010215b:	83 c4 10             	add    $0x10,%esp
    brelse(bp);
8010215e:	83 ec 0c             	sub    $0xc,%esp
80102161:	ff 75 f0             	pushl  -0x10(%ebp)
80102164:	e8 c5 e0 ff ff       	call   8010022e <brelse>
80102169:	83 c4 10             	add    $0x10,%esp
  if(off > ip->size || off + n < off)
    return -1;
  if(off + n > MAXFILE*BSIZE)
    return -1;

  for(tot=0; tot<n; tot+=m, off+=m, src+=m){
8010216c:	8b 45 ec             	mov    -0x14(%ebp),%eax
8010216f:	01 45 f4             	add    %eax,-0xc(%ebp)
80102172:	8b 45 ec             	mov    -0x14(%ebp),%eax
80102175:	01 45 10             	add    %eax,0x10(%ebp)
80102178:	8b 45 ec             	mov    -0x14(%ebp),%eax
8010217b:	01 45 0c             	add    %eax,0xc(%ebp)
8010217e:	8b 45 f4             	mov    -0xc(%ebp),%eax
80102181:	3b 45 14             	cmp    0x14(%ebp),%eax
80102184:	0f 82 5b ff ff ff    	jb     801020e5 <writei+0xb6>
    memmove(bp->data + off%BSIZE, src, m);
    log_write(bp);
    brelse(bp);
  }

  if(n > 0 && off > ip->size){
8010218a:	83 7d 14 00          	cmpl   $0x0,0x14(%ebp)
8010218e:	74 22                	je     801021b2 <writei+0x183>
80102190:	8b 45 08             	mov    0x8(%ebp),%eax
80102193:	8b 40 18             	mov    0x18(%eax),%eax
80102196:	3b 45 10             	cmp    0x10(%ebp),%eax
80102199:	73 17                	jae    801021b2 <writei+0x183>
    ip->size = off;
8010219b:	8b 45 08             	mov    0x8(%ebp),%eax
8010219e:	8b 55 10             	mov    0x10(%ebp),%edx
801021a1:	89 50 18             	mov    %edx,0x18(%eax)
    iupdate(ip);
801021a4:	83 ec 0c             	sub    $0xc,%esp
801021a7:	ff 75 08             	pushl  0x8(%ebp)
801021aa:	e8 e1 f5 ff ff       	call   80101790 <iupdate>
801021af:	83 c4 10             	add    $0x10,%esp
  }
  return n;
801021b2:	8b 45 14             	mov    0x14(%ebp),%eax
}
801021b5:	c9                   	leave  
801021b6:	c3                   	ret    

801021b7 <namecmp>:
//PAGEBREAK!
// Directories

int
namecmp(const char *s, const char *t)
{
801021b7:	55                   	push   %ebp
801021b8:	89 e5                	mov    %esp,%ebp
801021ba:	83 ec 08             	sub    $0x8,%esp
  return strncmp(s, t, DIRSIZ);
801021bd:	83 ec 04             	sub    $0x4,%esp
801021c0:	6a 0e                	push   $0xe
801021c2:	ff 75 0c             	pushl  0xc(%ebp)
801021c5:	ff 75 08             	pushl  0x8(%ebp)
801021c8:	e8 81 35 00 00       	call   8010574e <strncmp>
801021cd:	83 c4 10             	add    $0x10,%esp
}
801021d0:	c9                   	leave  
801021d1:	c3                   	ret    

801021d2 <dirlookup>:

// Look for a directory entry in a directory.
// If found, set *poff to byte offset of entry.
struct inode*
dirlookup(struct inode *dp, char *name, uint *poff)
{
801021d2:	55                   	push   %ebp
801021d3:	89 e5                	mov    %esp,%ebp
801021d5:	83 ec 28             	sub    $0x28,%esp
  uint off, inum;
  struct dirent de;

  if(dp->type != T_DIR)
801021d8:	8b 45 08             	mov    0x8(%ebp),%eax
801021db:	0f b7 40 10          	movzwl 0x10(%eax),%eax
801021df:	66 83 f8 01          	cmp    $0x1,%ax
801021e3:	74 0d                	je     801021f2 <dirlookup+0x20>
    panic("dirlookup not DIR");
801021e5:	83 ec 0c             	sub    $0xc,%esp
801021e8:	68 af 8b 10 80       	push   $0x80108baf
801021ed:	e8 74 e3 ff ff       	call   80100566 <panic>

  for(off = 0; off < dp->size; off += sizeof(de)){
801021f2:	c7 45 f4 00 00 00 00 	movl   $0x0,-0xc(%ebp)
801021f9:	eb 7b                	jmp    80102276 <dirlookup+0xa4>
    if(readi(dp, (char*)&de, off, sizeof(de)) != sizeof(de))
801021fb:	6a 10                	push   $0x10
801021fd:	ff 75 f4             	pushl  -0xc(%ebp)
80102200:	8d 45 e0             	lea    -0x20(%ebp),%eax
80102203:	50                   	push   %eax
80102204:	ff 75 08             	pushl  0x8(%ebp)
80102207:	e8 cc fc ff ff       	call   80101ed8 <readi>
8010220c:	83 c4 10             	add    $0x10,%esp
8010220f:	83 f8 10             	cmp    $0x10,%eax
80102212:	74 0d                	je     80102221 <dirlookup+0x4f>
      panic("dirlink read");
80102214:	83 ec 0c             	sub    $0xc,%esp
80102217:	68 c1 8b 10 80       	push   $0x80108bc1
8010221c:	e8 45 e3 ff ff       	call   80100566 <panic>
    if(de.inum == 0)
80102221:	0f b7 45 e0          	movzwl -0x20(%ebp),%eax
80102225:	66 85 c0             	test   %ax,%ax
80102228:	74 47                	je     80102271 <dirlookup+0x9f>
      continue;
    if(namecmp(name, de.name) == 0){
8010222a:	83 ec 08             	sub    $0x8,%esp
8010222d:	8d 45 e0             	lea    -0x20(%ebp),%eax
80102230:	83 c0 02             	add    $0x2,%eax
80102233:	50                   	push   %eax
80102234:	ff 75 0c             	pushl  0xc(%ebp)
80102237:	e8 7b ff ff ff       	call   801021b7 <namecmp>
8010223c:	83 c4 10             	add    $0x10,%esp
8010223f:	85 c0                	test   %eax,%eax
80102241:	75 2f                	jne    80102272 <dirlookup+0xa0>
      // entry matches path element
      if(poff)
80102243:	83 7d 10 00          	cmpl   $0x0,0x10(%ebp)
80102247:	74 08                	je     80102251 <dirlookup+0x7f>
        *poff = off;
80102249:	8b 45 10             	mov    0x10(%ebp),%eax
8010224c:	8b 55 f4             	mov    -0xc(%ebp),%edx
8010224f:	89 10                	mov    %edx,(%eax)
      inum = de.inum;
80102251:	0f b7 45 e0          	movzwl -0x20(%ebp),%eax
80102255:	0f b7 c0             	movzwl %ax,%eax
80102258:	89 45 f0             	mov    %eax,-0x10(%ebp)
      return iget(dp->dev, inum);
8010225b:	8b 45 08             	mov    0x8(%ebp),%eax
8010225e:	8b 00                	mov    (%eax),%eax
80102260:	83 ec 08             	sub    $0x8,%esp
80102263:	ff 75 f0             	pushl  -0x10(%ebp)
80102266:	50                   	push   %eax
80102267:	e8 e5 f5 ff ff       	call   80101851 <iget>
8010226c:	83 c4 10             	add    $0x10,%esp
8010226f:	eb 19                	jmp    8010228a <dirlookup+0xb8>

  for(off = 0; off < dp->size; off += sizeof(de)){
    if(readi(dp, (char*)&de, off, sizeof(de)) != sizeof(de))
      panic("dirlink read");
    if(de.inum == 0)
      continue;
80102271:	90                   	nop
  struct dirent de;

  if(dp->type != T_DIR)
    panic("dirlookup not DIR");

  for(off = 0; off < dp->size; off += sizeof(de)){
80102272:	83 45 f4 10          	addl   $0x10,-0xc(%ebp)
80102276:	8b 45 08             	mov    0x8(%ebp),%eax
80102279:	8b 40 18             	mov    0x18(%eax),%eax
8010227c:	3b 45 f4             	cmp    -0xc(%ebp),%eax
8010227f:	0f 87 76 ff ff ff    	ja     801021fb <dirlookup+0x29>
      inum = de.inum;
      return iget(dp->dev, inum);
    }
  }

  return 0;
80102285:	b8 00 00 00 00       	mov    $0x0,%eax
}
8010228a:	c9                   	leave  
8010228b:	c3                   	ret    

8010228c <dirlink>:

// Write a new directory entry (name, inum) into the directory dp.
int
dirlink(struct inode *dp, char *name, uint inum)
{
8010228c:	55                   	push   %ebp
8010228d:	89 e5                	mov    %esp,%ebp
8010228f:	83 ec 28             	sub    $0x28,%esp
  int off;
  struct dirent de;
  struct inode *ip;

  // Check that name is not present.
  if((ip = dirlookup(dp, name, 0)) != 0){
80102292:	83 ec 04             	sub    $0x4,%esp
80102295:	6a 00                	push   $0x0
80102297:	ff 75 0c             	pushl  0xc(%ebp)
8010229a:	ff 75 08             	pushl  0x8(%ebp)
8010229d:	e8 30 ff ff ff       	call   801021d2 <dirlookup>
801022a2:	83 c4 10             	add    $0x10,%esp
801022a5:	89 45 f0             	mov    %eax,-0x10(%ebp)
801022a8:	83 7d f0 00          	cmpl   $0x0,-0x10(%ebp)
801022ac:	74 18                	je     801022c6 <dirlink+0x3a>
    iput(ip);
801022ae:	83 ec 0c             	sub    $0xc,%esp
801022b1:	ff 75 f0             	pushl  -0x10(%ebp)
801022b4:	e8 81 f8 ff ff       	call   80101b3a <iput>
801022b9:	83 c4 10             	add    $0x10,%esp
    return -1;
801022bc:	b8 ff ff ff ff       	mov    $0xffffffff,%eax
801022c1:	e9 9c 00 00 00       	jmp    80102362 <dirlink+0xd6>
  }

  // Look for an empty dirent.
  for(off = 0; off < dp->size; off += sizeof(de)){
801022c6:	c7 45 f4 00 00 00 00 	movl   $0x0,-0xc(%ebp)
801022cd:	eb 39                	jmp    80102308 <dirlink+0x7c>
    if(readi(dp, (char*)&de, off, sizeof(de)) != sizeof(de))
801022cf:	8b 45 f4             	mov    -0xc(%ebp),%eax
801022d2:	6a 10                	push   $0x10
801022d4:	50                   	push   %eax
801022d5:	8d 45 e0             	lea    -0x20(%ebp),%eax
801022d8:	50                   	push   %eax
801022d9:	ff 75 08             	pushl  0x8(%ebp)
801022dc:	e8 f7 fb ff ff       	call   80101ed8 <readi>
801022e1:	83 c4 10             	add    $0x10,%esp
801022e4:	83 f8 10             	cmp    $0x10,%eax
801022e7:	74 0d                	je     801022f6 <dirlink+0x6a>
      panic("dirlink read");
801022e9:	83 ec 0c             	sub    $0xc,%esp
801022ec:	68 c1 8b 10 80       	push   $0x80108bc1
801022f1:	e8 70 e2 ff ff       	call   80100566 <panic>
    if(de.inum == 0)
801022f6:	0f b7 45 e0          	movzwl -0x20(%ebp),%eax
801022fa:	66 85 c0             	test   %ax,%ax
801022fd:	74 18                	je     80102317 <dirlink+0x8b>
    iput(ip);
    return -1;
  }

  // Look for an empty dirent.
  for(off = 0; off < dp->size; off += sizeof(de)){
801022ff:	8b 45 f4             	mov    -0xc(%ebp),%eax
80102302:	83 c0 10             	add    $0x10,%eax
80102305:	89 45 f4             	mov    %eax,-0xc(%ebp)
80102308:	8b 45 08             	mov    0x8(%ebp),%eax
8010230b:	8b 50 18             	mov    0x18(%eax),%edx
8010230e:	8b 45 f4             	mov    -0xc(%ebp),%eax
80102311:	39 c2                	cmp    %eax,%edx
80102313:	77 ba                	ja     801022cf <dirlink+0x43>
80102315:	eb 01                	jmp    80102318 <dirlink+0x8c>
    if(readi(dp, (char*)&de, off, sizeof(de)) != sizeof(de))
      panic("dirlink read");
    if(de.inum == 0)
      break;
80102317:	90                   	nop
  }

  strncpy(de.name, name, DIRSIZ);
80102318:	83 ec 04             	sub    $0x4,%esp
8010231b:	6a 0e                	push   $0xe
8010231d:	ff 75 0c             	pushl  0xc(%ebp)
80102320:	8d 45 e0             	lea    -0x20(%ebp),%eax
80102323:	83 c0 02             	add    $0x2,%eax
80102326:	50                   	push   %eax
80102327:	e8 78 34 00 00       	call   801057a4 <strncpy>
8010232c:	83 c4 10             	add    $0x10,%esp
  de.inum = inum;
8010232f:	8b 45 10             	mov    0x10(%ebp),%eax
80102332:	66 89 45 e0          	mov    %ax,-0x20(%ebp)
  if(writei(dp, (char*)&de, off, sizeof(de)) != sizeof(de))
80102336:	8b 45 f4             	mov    -0xc(%ebp),%eax
80102339:	6a 10                	push   $0x10
8010233b:	50                   	push   %eax
8010233c:	8d 45 e0             	lea    -0x20(%ebp),%eax
8010233f:	50                   	push   %eax
80102340:	ff 75 08             	pushl  0x8(%ebp)
80102343:	e8 e7 fc ff ff       	call   8010202f <writei>
80102348:	83 c4 10             	add    $0x10,%esp
8010234b:	83 f8 10             	cmp    $0x10,%eax
8010234e:	74 0d                	je     8010235d <dirlink+0xd1>
    panic("dirlink");
80102350:	83 ec 0c             	sub    $0xc,%esp
80102353:	68 ce 8b 10 80       	push   $0x80108bce
80102358:	e8 09 e2 ff ff       	call   80100566 <panic>
  
  return 0;
8010235d:	b8 00 00 00 00       	mov    $0x0,%eax
}
80102362:	c9                   	leave  
80102363:	c3                   	ret    

80102364 <skipelem>:
//   skipelem("a", name) = "", setting name = "a"
//   skipelem("", name) = skipelem("////", name) = 0
//
static char*
skipelem(char *path, char *name)
{
80102364:	55                   	push   %ebp
80102365:	89 e5                	mov    %esp,%ebp
80102367:	83 ec 18             	sub    $0x18,%esp
  char *s;
  int len;

  while(*path == '/')
8010236a:	eb 04                	jmp    80102370 <skipelem+0xc>
    path++;
8010236c:	83 45 08 01          	addl   $0x1,0x8(%ebp)
skipelem(char *path, char *name)
{
  char *s;
  int len;

  while(*path == '/')
80102370:	8b 45 08             	mov    0x8(%ebp),%eax
80102373:	0f b6 00             	movzbl (%eax),%eax
80102376:	3c 2f                	cmp    $0x2f,%al
80102378:	74 f2                	je     8010236c <skipelem+0x8>
    path++;
  if(*path == 0)
8010237a:	8b 45 08             	mov    0x8(%ebp),%eax
8010237d:	0f b6 00             	movzbl (%eax),%eax
80102380:	84 c0                	test   %al,%al
80102382:	75 07                	jne    8010238b <skipelem+0x27>
    return 0;
80102384:	b8 00 00 00 00       	mov    $0x0,%eax
80102389:	eb 7b                	jmp    80102406 <skipelem+0xa2>
  s = path;
8010238b:	8b 45 08             	mov    0x8(%ebp),%eax
8010238e:	89 45 f4             	mov    %eax,-0xc(%ebp)
  while(*path != '/' && *path != 0)
80102391:	eb 04                	jmp    80102397 <skipelem+0x33>
    path++;
80102393:	83 45 08 01          	addl   $0x1,0x8(%ebp)
  while(*path == '/')
    path++;
  if(*path == 0)
    return 0;
  s = path;
  while(*path != '/' && *path != 0)
80102397:	8b 45 08             	mov    0x8(%ebp),%eax
8010239a:	0f b6 00             	movzbl (%eax),%eax
8010239d:	3c 2f                	cmp    $0x2f,%al
8010239f:	74 0a                	je     801023ab <skipelem+0x47>
801023a1:	8b 45 08             	mov    0x8(%ebp),%eax
801023a4:	0f b6 00             	movzbl (%eax),%eax
801023a7:	84 c0                	test   %al,%al
801023a9:	75 e8                	jne    80102393 <skipelem+0x2f>
    path++;
  len = path - s;
801023ab:	8b 55 08             	mov    0x8(%ebp),%edx
801023ae:	8b 45 f4             	mov    -0xc(%ebp),%eax
801023b1:	29 c2                	sub    %eax,%edx
801023b3:	89 d0                	mov    %edx,%eax
801023b5:	89 45 f0             	mov    %eax,-0x10(%ebp)
  if(len >= DIRSIZ)
801023b8:	83 7d f0 0d          	cmpl   $0xd,-0x10(%ebp)
801023bc:	7e 15                	jle    801023d3 <skipelem+0x6f>
    memmove(name, s, DIRSIZ);
801023be:	83 ec 04             	sub    $0x4,%esp
801023c1:	6a 0e                	push   $0xe
801023c3:	ff 75 f4             	pushl  -0xc(%ebp)
801023c6:	ff 75 0c             	pushl  0xc(%ebp)
801023c9:	e8 ea 32 00 00       	call   801056b8 <memmove>
801023ce:	83 c4 10             	add    $0x10,%esp
801023d1:	eb 26                	jmp    801023f9 <skipelem+0x95>
  else {
    memmove(name, s, len);
801023d3:	8b 45 f0             	mov    -0x10(%ebp),%eax
801023d6:	83 ec 04             	sub    $0x4,%esp
801023d9:	50                   	push   %eax
801023da:	ff 75 f4             	pushl  -0xc(%ebp)
801023dd:	ff 75 0c             	pushl  0xc(%ebp)
801023e0:	e8 d3 32 00 00       	call   801056b8 <memmove>
801023e5:	83 c4 10             	add    $0x10,%esp
    name[len] = 0;
801023e8:	8b 55 f0             	mov    -0x10(%ebp),%edx
801023eb:	8b 45 0c             	mov    0xc(%ebp),%eax
801023ee:	01 d0                	add    %edx,%eax
801023f0:	c6 00 00             	movb   $0x0,(%eax)
  }
  while(*path == '/')
801023f3:	eb 04                	jmp    801023f9 <skipelem+0x95>
    path++;
801023f5:	83 45 08 01          	addl   $0x1,0x8(%ebp)
    memmove(name, s, DIRSIZ);
  else {
    memmove(name, s, len);
    name[len] = 0;
  }
  while(*path == '/')
801023f9:	8b 45 08             	mov    0x8(%ebp),%eax
801023fc:	0f b6 00             	movzbl (%eax),%eax
801023ff:	3c 2f                	cmp    $0x2f,%al
80102401:	74 f2                	je     801023f5 <skipelem+0x91>
    path++;
  return path;
80102403:	8b 45 08             	mov    0x8(%ebp),%eax
}
80102406:	c9                   	leave  
80102407:	c3                   	ret    

80102408 <namex>:
// If parent != 0, return the inode for the parent and copy the final
// path element into name, which must have room for DIRSIZ bytes.
// Must be called inside a transaction since it calls iput().
static struct inode*
namex(char *path, int nameiparent, char *name)
{
80102408:	55                   	push   %ebp
80102409:	89 e5                	mov    %esp,%ebp
8010240b:	83 ec 18             	sub    $0x18,%esp
  struct inode *ip, *next;

  if(*path == '/')
8010240e:	8b 45 08             	mov    0x8(%ebp),%eax
80102411:	0f b6 00             	movzbl (%eax),%eax
80102414:	3c 2f                	cmp    $0x2f,%al
80102416:	75 17                	jne    8010242f <namex+0x27>
    ip = iget(ROOTDEV, ROOTINO);
80102418:	83 ec 08             	sub    $0x8,%esp
8010241b:	6a 01                	push   $0x1
8010241d:	6a 01                	push   $0x1
8010241f:	e8 2d f4 ff ff       	call   80101851 <iget>
80102424:	83 c4 10             	add    $0x10,%esp
80102427:	89 45 f4             	mov    %eax,-0xc(%ebp)
8010242a:	e9 bb 00 00 00       	jmp    801024ea <namex+0xe2>
  else
    ip = idup(proc->cwd);
8010242f:	65 a1 04 00 00 00    	mov    %gs:0x4,%eax
80102435:	8b 40 68             	mov    0x68(%eax),%eax
80102438:	83 ec 0c             	sub    $0xc,%esp
8010243b:	50                   	push   %eax
8010243c:	e8 ef f4 ff ff       	call   80101930 <idup>
80102441:	83 c4 10             	add    $0x10,%esp
80102444:	89 45 f4             	mov    %eax,-0xc(%ebp)

  while((path = skipelem(path, name)) != 0){
80102447:	e9 9e 00 00 00       	jmp    801024ea <namex+0xe2>
    ilock(ip);
8010244c:	83 ec 0c             	sub    $0xc,%esp
8010244f:	ff 75 f4             	pushl  -0xc(%ebp)
80102452:	e8 13 f5 ff ff       	call   8010196a <ilock>
80102457:	83 c4 10             	add    $0x10,%esp
    if(ip->type != T_DIR){
8010245a:	8b 45 f4             	mov    -0xc(%ebp),%eax
8010245d:	0f b7 40 10          	movzwl 0x10(%eax),%eax
80102461:	66 83 f8 01          	cmp    $0x1,%ax
80102465:	74 18                	je     8010247f <namex+0x77>
      iunlockput(ip);
80102467:	83 ec 0c             	sub    $0xc,%esp
8010246a:	ff 75 f4             	pushl  -0xc(%ebp)
8010246d:	e8 b8 f7 ff ff       	call   80101c2a <iunlockput>
80102472:	83 c4 10             	add    $0x10,%esp
      return 0;
80102475:	b8 00 00 00 00       	mov    $0x0,%eax
8010247a:	e9 a7 00 00 00       	jmp    80102526 <namex+0x11e>
    }
    if(nameiparent && *path == '\0'){
8010247f:	83 7d 0c 00          	cmpl   $0x0,0xc(%ebp)
80102483:	74 20                	je     801024a5 <namex+0x9d>
80102485:	8b 45 08             	mov    0x8(%ebp),%eax
80102488:	0f b6 00             	movzbl (%eax),%eax
8010248b:	84 c0                	test   %al,%al
8010248d:	75 16                	jne    801024a5 <namex+0x9d>
      // Stop one level early.
      iunlock(ip);
8010248f:	83 ec 0c             	sub    $0xc,%esp
80102492:	ff 75 f4             	pushl  -0xc(%ebp)
80102495:	e8 2e f6 ff ff       	call   80101ac8 <iunlock>
8010249a:	83 c4 10             	add    $0x10,%esp
      return ip;
8010249d:	8b 45 f4             	mov    -0xc(%ebp),%eax
801024a0:	e9 81 00 00 00       	jmp    80102526 <namex+0x11e>
    }
    if((next = dirlookup(ip, name, 0)) == 0){
801024a5:	83 ec 04             	sub    $0x4,%esp
801024a8:	6a 00                	push   $0x0
801024aa:	ff 75 10             	pushl  0x10(%ebp)
801024ad:	ff 75 f4             	pushl  -0xc(%ebp)
801024b0:	e8 1d fd ff ff       	call   801021d2 <dirlookup>
801024b5:	83 c4 10             	add    $0x10,%esp
801024b8:	89 45 f0             	mov    %eax,-0x10(%ebp)
801024bb:	83 7d f0 00          	cmpl   $0x0,-0x10(%ebp)
801024bf:	75 15                	jne    801024d6 <namex+0xce>
      iunlockput(ip);
801024c1:	83 ec 0c             	sub    $0xc,%esp
801024c4:	ff 75 f4             	pushl  -0xc(%ebp)
801024c7:	e8 5e f7 ff ff       	call   80101c2a <iunlockput>
801024cc:	83 c4 10             	add    $0x10,%esp
      return 0;
801024cf:	b8 00 00 00 00       	mov    $0x0,%eax
801024d4:	eb 50                	jmp    80102526 <namex+0x11e>
    }
    iunlockput(ip);
801024d6:	83 ec 0c             	sub    $0xc,%esp
801024d9:	ff 75 f4             	pushl  -0xc(%ebp)
801024dc:	e8 49 f7 ff ff       	call   80101c2a <iunlockput>
801024e1:	83 c4 10             	add    $0x10,%esp
    ip = next;
801024e4:	8b 45 f0             	mov    -0x10(%ebp),%eax
801024e7:	89 45 f4             	mov    %eax,-0xc(%ebp)
  if(*path == '/')
    ip = iget(ROOTDEV, ROOTINO);
  else
    ip = idup(proc->cwd);

  while((path = skipelem(path, name)) != 0){
801024ea:	83 ec 08             	sub    $0x8,%esp
801024ed:	ff 75 10             	pushl  0x10(%ebp)
801024f0:	ff 75 08             	pushl  0x8(%ebp)
801024f3:	e8 6c fe ff ff       	call   80102364 <skipelem>
801024f8:	83 c4 10             	add    $0x10,%esp
801024fb:	89 45 08             	mov    %eax,0x8(%ebp)
801024fe:	83 7d 08 00          	cmpl   $0x0,0x8(%ebp)
80102502:	0f 85 44 ff ff ff    	jne    8010244c <namex+0x44>
      return 0;
    }
    iunlockput(ip);
    ip = next;
  }
  if(nameiparent){
80102508:	83 7d 0c 00          	cmpl   $0x0,0xc(%ebp)
8010250c:	74 15                	je     80102523 <namex+0x11b>
    iput(ip);
8010250e:	83 ec 0c             	sub    $0xc,%esp
80102511:	ff 75 f4             	pushl  -0xc(%ebp)
80102514:	e8 21 f6 ff ff       	call   80101b3a <iput>
80102519:	83 c4 10             	add    $0x10,%esp
    return 0;
8010251c:	b8 00 00 00 00       	mov    $0x0,%eax
80102521:	eb 03                	jmp    80102526 <namex+0x11e>
  }
  return ip;
80102523:	8b 45 f4             	mov    -0xc(%ebp),%eax
}
80102526:	c9                   	leave  
80102527:	c3                   	ret    

80102528 <namei>:

struct inode*
namei(char *path)
{
80102528:	55                   	push   %ebp
80102529:	89 e5                	mov    %esp,%ebp
8010252b:	83 ec 18             	sub    $0x18,%esp
  char name[DIRSIZ];
  return namex(path, 0, name);
8010252e:	83 ec 04             	sub    $0x4,%esp
80102531:	8d 45 ea             	lea    -0x16(%ebp),%eax
80102534:	50                   	push   %eax
80102535:	6a 00                	push   $0x0
80102537:	ff 75 08             	pushl  0x8(%ebp)
8010253a:	e8 c9 fe ff ff       	call   80102408 <namex>
8010253f:	83 c4 10             	add    $0x10,%esp
}
80102542:	c9                   	leave  
80102543:	c3                   	ret    

80102544 <nameiparent>:

struct inode*
nameiparent(char *path, char *name)
{
80102544:	55                   	push   %ebp
80102545:	89 e5                	mov    %esp,%ebp
80102547:	83 ec 08             	sub    $0x8,%esp
  return namex(path, 1, name);
8010254a:	83 ec 04             	sub    $0x4,%esp
8010254d:	ff 75 0c             	pushl  0xc(%ebp)
80102550:	6a 01                	push   $0x1
80102552:	ff 75 08             	pushl  0x8(%ebp)
80102555:	e8 ae fe ff ff       	call   80102408 <namex>
8010255a:	83 c4 10             	add    $0x10,%esp
}
8010255d:	c9                   	leave  
8010255e:	c3                   	ret    

8010255f <inb>:

// end of CS333 added routines

static inline uchar
inb(ushort port)
{
8010255f:	55                   	push   %ebp
80102560:	89 e5                	mov    %esp,%ebp
80102562:	83 ec 14             	sub    $0x14,%esp
80102565:	8b 45 08             	mov    0x8(%ebp),%eax
80102568:	66 89 45 ec          	mov    %ax,-0x14(%ebp)
  uchar data;

  asm volatile("in %1,%0" : "=a" (data) : "d" (port));
8010256c:	0f b7 45 ec          	movzwl -0x14(%ebp),%eax
80102570:	89 c2                	mov    %eax,%edx
80102572:	ec                   	in     (%dx),%al
80102573:	88 45 ff             	mov    %al,-0x1(%ebp)
  return data;
80102576:	0f b6 45 ff          	movzbl -0x1(%ebp),%eax
}
8010257a:	c9                   	leave  
8010257b:	c3                   	ret    

8010257c <insl>:

static inline void
insl(int port, void *addr, int cnt)
{
8010257c:	55                   	push   %ebp
8010257d:	89 e5                	mov    %esp,%ebp
8010257f:	57                   	push   %edi
80102580:	53                   	push   %ebx
  asm volatile("cld; rep insl" :
80102581:	8b 55 08             	mov    0x8(%ebp),%edx
80102584:	8b 4d 0c             	mov    0xc(%ebp),%ecx
80102587:	8b 45 10             	mov    0x10(%ebp),%eax
8010258a:	89 cb                	mov    %ecx,%ebx
8010258c:	89 df                	mov    %ebx,%edi
8010258e:	89 c1                	mov    %eax,%ecx
80102590:	fc                   	cld    
80102591:	f3 6d                	rep insl (%dx),%es:(%edi)
80102593:	89 c8                	mov    %ecx,%eax
80102595:	89 fb                	mov    %edi,%ebx
80102597:	89 5d 0c             	mov    %ebx,0xc(%ebp)
8010259a:	89 45 10             	mov    %eax,0x10(%ebp)
               "=D" (addr), "=c" (cnt) :
               "d" (port), "0" (addr), "1" (cnt) :
               "memory", "cc");
}
8010259d:	90                   	nop
8010259e:	5b                   	pop    %ebx
8010259f:	5f                   	pop    %edi
801025a0:	5d                   	pop    %ebp
801025a1:	c3                   	ret    

801025a2 <outb>:

static inline void
outb(ushort port, uchar data)
{
801025a2:	55                   	push   %ebp
801025a3:	89 e5                	mov    %esp,%ebp
801025a5:	83 ec 08             	sub    $0x8,%esp
801025a8:	8b 55 08             	mov    0x8(%ebp),%edx
801025ab:	8b 45 0c             	mov    0xc(%ebp),%eax
801025ae:	66 89 55 fc          	mov    %dx,-0x4(%ebp)
801025b2:	88 45 f8             	mov    %al,-0x8(%ebp)
  asm volatile("out %0,%1" : : "a" (data), "d" (port));
801025b5:	0f b6 45 f8          	movzbl -0x8(%ebp),%eax
801025b9:	0f b7 55 fc          	movzwl -0x4(%ebp),%edx
801025bd:	ee                   	out    %al,(%dx)
}
801025be:	90                   	nop
801025bf:	c9                   	leave  
801025c0:	c3                   	ret    

801025c1 <outsl>:
  asm volatile("out %0,%1" : : "a" (data), "d" (port));
}

static inline void
outsl(int port, const void *addr, int cnt)
{
801025c1:	55                   	push   %ebp
801025c2:	89 e5                	mov    %esp,%ebp
801025c4:	56                   	push   %esi
801025c5:	53                   	push   %ebx
  asm volatile("cld; rep outsl" :
801025c6:	8b 55 08             	mov    0x8(%ebp),%edx
801025c9:	8b 4d 0c             	mov    0xc(%ebp),%ecx
801025cc:	8b 45 10             	mov    0x10(%ebp),%eax
801025cf:	89 cb                	mov    %ecx,%ebx
801025d1:	89 de                	mov    %ebx,%esi
801025d3:	89 c1                	mov    %eax,%ecx
801025d5:	fc                   	cld    
801025d6:	f3 6f                	rep outsl %ds:(%esi),(%dx)
801025d8:	89 c8                	mov    %ecx,%eax
801025da:	89 f3                	mov    %esi,%ebx
801025dc:	89 5d 0c             	mov    %ebx,0xc(%ebp)
801025df:	89 45 10             	mov    %eax,0x10(%ebp)
               "=S" (addr), "=c" (cnt) :
               "d" (port), "0" (addr), "1" (cnt) :
               "cc");
}
801025e2:	90                   	nop
801025e3:	5b                   	pop    %ebx
801025e4:	5e                   	pop    %esi
801025e5:	5d                   	pop    %ebp
801025e6:	c3                   	ret    

801025e7 <idewait>:
static void idestart(struct buf*);

// Wait for IDE disk to become ready.
static int
idewait(int checkerr)
{
801025e7:	55                   	push   %ebp
801025e8:	89 e5                	mov    %esp,%ebp
801025ea:	83 ec 10             	sub    $0x10,%esp
  int r;

  while(((r = inb(0x1f7)) & (IDE_BSY|IDE_DRDY)) != IDE_DRDY) 
801025ed:	90                   	nop
801025ee:	68 f7 01 00 00       	push   $0x1f7
801025f3:	e8 67 ff ff ff       	call   8010255f <inb>
801025f8:	83 c4 04             	add    $0x4,%esp
801025fb:	0f b6 c0             	movzbl %al,%eax
801025fe:	89 45 fc             	mov    %eax,-0x4(%ebp)
80102601:	8b 45 fc             	mov    -0x4(%ebp),%eax
80102604:	25 c0 00 00 00       	and    $0xc0,%eax
80102609:	83 f8 40             	cmp    $0x40,%eax
8010260c:	75 e0                	jne    801025ee <idewait+0x7>
    ;
  if(checkerr && (r & (IDE_DF|IDE_ERR)) != 0)
8010260e:	83 7d 08 00          	cmpl   $0x0,0x8(%ebp)
80102612:	74 11                	je     80102625 <idewait+0x3e>
80102614:	8b 45 fc             	mov    -0x4(%ebp),%eax
80102617:	83 e0 21             	and    $0x21,%eax
8010261a:	85 c0                	test   %eax,%eax
8010261c:	74 07                	je     80102625 <idewait+0x3e>
    return -1;
8010261e:	b8 ff ff ff ff       	mov    $0xffffffff,%eax
80102623:	eb 05                	jmp    8010262a <idewait+0x43>
  return 0;
80102625:	b8 00 00 00 00       	mov    $0x0,%eax
}
8010262a:	c9                   	leave  
8010262b:	c3                   	ret    

8010262c <ideinit>:

void
ideinit(void)
{
8010262c:	55                   	push   %ebp
8010262d:	89 e5                	mov    %esp,%ebp
8010262f:	83 ec 18             	sub    $0x18,%esp
  int i;
  
  initlock(&idelock, "ide");
80102632:	83 ec 08             	sub    $0x8,%esp
80102635:	68 d6 8b 10 80       	push   $0x80108bd6
8010263a:	68 20 c6 10 80       	push   $0x8010c620
8010263f:	e8 30 2d 00 00       	call   80105374 <initlock>
80102644:	83 c4 10             	add    $0x10,%esp
  picenable(IRQ_IDE);
80102647:	83 ec 0c             	sub    $0xc,%esp
8010264a:	6a 0e                	push   $0xe
8010264c:	e8 da 18 00 00       	call   80103f2b <picenable>
80102651:	83 c4 10             	add    $0x10,%esp
  ioapicenable(IRQ_IDE, ncpu - 1);
80102654:	a1 60 39 11 80       	mov    0x80113960,%eax
80102659:	83 e8 01             	sub    $0x1,%eax
8010265c:	83 ec 08             	sub    $0x8,%esp
8010265f:	50                   	push   %eax
80102660:	6a 0e                	push   $0xe
80102662:	e8 73 04 00 00       	call   80102ada <ioapicenable>
80102667:	83 c4 10             	add    $0x10,%esp
  idewait(0);
8010266a:	83 ec 0c             	sub    $0xc,%esp
8010266d:	6a 00                	push   $0x0
8010266f:	e8 73 ff ff ff       	call   801025e7 <idewait>
80102674:	83 c4 10             	add    $0x10,%esp
  
  // Check if disk 1 is present
  outb(0x1f6, 0xe0 | (1<<4));
80102677:	83 ec 08             	sub    $0x8,%esp
8010267a:	68 f0 00 00 00       	push   $0xf0
8010267f:	68 f6 01 00 00       	push   $0x1f6
80102684:	e8 19 ff ff ff       	call   801025a2 <outb>
80102689:	83 c4 10             	add    $0x10,%esp
  for(i=0; i<1000; i++){
8010268c:	c7 45 f4 00 00 00 00 	movl   $0x0,-0xc(%ebp)
80102693:	eb 24                	jmp    801026b9 <ideinit+0x8d>
    if(inb(0x1f7) != 0){
80102695:	83 ec 0c             	sub    $0xc,%esp
80102698:	68 f7 01 00 00       	push   $0x1f7
8010269d:	e8 bd fe ff ff       	call   8010255f <inb>
801026a2:	83 c4 10             	add    $0x10,%esp
801026a5:	84 c0                	test   %al,%al
801026a7:	74 0c                	je     801026b5 <ideinit+0x89>
      havedisk1 = 1;
801026a9:	c7 05 58 c6 10 80 01 	movl   $0x1,0x8010c658
801026b0:	00 00 00 
      break;
801026b3:	eb 0d                	jmp    801026c2 <ideinit+0x96>
  ioapicenable(IRQ_IDE, ncpu - 1);
  idewait(0);
  
  // Check if disk 1 is present
  outb(0x1f6, 0xe0 | (1<<4));
  for(i=0; i<1000; i++){
801026b5:	83 45 f4 01          	addl   $0x1,-0xc(%ebp)
801026b9:	81 7d f4 e7 03 00 00 	cmpl   $0x3e7,-0xc(%ebp)
801026c0:	7e d3                	jle    80102695 <ideinit+0x69>
      break;
    }
  }
  
  // Switch back to disk 0.
  outb(0x1f6, 0xe0 | (0<<4));
801026c2:	83 ec 08             	sub    $0x8,%esp
801026c5:	68 e0 00 00 00       	push   $0xe0
801026ca:	68 f6 01 00 00       	push   $0x1f6
801026cf:	e8 ce fe ff ff       	call   801025a2 <outb>
801026d4:	83 c4 10             	add    $0x10,%esp
}
801026d7:	90                   	nop
801026d8:	c9                   	leave  
801026d9:	c3                   	ret    

801026da <idestart>:

// Start the request for b.  Caller must hold idelock.
static void
idestart(struct buf *b)
{
801026da:	55                   	push   %ebp
801026db:	89 e5                	mov    %esp,%ebp
801026dd:	83 ec 18             	sub    $0x18,%esp
  if(b == 0)
801026e0:	83 7d 08 00          	cmpl   $0x0,0x8(%ebp)
801026e4:	75 0d                	jne    801026f3 <idestart+0x19>
    panic("idestart");
801026e6:	83 ec 0c             	sub    $0xc,%esp
801026e9:	68 da 8b 10 80       	push   $0x80108bda
801026ee:	e8 73 de ff ff       	call   80100566 <panic>
  if(b->blockno >= FSSIZE)
801026f3:	8b 45 08             	mov    0x8(%ebp),%eax
801026f6:	8b 40 08             	mov    0x8(%eax),%eax
801026f9:	3d cf 07 00 00       	cmp    $0x7cf,%eax
801026fe:	76 0d                	jbe    8010270d <idestart+0x33>
    panic("incorrect blockno");
80102700:	83 ec 0c             	sub    $0xc,%esp
80102703:	68 e3 8b 10 80       	push   $0x80108be3
80102708:	e8 59 de ff ff       	call   80100566 <panic>
  int sector_per_block =  BSIZE/SECTOR_SIZE;
8010270d:	c7 45 f4 01 00 00 00 	movl   $0x1,-0xc(%ebp)
  int sector = b->blockno * sector_per_block;
80102714:	8b 45 08             	mov    0x8(%ebp),%eax
80102717:	8b 50 08             	mov    0x8(%eax),%edx
8010271a:	8b 45 f4             	mov    -0xc(%ebp),%eax
8010271d:	0f af c2             	imul   %edx,%eax
80102720:	89 45 f0             	mov    %eax,-0x10(%ebp)

  if (sector_per_block > 7) panic("idestart");
80102723:	83 7d f4 07          	cmpl   $0x7,-0xc(%ebp)
80102727:	7e 0d                	jle    80102736 <idestart+0x5c>
80102729:	83 ec 0c             	sub    $0xc,%esp
8010272c:	68 da 8b 10 80       	push   $0x80108bda
80102731:	e8 30 de ff ff       	call   80100566 <panic>
  
  idewait(0);
80102736:	83 ec 0c             	sub    $0xc,%esp
80102739:	6a 00                	push   $0x0
8010273b:	e8 a7 fe ff ff       	call   801025e7 <idewait>
80102740:	83 c4 10             	add    $0x10,%esp
  outb(0x3f6, 0);  // generate interrupt
80102743:	83 ec 08             	sub    $0x8,%esp
80102746:	6a 00                	push   $0x0
80102748:	68 f6 03 00 00       	push   $0x3f6
8010274d:	e8 50 fe ff ff       	call   801025a2 <outb>
80102752:	83 c4 10             	add    $0x10,%esp
  outb(0x1f2, sector_per_block);  // number of sectors
80102755:	8b 45 f4             	mov    -0xc(%ebp),%eax
80102758:	0f b6 c0             	movzbl %al,%eax
8010275b:	83 ec 08             	sub    $0x8,%esp
8010275e:	50                   	push   %eax
8010275f:	68 f2 01 00 00       	push   $0x1f2
80102764:	e8 39 fe ff ff       	call   801025a2 <outb>
80102769:	83 c4 10             	add    $0x10,%esp
  outb(0x1f3, sector & 0xff);
8010276c:	8b 45 f0             	mov    -0x10(%ebp),%eax
8010276f:	0f b6 c0             	movzbl %al,%eax
80102772:	83 ec 08             	sub    $0x8,%esp
80102775:	50                   	push   %eax
80102776:	68 f3 01 00 00       	push   $0x1f3
8010277b:	e8 22 fe ff ff       	call   801025a2 <outb>
80102780:	83 c4 10             	add    $0x10,%esp
  outb(0x1f4, (sector >> 8) & 0xff);
80102783:	8b 45 f0             	mov    -0x10(%ebp),%eax
80102786:	c1 f8 08             	sar    $0x8,%eax
80102789:	0f b6 c0             	movzbl %al,%eax
8010278c:	83 ec 08             	sub    $0x8,%esp
8010278f:	50                   	push   %eax
80102790:	68 f4 01 00 00       	push   $0x1f4
80102795:	e8 08 fe ff ff       	call   801025a2 <outb>
8010279a:	83 c4 10             	add    $0x10,%esp
  outb(0x1f5, (sector >> 16) & 0xff);
8010279d:	8b 45 f0             	mov    -0x10(%ebp),%eax
801027a0:	c1 f8 10             	sar    $0x10,%eax
801027a3:	0f b6 c0             	movzbl %al,%eax
801027a6:	83 ec 08             	sub    $0x8,%esp
801027a9:	50                   	push   %eax
801027aa:	68 f5 01 00 00       	push   $0x1f5
801027af:	e8 ee fd ff ff       	call   801025a2 <outb>
801027b4:	83 c4 10             	add    $0x10,%esp
  outb(0x1f6, 0xe0 | ((b->dev&1)<<4) | ((sector>>24)&0x0f));
801027b7:	8b 45 08             	mov    0x8(%ebp),%eax
801027ba:	8b 40 04             	mov    0x4(%eax),%eax
801027bd:	83 e0 01             	and    $0x1,%eax
801027c0:	c1 e0 04             	shl    $0x4,%eax
801027c3:	89 c2                	mov    %eax,%edx
801027c5:	8b 45 f0             	mov    -0x10(%ebp),%eax
801027c8:	c1 f8 18             	sar    $0x18,%eax
801027cb:	83 e0 0f             	and    $0xf,%eax
801027ce:	09 d0                	or     %edx,%eax
801027d0:	83 c8 e0             	or     $0xffffffe0,%eax
801027d3:	0f b6 c0             	movzbl %al,%eax
801027d6:	83 ec 08             	sub    $0x8,%esp
801027d9:	50                   	push   %eax
801027da:	68 f6 01 00 00       	push   $0x1f6
801027df:	e8 be fd ff ff       	call   801025a2 <outb>
801027e4:	83 c4 10             	add    $0x10,%esp
  if(b->flags & B_DIRTY){
801027e7:	8b 45 08             	mov    0x8(%ebp),%eax
801027ea:	8b 00                	mov    (%eax),%eax
801027ec:	83 e0 04             	and    $0x4,%eax
801027ef:	85 c0                	test   %eax,%eax
801027f1:	74 30                	je     80102823 <idestart+0x149>
    outb(0x1f7, IDE_CMD_WRITE);
801027f3:	83 ec 08             	sub    $0x8,%esp
801027f6:	6a 30                	push   $0x30
801027f8:	68 f7 01 00 00       	push   $0x1f7
801027fd:	e8 a0 fd ff ff       	call   801025a2 <outb>
80102802:	83 c4 10             	add    $0x10,%esp
    outsl(0x1f0, b->data, BSIZE/4);
80102805:	8b 45 08             	mov    0x8(%ebp),%eax
80102808:	83 c0 18             	add    $0x18,%eax
8010280b:	83 ec 04             	sub    $0x4,%esp
8010280e:	68 80 00 00 00       	push   $0x80
80102813:	50                   	push   %eax
80102814:	68 f0 01 00 00       	push   $0x1f0
80102819:	e8 a3 fd ff ff       	call   801025c1 <outsl>
8010281e:	83 c4 10             	add    $0x10,%esp
  } else {
    outb(0x1f7, IDE_CMD_READ);
  }
}
80102821:	eb 12                	jmp    80102835 <idestart+0x15b>
  outb(0x1f6, 0xe0 | ((b->dev&1)<<4) | ((sector>>24)&0x0f));
  if(b->flags & B_DIRTY){
    outb(0x1f7, IDE_CMD_WRITE);
    outsl(0x1f0, b->data, BSIZE/4);
  } else {
    outb(0x1f7, IDE_CMD_READ);
80102823:	83 ec 08             	sub    $0x8,%esp
80102826:	6a 20                	push   $0x20
80102828:	68 f7 01 00 00       	push   $0x1f7
8010282d:	e8 70 fd ff ff       	call   801025a2 <outb>
80102832:	83 c4 10             	add    $0x10,%esp
  }
}
80102835:	90                   	nop
80102836:	c9                   	leave  
80102837:	c3                   	ret    

80102838 <ideintr>:

// Interrupt handler.
void
ideintr(void)
{
80102838:	55                   	push   %ebp
80102839:	89 e5                	mov    %esp,%ebp
8010283b:	83 ec 18             	sub    $0x18,%esp
  struct buf *b;

  // First queued buffer is the active request.
  acquire(&idelock);
8010283e:	83 ec 0c             	sub    $0xc,%esp
80102841:	68 20 c6 10 80       	push   $0x8010c620
80102846:	e8 4b 2b 00 00       	call   80105396 <acquire>
8010284b:	83 c4 10             	add    $0x10,%esp
  if((b = idequeue) == 0){
8010284e:	a1 54 c6 10 80       	mov    0x8010c654,%eax
80102853:	89 45 f4             	mov    %eax,-0xc(%ebp)
80102856:	83 7d f4 00          	cmpl   $0x0,-0xc(%ebp)
8010285a:	75 15                	jne    80102871 <ideintr+0x39>
    release(&idelock);
8010285c:	83 ec 0c             	sub    $0xc,%esp
8010285f:	68 20 c6 10 80       	push   $0x8010c620
80102864:	e8 94 2b 00 00       	call   801053fd <release>
80102869:	83 c4 10             	add    $0x10,%esp
    // cprintf("spurious IDE interrupt\n");
    return;
8010286c:	e9 9a 00 00 00       	jmp    8010290b <ideintr+0xd3>
  }
  idequeue = b->qnext;
80102871:	8b 45 f4             	mov    -0xc(%ebp),%eax
80102874:	8b 40 14             	mov    0x14(%eax),%eax
80102877:	a3 54 c6 10 80       	mov    %eax,0x8010c654

  // Read data if needed.
  if(!(b->flags & B_DIRTY) && idewait(1) >= 0)
8010287c:	8b 45 f4             	mov    -0xc(%ebp),%eax
8010287f:	8b 00                	mov    (%eax),%eax
80102881:	83 e0 04             	and    $0x4,%eax
80102884:	85 c0                	test   %eax,%eax
80102886:	75 2d                	jne    801028b5 <ideintr+0x7d>
80102888:	83 ec 0c             	sub    $0xc,%esp
8010288b:	6a 01                	push   $0x1
8010288d:	e8 55 fd ff ff       	call   801025e7 <idewait>
80102892:	83 c4 10             	add    $0x10,%esp
80102895:	85 c0                	test   %eax,%eax
80102897:	78 1c                	js     801028b5 <ideintr+0x7d>
    insl(0x1f0, b->data, BSIZE/4);
80102899:	8b 45 f4             	mov    -0xc(%ebp),%eax
8010289c:	83 c0 18             	add    $0x18,%eax
8010289f:	83 ec 04             	sub    $0x4,%esp
801028a2:	68 80 00 00 00       	push   $0x80
801028a7:	50                   	push   %eax
801028a8:	68 f0 01 00 00       	push   $0x1f0
801028ad:	e8 ca fc ff ff       	call   8010257c <insl>
801028b2:	83 c4 10             	add    $0x10,%esp
  
  // Wake process waiting for this buf.
  b->flags |= B_VALID;
801028b5:	8b 45 f4             	mov    -0xc(%ebp),%eax
801028b8:	8b 00                	mov    (%eax),%eax
801028ba:	83 c8 02             	or     $0x2,%eax
801028bd:	89 c2                	mov    %eax,%edx
801028bf:	8b 45 f4             	mov    -0xc(%ebp),%eax
801028c2:	89 10                	mov    %edx,(%eax)
  b->flags &= ~B_DIRTY;
801028c4:	8b 45 f4             	mov    -0xc(%ebp),%eax
801028c7:	8b 00                	mov    (%eax),%eax
801028c9:	83 e0 fb             	and    $0xfffffffb,%eax
801028cc:	89 c2                	mov    %eax,%edx
801028ce:	8b 45 f4             	mov    -0xc(%ebp),%eax
801028d1:	89 10                	mov    %edx,(%eax)
  wakeup(b);
801028d3:	83 ec 0c             	sub    $0xc,%esp
801028d6:	ff 75 f4             	pushl  -0xc(%ebp)
801028d9:	e8 05 26 00 00       	call   80104ee3 <wakeup>
801028de:	83 c4 10             	add    $0x10,%esp
  
  // Start disk on next buf in queue.
  if(idequeue != 0)
801028e1:	a1 54 c6 10 80       	mov    0x8010c654,%eax
801028e6:	85 c0                	test   %eax,%eax
801028e8:	74 11                	je     801028fb <ideintr+0xc3>
    idestart(idequeue);
801028ea:	a1 54 c6 10 80       	mov    0x8010c654,%eax
801028ef:	83 ec 0c             	sub    $0xc,%esp
801028f2:	50                   	push   %eax
801028f3:	e8 e2 fd ff ff       	call   801026da <idestart>
801028f8:	83 c4 10             	add    $0x10,%esp

  release(&idelock);
801028fb:	83 ec 0c             	sub    $0xc,%esp
801028fe:	68 20 c6 10 80       	push   $0x8010c620
80102903:	e8 f5 2a 00 00       	call   801053fd <release>
80102908:	83 c4 10             	add    $0x10,%esp
}
8010290b:	c9                   	leave  
8010290c:	c3                   	ret    

8010290d <iderw>:
// Sync buf with disk. 
// If B_DIRTY is set, write buf to disk, clear B_DIRTY, set B_VALID.
// Else if B_VALID is not set, read buf from disk, set B_VALID.
void
iderw(struct buf *b)
{
8010290d:	55                   	push   %ebp
8010290e:	89 e5                	mov    %esp,%ebp
80102910:	83 ec 18             	sub    $0x18,%esp
  struct buf **pp;

  if(!(b->flags & B_BUSY))
80102913:	8b 45 08             	mov    0x8(%ebp),%eax
80102916:	8b 00                	mov    (%eax),%eax
80102918:	83 e0 01             	and    $0x1,%eax
8010291b:	85 c0                	test   %eax,%eax
8010291d:	75 0d                	jne    8010292c <iderw+0x1f>
    panic("iderw: buf not busy");
8010291f:	83 ec 0c             	sub    $0xc,%esp
80102922:	68 f5 8b 10 80       	push   $0x80108bf5
80102927:	e8 3a dc ff ff       	call   80100566 <panic>
  if((b->flags & (B_VALID|B_DIRTY)) == B_VALID)
8010292c:	8b 45 08             	mov    0x8(%ebp),%eax
8010292f:	8b 00                	mov    (%eax),%eax
80102931:	83 e0 06             	and    $0x6,%eax
80102934:	83 f8 02             	cmp    $0x2,%eax
80102937:	75 0d                	jne    80102946 <iderw+0x39>
    panic("iderw: nothing to do");
80102939:	83 ec 0c             	sub    $0xc,%esp
8010293c:	68 09 8c 10 80       	push   $0x80108c09
80102941:	e8 20 dc ff ff       	call   80100566 <panic>
  if(b->dev != 0 && !havedisk1)
80102946:	8b 45 08             	mov    0x8(%ebp),%eax
80102949:	8b 40 04             	mov    0x4(%eax),%eax
8010294c:	85 c0                	test   %eax,%eax
8010294e:	74 16                	je     80102966 <iderw+0x59>
80102950:	a1 58 c6 10 80       	mov    0x8010c658,%eax
80102955:	85 c0                	test   %eax,%eax
80102957:	75 0d                	jne    80102966 <iderw+0x59>
    panic("iderw: ide disk 1 not present");
80102959:	83 ec 0c             	sub    $0xc,%esp
8010295c:	68 1e 8c 10 80       	push   $0x80108c1e
80102961:	e8 00 dc ff ff       	call   80100566 <panic>

  acquire(&idelock);  //DOC:acquire-lock
80102966:	83 ec 0c             	sub    $0xc,%esp
80102969:	68 20 c6 10 80       	push   $0x8010c620
8010296e:	e8 23 2a 00 00       	call   80105396 <acquire>
80102973:	83 c4 10             	add    $0x10,%esp

  // Append b to idequeue.
  b->qnext = 0;
80102976:	8b 45 08             	mov    0x8(%ebp),%eax
80102979:	c7 40 14 00 00 00 00 	movl   $0x0,0x14(%eax)
  for(pp=&idequeue; *pp; pp=&(*pp)->qnext)  //DOC:insert-queue
80102980:	c7 45 f4 54 c6 10 80 	movl   $0x8010c654,-0xc(%ebp)
80102987:	eb 0b                	jmp    80102994 <iderw+0x87>
80102989:	8b 45 f4             	mov    -0xc(%ebp),%eax
8010298c:	8b 00                	mov    (%eax),%eax
8010298e:	83 c0 14             	add    $0x14,%eax
80102991:	89 45 f4             	mov    %eax,-0xc(%ebp)
80102994:	8b 45 f4             	mov    -0xc(%ebp),%eax
80102997:	8b 00                	mov    (%eax),%eax
80102999:	85 c0                	test   %eax,%eax
8010299b:	75 ec                	jne    80102989 <iderw+0x7c>
    ;
  *pp = b;
8010299d:	8b 45 f4             	mov    -0xc(%ebp),%eax
801029a0:	8b 55 08             	mov    0x8(%ebp),%edx
801029a3:	89 10                	mov    %edx,(%eax)
  
  // Start disk if necessary.
  if(idequeue == b)
801029a5:	a1 54 c6 10 80       	mov    0x8010c654,%eax
801029aa:	3b 45 08             	cmp    0x8(%ebp),%eax
801029ad:	75 23                	jne    801029d2 <iderw+0xc5>
    idestart(b);
801029af:	83 ec 0c             	sub    $0xc,%esp
801029b2:	ff 75 08             	pushl  0x8(%ebp)
801029b5:	e8 20 fd ff ff       	call   801026da <idestart>
801029ba:	83 c4 10             	add    $0x10,%esp
  
  // Wait for request to finish.
  while((b->flags & (B_VALID|B_DIRTY)) != B_VALID){
801029bd:	eb 13                	jmp    801029d2 <iderw+0xc5>
    sleep(b, &idelock);
801029bf:	83 ec 08             	sub    $0x8,%esp
801029c2:	68 20 c6 10 80       	push   $0x8010c620
801029c7:	ff 75 08             	pushl  0x8(%ebp)
801029ca:	e8 2d 24 00 00       	call   80104dfc <sleep>
801029cf:	83 c4 10             	add    $0x10,%esp
  // Start disk if necessary.
  if(idequeue == b)
    idestart(b);
  
  // Wait for request to finish.
  while((b->flags & (B_VALID|B_DIRTY)) != B_VALID){
801029d2:	8b 45 08             	mov    0x8(%ebp),%eax
801029d5:	8b 00                	mov    (%eax),%eax
801029d7:	83 e0 06             	and    $0x6,%eax
801029da:	83 f8 02             	cmp    $0x2,%eax
801029dd:	75 e0                	jne    801029bf <iderw+0xb2>
    sleep(b, &idelock);
  }

  release(&idelock);
801029df:	83 ec 0c             	sub    $0xc,%esp
801029e2:	68 20 c6 10 80       	push   $0x8010c620
801029e7:	e8 11 2a 00 00       	call   801053fd <release>
801029ec:	83 c4 10             	add    $0x10,%esp
}
801029ef:	90                   	nop
801029f0:	c9                   	leave  
801029f1:	c3                   	ret    

801029f2 <ioapicread>:
  uint data;
};

static uint
ioapicread(int reg)
{
801029f2:	55                   	push   %ebp
801029f3:	89 e5                	mov    %esp,%ebp
  ioapic->reg = reg;
801029f5:	a1 34 32 11 80       	mov    0x80113234,%eax
801029fa:	8b 55 08             	mov    0x8(%ebp),%edx
801029fd:	89 10                	mov    %edx,(%eax)
  return ioapic->data;
801029ff:	a1 34 32 11 80       	mov    0x80113234,%eax
80102a04:	8b 40 10             	mov    0x10(%eax),%eax
}
80102a07:	5d                   	pop    %ebp
80102a08:	c3                   	ret    

80102a09 <ioapicwrite>:

static void
ioapicwrite(int reg, uint data)
{
80102a09:	55                   	push   %ebp
80102a0a:	89 e5                	mov    %esp,%ebp
  ioapic->reg = reg;
80102a0c:	a1 34 32 11 80       	mov    0x80113234,%eax
80102a11:	8b 55 08             	mov    0x8(%ebp),%edx
80102a14:	89 10                	mov    %edx,(%eax)
  ioapic->data = data;
80102a16:	a1 34 32 11 80       	mov    0x80113234,%eax
80102a1b:	8b 55 0c             	mov    0xc(%ebp),%edx
80102a1e:	89 50 10             	mov    %edx,0x10(%eax)
}
80102a21:	90                   	nop
80102a22:	5d                   	pop    %ebp
80102a23:	c3                   	ret    

80102a24 <ioapicinit>:

void
ioapicinit(void)
{
80102a24:	55                   	push   %ebp
80102a25:	89 e5                	mov    %esp,%ebp
80102a27:	83 ec 18             	sub    $0x18,%esp
  int i, id, maxintr;

  if(!ismp)
80102a2a:	a1 64 33 11 80       	mov    0x80113364,%eax
80102a2f:	85 c0                	test   %eax,%eax
80102a31:	0f 84 a0 00 00 00    	je     80102ad7 <ioapicinit+0xb3>
    return;

  ioapic = (volatile struct ioapic*)IOAPIC;
80102a37:	c7 05 34 32 11 80 00 	movl   $0xfec00000,0x80113234
80102a3e:	00 c0 fe 
  maxintr = (ioapicread(REG_VER) >> 16) & 0xFF;
80102a41:	6a 01                	push   $0x1
80102a43:	e8 aa ff ff ff       	call   801029f2 <ioapicread>
80102a48:	83 c4 04             	add    $0x4,%esp
80102a4b:	c1 e8 10             	shr    $0x10,%eax
80102a4e:	25 ff 00 00 00       	and    $0xff,%eax
80102a53:	89 45 f0             	mov    %eax,-0x10(%ebp)
  id = ioapicread(REG_ID) >> 24;
80102a56:	6a 00                	push   $0x0
80102a58:	e8 95 ff ff ff       	call   801029f2 <ioapicread>
80102a5d:	83 c4 04             	add    $0x4,%esp
80102a60:	c1 e8 18             	shr    $0x18,%eax
80102a63:	89 45 ec             	mov    %eax,-0x14(%ebp)
  if(id != ioapicid)
80102a66:	0f b6 05 60 33 11 80 	movzbl 0x80113360,%eax
80102a6d:	0f b6 c0             	movzbl %al,%eax
80102a70:	3b 45 ec             	cmp    -0x14(%ebp),%eax
80102a73:	74 10                	je     80102a85 <ioapicinit+0x61>
    cprintf("ioapicinit: id isn't equal to ioapicid; not a MP\n");
80102a75:	83 ec 0c             	sub    $0xc,%esp
80102a78:	68 3c 8c 10 80       	push   $0x80108c3c
80102a7d:	e8 44 d9 ff ff       	call   801003c6 <cprintf>
80102a82:	83 c4 10             	add    $0x10,%esp

  // Mark all interrupts edge-triggered, active high, disabled,
  // and not routed to any CPUs.
  for(i = 0; i <= maxintr; i++){
80102a85:	c7 45 f4 00 00 00 00 	movl   $0x0,-0xc(%ebp)
80102a8c:	eb 3f                	jmp    80102acd <ioapicinit+0xa9>
    ioapicwrite(REG_TABLE+2*i, INT_DISABLED | (T_IRQ0 + i));
80102a8e:	8b 45 f4             	mov    -0xc(%ebp),%eax
80102a91:	83 c0 20             	add    $0x20,%eax
80102a94:	0d 00 00 01 00       	or     $0x10000,%eax
80102a99:	89 c2                	mov    %eax,%edx
80102a9b:	8b 45 f4             	mov    -0xc(%ebp),%eax
80102a9e:	83 c0 08             	add    $0x8,%eax
80102aa1:	01 c0                	add    %eax,%eax
80102aa3:	83 ec 08             	sub    $0x8,%esp
80102aa6:	52                   	push   %edx
80102aa7:	50                   	push   %eax
80102aa8:	e8 5c ff ff ff       	call   80102a09 <ioapicwrite>
80102aad:	83 c4 10             	add    $0x10,%esp
    ioapicwrite(REG_TABLE+2*i+1, 0);
80102ab0:	8b 45 f4             	mov    -0xc(%ebp),%eax
80102ab3:	83 c0 08             	add    $0x8,%eax
80102ab6:	01 c0                	add    %eax,%eax
80102ab8:	83 c0 01             	add    $0x1,%eax
80102abb:	83 ec 08             	sub    $0x8,%esp
80102abe:	6a 00                	push   $0x0
80102ac0:	50                   	push   %eax
80102ac1:	e8 43 ff ff ff       	call   80102a09 <ioapicwrite>
80102ac6:	83 c4 10             	add    $0x10,%esp
  if(id != ioapicid)
    cprintf("ioapicinit: id isn't equal to ioapicid; not a MP\n");

  // Mark all interrupts edge-triggered, active high, disabled,
  // and not routed to any CPUs.
  for(i = 0; i <= maxintr; i++){
80102ac9:	83 45 f4 01          	addl   $0x1,-0xc(%ebp)
80102acd:	8b 45 f4             	mov    -0xc(%ebp),%eax
80102ad0:	3b 45 f0             	cmp    -0x10(%ebp),%eax
80102ad3:	7e b9                	jle    80102a8e <ioapicinit+0x6a>
80102ad5:	eb 01                	jmp    80102ad8 <ioapicinit+0xb4>
ioapicinit(void)
{
  int i, id, maxintr;

  if(!ismp)
    return;
80102ad7:	90                   	nop
  // and not routed to any CPUs.
  for(i = 0; i <= maxintr; i++){
    ioapicwrite(REG_TABLE+2*i, INT_DISABLED | (T_IRQ0 + i));
    ioapicwrite(REG_TABLE+2*i+1, 0);
  }
}
80102ad8:	c9                   	leave  
80102ad9:	c3                   	ret    

80102ada <ioapicenable>:

void
ioapicenable(int irq, int cpunum)
{
80102ada:	55                   	push   %ebp
80102adb:	89 e5                	mov    %esp,%ebp
  if(!ismp)
80102add:	a1 64 33 11 80       	mov    0x80113364,%eax
80102ae2:	85 c0                	test   %eax,%eax
80102ae4:	74 39                	je     80102b1f <ioapicenable+0x45>
    return;

  // Mark interrupt edge-triggered, active high,
  // enabled, and routed to the given cpunum,
  // which happens to be that cpu's APIC ID.
  ioapicwrite(REG_TABLE+2*irq, T_IRQ0 + irq);
80102ae6:	8b 45 08             	mov    0x8(%ebp),%eax
80102ae9:	83 c0 20             	add    $0x20,%eax
80102aec:	89 c2                	mov    %eax,%edx
80102aee:	8b 45 08             	mov    0x8(%ebp),%eax
80102af1:	83 c0 08             	add    $0x8,%eax
80102af4:	01 c0                	add    %eax,%eax
80102af6:	52                   	push   %edx
80102af7:	50                   	push   %eax
80102af8:	e8 0c ff ff ff       	call   80102a09 <ioapicwrite>
80102afd:	83 c4 08             	add    $0x8,%esp
  ioapicwrite(REG_TABLE+2*irq+1, cpunum << 24);
80102b00:	8b 45 0c             	mov    0xc(%ebp),%eax
80102b03:	c1 e0 18             	shl    $0x18,%eax
80102b06:	89 c2                	mov    %eax,%edx
80102b08:	8b 45 08             	mov    0x8(%ebp),%eax
80102b0b:	83 c0 08             	add    $0x8,%eax
80102b0e:	01 c0                	add    %eax,%eax
80102b10:	83 c0 01             	add    $0x1,%eax
80102b13:	52                   	push   %edx
80102b14:	50                   	push   %eax
80102b15:	e8 ef fe ff ff       	call   80102a09 <ioapicwrite>
80102b1a:	83 c4 08             	add    $0x8,%esp
80102b1d:	eb 01                	jmp    80102b20 <ioapicenable+0x46>

void
ioapicenable(int irq, int cpunum)
{
  if(!ismp)
    return;
80102b1f:	90                   	nop
  // Mark interrupt edge-triggered, active high,
  // enabled, and routed to the given cpunum,
  // which happens to be that cpu's APIC ID.
  ioapicwrite(REG_TABLE+2*irq, T_IRQ0 + irq);
  ioapicwrite(REG_TABLE+2*irq+1, cpunum << 24);
}
80102b20:	c9                   	leave  
80102b21:	c3                   	ret    

80102b22 <v2p>:
#define KERNBASE 0x80000000         // First kernel virtual address
#define KERNLINK (KERNBASE+EXTMEM)  // Address where kernel is linked

#ifndef __ASSEMBLER__

static inline uint v2p(void *a) { return ((uint) (a))  - KERNBASE; }
80102b22:	55                   	push   %ebp
80102b23:	89 e5                	mov    %esp,%ebp
80102b25:	8b 45 08             	mov    0x8(%ebp),%eax
80102b28:	05 00 00 00 80       	add    $0x80000000,%eax
80102b2d:	5d                   	pop    %ebp
80102b2e:	c3                   	ret    

80102b2f <kinit1>:
// the pages mapped by entrypgdir on free list.
// 2. main() calls kinit2() with the rest of the physical pages
// after installing a full page table that maps them on all cores.
void
kinit1(void *vstart, void *vend)
{
80102b2f:	55                   	push   %ebp
80102b30:	89 e5                	mov    %esp,%ebp
80102b32:	83 ec 08             	sub    $0x8,%esp
  initlock(&kmem.lock, "kmem");
80102b35:	83 ec 08             	sub    $0x8,%esp
80102b38:	68 6e 8c 10 80       	push   $0x80108c6e
80102b3d:	68 40 32 11 80       	push   $0x80113240
80102b42:	e8 2d 28 00 00       	call   80105374 <initlock>
80102b47:	83 c4 10             	add    $0x10,%esp
  kmem.use_lock = 0;
80102b4a:	c7 05 74 32 11 80 00 	movl   $0x0,0x80113274
80102b51:	00 00 00 
  freerange(vstart, vend);
80102b54:	83 ec 08             	sub    $0x8,%esp
80102b57:	ff 75 0c             	pushl  0xc(%ebp)
80102b5a:	ff 75 08             	pushl  0x8(%ebp)
80102b5d:	e8 2a 00 00 00       	call   80102b8c <freerange>
80102b62:	83 c4 10             	add    $0x10,%esp
}
80102b65:	90                   	nop
80102b66:	c9                   	leave  
80102b67:	c3                   	ret    

80102b68 <kinit2>:

void
kinit2(void *vstart, void *vend)
{
80102b68:	55                   	push   %ebp
80102b69:	89 e5                	mov    %esp,%ebp
80102b6b:	83 ec 08             	sub    $0x8,%esp
  freerange(vstart, vend);
80102b6e:	83 ec 08             	sub    $0x8,%esp
80102b71:	ff 75 0c             	pushl  0xc(%ebp)
80102b74:	ff 75 08             	pushl  0x8(%ebp)
80102b77:	e8 10 00 00 00       	call   80102b8c <freerange>
80102b7c:	83 c4 10             	add    $0x10,%esp
  kmem.use_lock = 1;
80102b7f:	c7 05 74 32 11 80 01 	movl   $0x1,0x80113274
80102b86:	00 00 00 
}
80102b89:	90                   	nop
80102b8a:	c9                   	leave  
80102b8b:	c3                   	ret    

80102b8c <freerange>:

void
freerange(void *vstart, void *vend)
{
80102b8c:	55                   	push   %ebp
80102b8d:	89 e5                	mov    %esp,%ebp
80102b8f:	83 ec 18             	sub    $0x18,%esp
  char *p;
  p = (char*)PGROUNDUP((uint)vstart);
80102b92:	8b 45 08             	mov    0x8(%ebp),%eax
80102b95:	05 ff 0f 00 00       	add    $0xfff,%eax
80102b9a:	25 00 f0 ff ff       	and    $0xfffff000,%eax
80102b9f:	89 45 f4             	mov    %eax,-0xc(%ebp)
  for(; p + PGSIZE <= (char*)vend; p += PGSIZE)
80102ba2:	eb 15                	jmp    80102bb9 <freerange+0x2d>
    kfree(p);
80102ba4:	83 ec 0c             	sub    $0xc,%esp
80102ba7:	ff 75 f4             	pushl  -0xc(%ebp)
80102baa:	e8 1a 00 00 00       	call   80102bc9 <kfree>
80102baf:	83 c4 10             	add    $0x10,%esp
void
freerange(void *vstart, void *vend)
{
  char *p;
  p = (char*)PGROUNDUP((uint)vstart);
  for(; p + PGSIZE <= (char*)vend; p += PGSIZE)
80102bb2:	81 45 f4 00 10 00 00 	addl   $0x1000,-0xc(%ebp)
80102bb9:	8b 45 f4             	mov    -0xc(%ebp),%eax
80102bbc:	05 00 10 00 00       	add    $0x1000,%eax
80102bc1:	3b 45 0c             	cmp    0xc(%ebp),%eax
80102bc4:	76 de                	jbe    80102ba4 <freerange+0x18>
    kfree(p);
}
80102bc6:	90                   	nop
80102bc7:	c9                   	leave  
80102bc8:	c3                   	ret    

80102bc9 <kfree>:
// which normally should have been returned by a
// call to kalloc().  (The exception is when
// initializing the allocator; see kinit above.)
void
kfree(char *v)
{
80102bc9:	55                   	push   %ebp
80102bca:	89 e5                	mov    %esp,%ebp
80102bcc:	83 ec 18             	sub    $0x18,%esp
  struct run *r;

  if((uint)v % PGSIZE || v < end || v2p(v) >= PHYSTOP)
80102bcf:	8b 45 08             	mov    0x8(%ebp),%eax
80102bd2:	25 ff 0f 00 00       	and    $0xfff,%eax
80102bd7:	85 c0                	test   %eax,%eax
80102bd9:	75 1b                	jne    80102bf6 <kfree+0x2d>
80102bdb:	81 7d 08 1c 66 11 80 	cmpl   $0x8011661c,0x8(%ebp)
80102be2:	72 12                	jb     80102bf6 <kfree+0x2d>
80102be4:	ff 75 08             	pushl  0x8(%ebp)
80102be7:	e8 36 ff ff ff       	call   80102b22 <v2p>
80102bec:	83 c4 04             	add    $0x4,%esp
80102bef:	3d ff ff ff 0d       	cmp    $0xdffffff,%eax
80102bf4:	76 0d                	jbe    80102c03 <kfree+0x3a>
    panic("kfree");
80102bf6:	83 ec 0c             	sub    $0xc,%esp
80102bf9:	68 73 8c 10 80       	push   $0x80108c73
80102bfe:	e8 63 d9 ff ff       	call   80100566 <panic>

  // Fill with junk to catch dangling refs.
  memset(v, 1, PGSIZE);
80102c03:	83 ec 04             	sub    $0x4,%esp
80102c06:	68 00 10 00 00       	push   $0x1000
80102c0b:	6a 01                	push   $0x1
80102c0d:	ff 75 08             	pushl  0x8(%ebp)
80102c10:	e8 e4 29 00 00       	call   801055f9 <memset>
80102c15:	83 c4 10             	add    $0x10,%esp

  if(kmem.use_lock)
80102c18:	a1 74 32 11 80       	mov    0x80113274,%eax
80102c1d:	85 c0                	test   %eax,%eax
80102c1f:	74 10                	je     80102c31 <kfree+0x68>
    acquire(&kmem.lock);
80102c21:	83 ec 0c             	sub    $0xc,%esp
80102c24:	68 40 32 11 80       	push   $0x80113240
80102c29:	e8 68 27 00 00       	call   80105396 <acquire>
80102c2e:	83 c4 10             	add    $0x10,%esp
  r = (struct run*)v;
80102c31:	8b 45 08             	mov    0x8(%ebp),%eax
80102c34:	89 45 f4             	mov    %eax,-0xc(%ebp)
  r->next = kmem.freelist;
80102c37:	8b 15 78 32 11 80    	mov    0x80113278,%edx
80102c3d:	8b 45 f4             	mov    -0xc(%ebp),%eax
80102c40:	89 10                	mov    %edx,(%eax)
  kmem.freelist = r;
80102c42:	8b 45 f4             	mov    -0xc(%ebp),%eax
80102c45:	a3 78 32 11 80       	mov    %eax,0x80113278
  if(kmem.use_lock)
80102c4a:	a1 74 32 11 80       	mov    0x80113274,%eax
80102c4f:	85 c0                	test   %eax,%eax
80102c51:	74 10                	je     80102c63 <kfree+0x9a>
    release(&kmem.lock);
80102c53:	83 ec 0c             	sub    $0xc,%esp
80102c56:	68 40 32 11 80       	push   $0x80113240
80102c5b:	e8 9d 27 00 00       	call   801053fd <release>
80102c60:	83 c4 10             	add    $0x10,%esp
}
80102c63:	90                   	nop
80102c64:	c9                   	leave  
80102c65:	c3                   	ret    

80102c66 <kalloc>:
// Allocate one 4096-byte page of physical memory.
// Returns a pointer that the kernel can use.
// Returns 0 if the memory cannot be allocated.
char*
kalloc(void)
{
80102c66:	55                   	push   %ebp
80102c67:	89 e5                	mov    %esp,%ebp
80102c69:	83 ec 18             	sub    $0x18,%esp
  struct run *r;

  if(kmem.use_lock)
80102c6c:	a1 74 32 11 80       	mov    0x80113274,%eax
80102c71:	85 c0                	test   %eax,%eax
80102c73:	74 10                	je     80102c85 <kalloc+0x1f>
    acquire(&kmem.lock);
80102c75:	83 ec 0c             	sub    $0xc,%esp
80102c78:	68 40 32 11 80       	push   $0x80113240
80102c7d:	e8 14 27 00 00       	call   80105396 <acquire>
80102c82:	83 c4 10             	add    $0x10,%esp
  r = kmem.freelist;
80102c85:	a1 78 32 11 80       	mov    0x80113278,%eax
80102c8a:	89 45 f4             	mov    %eax,-0xc(%ebp)
  if(r)
80102c8d:	83 7d f4 00          	cmpl   $0x0,-0xc(%ebp)
80102c91:	74 0a                	je     80102c9d <kalloc+0x37>
    kmem.freelist = r->next;
80102c93:	8b 45 f4             	mov    -0xc(%ebp),%eax
80102c96:	8b 00                	mov    (%eax),%eax
80102c98:	a3 78 32 11 80       	mov    %eax,0x80113278
  if(kmem.use_lock)
80102c9d:	a1 74 32 11 80       	mov    0x80113274,%eax
80102ca2:	85 c0                	test   %eax,%eax
80102ca4:	74 10                	je     80102cb6 <kalloc+0x50>
    release(&kmem.lock);
80102ca6:	83 ec 0c             	sub    $0xc,%esp
80102ca9:	68 40 32 11 80       	push   $0x80113240
80102cae:	e8 4a 27 00 00       	call   801053fd <release>
80102cb3:	83 c4 10             	add    $0x10,%esp
  return (char*)r;
80102cb6:	8b 45 f4             	mov    -0xc(%ebp),%eax
}
80102cb9:	c9                   	leave  
80102cba:	c3                   	ret    

80102cbb <inb>:

// end of CS333 added routines

static inline uchar
inb(ushort port)
{
80102cbb:	55                   	push   %ebp
80102cbc:	89 e5                	mov    %esp,%ebp
80102cbe:	83 ec 14             	sub    $0x14,%esp
80102cc1:	8b 45 08             	mov    0x8(%ebp),%eax
80102cc4:	66 89 45 ec          	mov    %ax,-0x14(%ebp)
  uchar data;

  asm volatile("in %1,%0" : "=a" (data) : "d" (port));
80102cc8:	0f b7 45 ec          	movzwl -0x14(%ebp),%eax
80102ccc:	89 c2                	mov    %eax,%edx
80102cce:	ec                   	in     (%dx),%al
80102ccf:	88 45 ff             	mov    %al,-0x1(%ebp)
  return data;
80102cd2:	0f b6 45 ff          	movzbl -0x1(%ebp),%eax
}
80102cd6:	c9                   	leave  
80102cd7:	c3                   	ret    

80102cd8 <kbdgetc>:
#include "defs.h"
#include "kbd.h"

int
kbdgetc(void)
{
80102cd8:	55                   	push   %ebp
80102cd9:	89 e5                	mov    %esp,%ebp
80102cdb:	83 ec 10             	sub    $0x10,%esp
  static uchar *charcode[4] = {
    normalmap, shiftmap, ctlmap, ctlmap
  };
  uint st, data, c;

  st = inb(KBSTATP);
80102cde:	6a 64                	push   $0x64
80102ce0:	e8 d6 ff ff ff       	call   80102cbb <inb>
80102ce5:	83 c4 04             	add    $0x4,%esp
80102ce8:	0f b6 c0             	movzbl %al,%eax
80102ceb:	89 45 f4             	mov    %eax,-0xc(%ebp)
  if((st & KBS_DIB) == 0)
80102cee:	8b 45 f4             	mov    -0xc(%ebp),%eax
80102cf1:	83 e0 01             	and    $0x1,%eax
80102cf4:	85 c0                	test   %eax,%eax
80102cf6:	75 0a                	jne    80102d02 <kbdgetc+0x2a>
    return -1;
80102cf8:	b8 ff ff ff ff       	mov    $0xffffffff,%eax
80102cfd:	e9 23 01 00 00       	jmp    80102e25 <kbdgetc+0x14d>
  data = inb(KBDATAP);
80102d02:	6a 60                	push   $0x60
80102d04:	e8 b2 ff ff ff       	call   80102cbb <inb>
80102d09:	83 c4 04             	add    $0x4,%esp
80102d0c:	0f b6 c0             	movzbl %al,%eax
80102d0f:	89 45 fc             	mov    %eax,-0x4(%ebp)

  if(data == 0xE0){
80102d12:	81 7d fc e0 00 00 00 	cmpl   $0xe0,-0x4(%ebp)
80102d19:	75 17                	jne    80102d32 <kbdgetc+0x5a>
    shift |= E0ESC;
80102d1b:	a1 5c c6 10 80       	mov    0x8010c65c,%eax
80102d20:	83 c8 40             	or     $0x40,%eax
80102d23:	a3 5c c6 10 80       	mov    %eax,0x8010c65c
    return 0;
80102d28:	b8 00 00 00 00       	mov    $0x0,%eax
80102d2d:	e9 f3 00 00 00       	jmp    80102e25 <kbdgetc+0x14d>
  } else if(data & 0x80){
80102d32:	8b 45 fc             	mov    -0x4(%ebp),%eax
80102d35:	25 80 00 00 00       	and    $0x80,%eax
80102d3a:	85 c0                	test   %eax,%eax
80102d3c:	74 45                	je     80102d83 <kbdgetc+0xab>
    // Key released
    data = (shift & E0ESC ? data : data & 0x7F);
80102d3e:	a1 5c c6 10 80       	mov    0x8010c65c,%eax
80102d43:	83 e0 40             	and    $0x40,%eax
80102d46:	85 c0                	test   %eax,%eax
80102d48:	75 08                	jne    80102d52 <kbdgetc+0x7a>
80102d4a:	8b 45 fc             	mov    -0x4(%ebp),%eax
80102d4d:	83 e0 7f             	and    $0x7f,%eax
80102d50:	eb 03                	jmp    80102d55 <kbdgetc+0x7d>
80102d52:	8b 45 fc             	mov    -0x4(%ebp),%eax
80102d55:	89 45 fc             	mov    %eax,-0x4(%ebp)
    shift &= ~(shiftcode[data] | E0ESC);
80102d58:	8b 45 fc             	mov    -0x4(%ebp),%eax
80102d5b:	05 20 a0 10 80       	add    $0x8010a020,%eax
80102d60:	0f b6 00             	movzbl (%eax),%eax
80102d63:	83 c8 40             	or     $0x40,%eax
80102d66:	0f b6 c0             	movzbl %al,%eax
80102d69:	f7 d0                	not    %eax
80102d6b:	89 c2                	mov    %eax,%edx
80102d6d:	a1 5c c6 10 80       	mov    0x8010c65c,%eax
80102d72:	21 d0                	and    %edx,%eax
80102d74:	a3 5c c6 10 80       	mov    %eax,0x8010c65c
    return 0;
80102d79:	b8 00 00 00 00       	mov    $0x0,%eax
80102d7e:	e9 a2 00 00 00       	jmp    80102e25 <kbdgetc+0x14d>
  } else if(shift & E0ESC){
80102d83:	a1 5c c6 10 80       	mov    0x8010c65c,%eax
80102d88:	83 e0 40             	and    $0x40,%eax
80102d8b:	85 c0                	test   %eax,%eax
80102d8d:	74 14                	je     80102da3 <kbdgetc+0xcb>
    // Last character was an E0 escape; or with 0x80
    data |= 0x80;
80102d8f:	81 4d fc 80 00 00 00 	orl    $0x80,-0x4(%ebp)
    shift &= ~E0ESC;
80102d96:	a1 5c c6 10 80       	mov    0x8010c65c,%eax
80102d9b:	83 e0 bf             	and    $0xffffffbf,%eax
80102d9e:	a3 5c c6 10 80       	mov    %eax,0x8010c65c
  }

  shift |= shiftcode[data];
80102da3:	8b 45 fc             	mov    -0x4(%ebp),%eax
80102da6:	05 20 a0 10 80       	add    $0x8010a020,%eax
80102dab:	0f b6 00             	movzbl (%eax),%eax
80102dae:	0f b6 d0             	movzbl %al,%edx
80102db1:	a1 5c c6 10 80       	mov    0x8010c65c,%eax
80102db6:	09 d0                	or     %edx,%eax
80102db8:	a3 5c c6 10 80       	mov    %eax,0x8010c65c
  shift ^= togglecode[data];
80102dbd:	8b 45 fc             	mov    -0x4(%ebp),%eax
80102dc0:	05 20 a1 10 80       	add    $0x8010a120,%eax
80102dc5:	0f b6 00             	movzbl (%eax),%eax
80102dc8:	0f b6 d0             	movzbl %al,%edx
80102dcb:	a1 5c c6 10 80       	mov    0x8010c65c,%eax
80102dd0:	31 d0                	xor    %edx,%eax
80102dd2:	a3 5c c6 10 80       	mov    %eax,0x8010c65c
  c = charcode[shift & (CTL | SHIFT)][data];
80102dd7:	a1 5c c6 10 80       	mov    0x8010c65c,%eax
80102ddc:	83 e0 03             	and    $0x3,%eax
80102ddf:	8b 14 85 20 a5 10 80 	mov    -0x7fef5ae0(,%eax,4),%edx
80102de6:	8b 45 fc             	mov    -0x4(%ebp),%eax
80102de9:	01 d0                	add    %edx,%eax
80102deb:	0f b6 00             	movzbl (%eax),%eax
80102dee:	0f b6 c0             	movzbl %al,%eax
80102df1:	89 45 f8             	mov    %eax,-0x8(%ebp)
  if(shift & CAPSLOCK){
80102df4:	a1 5c c6 10 80       	mov    0x8010c65c,%eax
80102df9:	83 e0 08             	and    $0x8,%eax
80102dfc:	85 c0                	test   %eax,%eax
80102dfe:	74 22                	je     80102e22 <kbdgetc+0x14a>
    if('a' <= c && c <= 'z')
80102e00:	83 7d f8 60          	cmpl   $0x60,-0x8(%ebp)
80102e04:	76 0c                	jbe    80102e12 <kbdgetc+0x13a>
80102e06:	83 7d f8 7a          	cmpl   $0x7a,-0x8(%ebp)
80102e0a:	77 06                	ja     80102e12 <kbdgetc+0x13a>
      c += 'A' - 'a';
80102e0c:	83 6d f8 20          	subl   $0x20,-0x8(%ebp)
80102e10:	eb 10                	jmp    80102e22 <kbdgetc+0x14a>
    else if('A' <= c && c <= 'Z')
80102e12:	83 7d f8 40          	cmpl   $0x40,-0x8(%ebp)
80102e16:	76 0a                	jbe    80102e22 <kbdgetc+0x14a>
80102e18:	83 7d f8 5a          	cmpl   $0x5a,-0x8(%ebp)
80102e1c:	77 04                	ja     80102e22 <kbdgetc+0x14a>
      c += 'a' - 'A';
80102e1e:	83 45 f8 20          	addl   $0x20,-0x8(%ebp)
  }
  return c;
80102e22:	8b 45 f8             	mov    -0x8(%ebp),%eax
}
80102e25:	c9                   	leave  
80102e26:	c3                   	ret    

80102e27 <kbdintr>:

void
kbdintr(void)
{
80102e27:	55                   	push   %ebp
80102e28:	89 e5                	mov    %esp,%ebp
80102e2a:	83 ec 08             	sub    $0x8,%esp
  consoleintr(kbdgetc);
80102e2d:	83 ec 0c             	sub    $0xc,%esp
80102e30:	68 d8 2c 10 80       	push   $0x80102cd8
80102e35:	e8 bf d9 ff ff       	call   801007f9 <consoleintr>
80102e3a:	83 c4 10             	add    $0x10,%esp
}
80102e3d:	90                   	nop
80102e3e:	c9                   	leave  
80102e3f:	c3                   	ret    

80102e40 <inb>:

// end of CS333 added routines

static inline uchar
inb(ushort port)
{
80102e40:	55                   	push   %ebp
80102e41:	89 e5                	mov    %esp,%ebp
80102e43:	83 ec 14             	sub    $0x14,%esp
80102e46:	8b 45 08             	mov    0x8(%ebp),%eax
80102e49:	66 89 45 ec          	mov    %ax,-0x14(%ebp)
  uchar data;

  asm volatile("in %1,%0" : "=a" (data) : "d" (port));
80102e4d:	0f b7 45 ec          	movzwl -0x14(%ebp),%eax
80102e51:	89 c2                	mov    %eax,%edx
80102e53:	ec                   	in     (%dx),%al
80102e54:	88 45 ff             	mov    %al,-0x1(%ebp)
  return data;
80102e57:	0f b6 45 ff          	movzbl -0x1(%ebp),%eax
}
80102e5b:	c9                   	leave  
80102e5c:	c3                   	ret    

80102e5d <outb>:
               "memory", "cc");
}

static inline void
outb(ushort port, uchar data)
{
80102e5d:	55                   	push   %ebp
80102e5e:	89 e5                	mov    %esp,%ebp
80102e60:	83 ec 08             	sub    $0x8,%esp
80102e63:	8b 55 08             	mov    0x8(%ebp),%edx
80102e66:	8b 45 0c             	mov    0xc(%ebp),%eax
80102e69:	66 89 55 fc          	mov    %dx,-0x4(%ebp)
80102e6d:	88 45 f8             	mov    %al,-0x8(%ebp)
  asm volatile("out %0,%1" : : "a" (data), "d" (port));
80102e70:	0f b6 45 f8          	movzbl -0x8(%ebp),%eax
80102e74:	0f b7 55 fc          	movzwl -0x4(%ebp),%edx
80102e78:	ee                   	out    %al,(%dx)
}
80102e79:	90                   	nop
80102e7a:	c9                   	leave  
80102e7b:	c3                   	ret    

80102e7c <readeflags>:
  asm volatile("ltr %0" : : "r" (sel));
}

static inline uint
readeflags(void)
{
80102e7c:	55                   	push   %ebp
80102e7d:	89 e5                	mov    %esp,%ebp
80102e7f:	83 ec 10             	sub    $0x10,%esp
  uint eflags;
  asm volatile("pushfl; popl %0" : "=r" (eflags));
80102e82:	9c                   	pushf  
80102e83:	58                   	pop    %eax
80102e84:	89 45 fc             	mov    %eax,-0x4(%ebp)
  return eflags;
80102e87:	8b 45 fc             	mov    -0x4(%ebp),%eax
}
80102e8a:	c9                   	leave  
80102e8b:	c3                   	ret    

80102e8c <lapicw>:

volatile uint *lapic;  // Initialized in mp.c

static void
lapicw(int index, int value)
{
80102e8c:	55                   	push   %ebp
80102e8d:	89 e5                	mov    %esp,%ebp
  lapic[index] = value;
80102e8f:	a1 7c 32 11 80       	mov    0x8011327c,%eax
80102e94:	8b 55 08             	mov    0x8(%ebp),%edx
80102e97:	c1 e2 02             	shl    $0x2,%edx
80102e9a:	01 c2                	add    %eax,%edx
80102e9c:	8b 45 0c             	mov    0xc(%ebp),%eax
80102e9f:	89 02                	mov    %eax,(%edx)
  lapic[ID];  // wait for write to finish, by reading
80102ea1:	a1 7c 32 11 80       	mov    0x8011327c,%eax
80102ea6:	83 c0 20             	add    $0x20,%eax
80102ea9:	8b 00                	mov    (%eax),%eax
}
80102eab:	90                   	nop
80102eac:	5d                   	pop    %ebp
80102ead:	c3                   	ret    

80102eae <lapicinit>:
//PAGEBREAK!

void
lapicinit(void)
{
80102eae:	55                   	push   %ebp
80102eaf:	89 e5                	mov    %esp,%ebp
  if(!lapic) 
80102eb1:	a1 7c 32 11 80       	mov    0x8011327c,%eax
80102eb6:	85 c0                	test   %eax,%eax
80102eb8:	0f 84 0b 01 00 00    	je     80102fc9 <lapicinit+0x11b>
    return;

  // Enable local APIC; set spurious interrupt vector.
  lapicw(SVR, ENABLE | (T_IRQ0 + IRQ_SPURIOUS));
80102ebe:	68 3f 01 00 00       	push   $0x13f
80102ec3:	6a 3c                	push   $0x3c
80102ec5:	e8 c2 ff ff ff       	call   80102e8c <lapicw>
80102eca:	83 c4 08             	add    $0x8,%esp

  // The timer repeatedly counts down at bus frequency
  // from lapic[TICR] and then issues an interrupt.  
  // If xv6 cared more about precise timekeeping,
  // TICR would be calibrated using an external time source.
  lapicw(TDCR, X1);
80102ecd:	6a 0b                	push   $0xb
80102ecf:	68 f8 00 00 00       	push   $0xf8
80102ed4:	e8 b3 ff ff ff       	call   80102e8c <lapicw>
80102ed9:	83 c4 08             	add    $0x8,%esp
  lapicw(TIMER, PERIODIC | (T_IRQ0 + IRQ_TIMER));
80102edc:	68 20 00 02 00       	push   $0x20020
80102ee1:	68 c8 00 00 00       	push   $0xc8
80102ee6:	e8 a1 ff ff ff       	call   80102e8c <lapicw>
80102eeb:	83 c4 08             	add    $0x8,%esp
  // lapicw(TICR, 10000000); 
  lapicw(TICR, 1000000000/TPS); // PSU CS333. Makes ticks per second programmable
80102eee:	68 40 42 0f 00       	push   $0xf4240
80102ef3:	68 e0 00 00 00       	push   $0xe0
80102ef8:	e8 8f ff ff ff       	call   80102e8c <lapicw>
80102efd:	83 c4 08             	add    $0x8,%esp

  // Disable logical interrupt lines.
  lapicw(LINT0, MASKED);
80102f00:	68 00 00 01 00       	push   $0x10000
80102f05:	68 d4 00 00 00       	push   $0xd4
80102f0a:	e8 7d ff ff ff       	call   80102e8c <lapicw>
80102f0f:	83 c4 08             	add    $0x8,%esp
  lapicw(LINT1, MASKED);
80102f12:	68 00 00 01 00       	push   $0x10000
80102f17:	68 d8 00 00 00       	push   $0xd8
80102f1c:	e8 6b ff ff ff       	call   80102e8c <lapicw>
80102f21:	83 c4 08             	add    $0x8,%esp

  // Disable performance counter overflow interrupts
  // on machines that provide that interrupt entry.
  if(((lapic[VER]>>16) & 0xFF) >= 4)
80102f24:	a1 7c 32 11 80       	mov    0x8011327c,%eax
80102f29:	83 c0 30             	add    $0x30,%eax
80102f2c:	8b 00                	mov    (%eax),%eax
80102f2e:	c1 e8 10             	shr    $0x10,%eax
80102f31:	0f b6 c0             	movzbl %al,%eax
80102f34:	83 f8 03             	cmp    $0x3,%eax
80102f37:	76 12                	jbe    80102f4b <lapicinit+0x9d>
    lapicw(PCINT, MASKED);
80102f39:	68 00 00 01 00       	push   $0x10000
80102f3e:	68 d0 00 00 00       	push   $0xd0
80102f43:	e8 44 ff ff ff       	call   80102e8c <lapicw>
80102f48:	83 c4 08             	add    $0x8,%esp

  // Map error interrupt to IRQ_ERROR.
  lapicw(ERROR, T_IRQ0 + IRQ_ERROR);
80102f4b:	6a 33                	push   $0x33
80102f4d:	68 dc 00 00 00       	push   $0xdc
80102f52:	e8 35 ff ff ff       	call   80102e8c <lapicw>
80102f57:	83 c4 08             	add    $0x8,%esp

  // Clear error status register (requires back-to-back writes).
  lapicw(ESR, 0);
80102f5a:	6a 00                	push   $0x0
80102f5c:	68 a0 00 00 00       	push   $0xa0
80102f61:	e8 26 ff ff ff       	call   80102e8c <lapicw>
80102f66:	83 c4 08             	add    $0x8,%esp
  lapicw(ESR, 0);
80102f69:	6a 00                	push   $0x0
80102f6b:	68 a0 00 00 00       	push   $0xa0
80102f70:	e8 17 ff ff ff       	call   80102e8c <lapicw>
80102f75:	83 c4 08             	add    $0x8,%esp

  // Ack any outstanding interrupts.
  lapicw(EOI, 0);
80102f78:	6a 00                	push   $0x0
80102f7a:	6a 2c                	push   $0x2c
80102f7c:	e8 0b ff ff ff       	call   80102e8c <lapicw>
80102f81:	83 c4 08             	add    $0x8,%esp

  // Send an Init Level De-Assert to synchronise arbitration ID's.
  lapicw(ICRHI, 0);
80102f84:	6a 00                	push   $0x0
80102f86:	68 c4 00 00 00       	push   $0xc4
80102f8b:	e8 fc fe ff ff       	call   80102e8c <lapicw>
80102f90:	83 c4 08             	add    $0x8,%esp
  lapicw(ICRLO, BCAST | INIT | LEVEL);
80102f93:	68 00 85 08 00       	push   $0x88500
80102f98:	68 c0 00 00 00       	push   $0xc0
80102f9d:	e8 ea fe ff ff       	call   80102e8c <lapicw>
80102fa2:	83 c4 08             	add    $0x8,%esp
  while(lapic[ICRLO] & DELIVS)
80102fa5:	90                   	nop
80102fa6:	a1 7c 32 11 80       	mov    0x8011327c,%eax
80102fab:	05 00 03 00 00       	add    $0x300,%eax
80102fb0:	8b 00                	mov    (%eax),%eax
80102fb2:	25 00 10 00 00       	and    $0x1000,%eax
80102fb7:	85 c0                	test   %eax,%eax
80102fb9:	75 eb                	jne    80102fa6 <lapicinit+0xf8>
    ;

  // Enable interrupts on the APIC (but not on the processor).
  lapicw(TPR, 0);
80102fbb:	6a 00                	push   $0x0
80102fbd:	6a 20                	push   $0x20
80102fbf:	e8 c8 fe ff ff       	call   80102e8c <lapicw>
80102fc4:	83 c4 08             	add    $0x8,%esp
80102fc7:	eb 01                	jmp    80102fca <lapicinit+0x11c>

void
lapicinit(void)
{
  if(!lapic) 
    return;
80102fc9:	90                   	nop
  while(lapic[ICRLO] & DELIVS)
    ;

  // Enable interrupts on the APIC (but not on the processor).
  lapicw(TPR, 0);
}
80102fca:	c9                   	leave  
80102fcb:	c3                   	ret    

80102fcc <cpunum>:

int
cpunum(void)
{
80102fcc:	55                   	push   %ebp
80102fcd:	89 e5                	mov    %esp,%ebp
80102fcf:	83 ec 08             	sub    $0x8,%esp
  // Cannot call cpu when interrupts are enabled:
  // result not guaranteed to last long enough to be used!
  // Would prefer to panic but even printing is chancy here:
  // almost everything, including cprintf and panic, calls cpu,
  // often indirectly through acquire and release.
  if(readeflags()&FL_IF){
80102fd2:	e8 a5 fe ff ff       	call   80102e7c <readeflags>
80102fd7:	25 00 02 00 00       	and    $0x200,%eax
80102fdc:	85 c0                	test   %eax,%eax
80102fde:	74 26                	je     80103006 <cpunum+0x3a>
    static int n;
    if(n++ == 0)
80102fe0:	a1 60 c6 10 80       	mov    0x8010c660,%eax
80102fe5:	8d 50 01             	lea    0x1(%eax),%edx
80102fe8:	89 15 60 c6 10 80    	mov    %edx,0x8010c660
80102fee:	85 c0                	test   %eax,%eax
80102ff0:	75 14                	jne    80103006 <cpunum+0x3a>
      cprintf("cpu called from %x with interrupts enabled\n",
80102ff2:	8b 45 04             	mov    0x4(%ebp),%eax
80102ff5:	83 ec 08             	sub    $0x8,%esp
80102ff8:	50                   	push   %eax
80102ff9:	68 7c 8c 10 80       	push   $0x80108c7c
80102ffe:	e8 c3 d3 ff ff       	call   801003c6 <cprintf>
80103003:	83 c4 10             	add    $0x10,%esp
        __builtin_return_address(0));
  }

  if(lapic)
80103006:	a1 7c 32 11 80       	mov    0x8011327c,%eax
8010300b:	85 c0                	test   %eax,%eax
8010300d:	74 0f                	je     8010301e <cpunum+0x52>
    return lapic[ID]>>24;
8010300f:	a1 7c 32 11 80       	mov    0x8011327c,%eax
80103014:	83 c0 20             	add    $0x20,%eax
80103017:	8b 00                	mov    (%eax),%eax
80103019:	c1 e8 18             	shr    $0x18,%eax
8010301c:	eb 05                	jmp    80103023 <cpunum+0x57>
  return 0;
8010301e:	b8 00 00 00 00       	mov    $0x0,%eax
}
80103023:	c9                   	leave  
80103024:	c3                   	ret    

80103025 <lapiceoi>:

// Acknowledge interrupt.
void
lapiceoi(void)
{
80103025:	55                   	push   %ebp
80103026:	89 e5                	mov    %esp,%ebp
  if(lapic)
80103028:	a1 7c 32 11 80       	mov    0x8011327c,%eax
8010302d:	85 c0                	test   %eax,%eax
8010302f:	74 0c                	je     8010303d <lapiceoi+0x18>
    lapicw(EOI, 0);
80103031:	6a 00                	push   $0x0
80103033:	6a 2c                	push   $0x2c
80103035:	e8 52 fe ff ff       	call   80102e8c <lapicw>
8010303a:	83 c4 08             	add    $0x8,%esp
}
8010303d:	90                   	nop
8010303e:	c9                   	leave  
8010303f:	c3                   	ret    

80103040 <microdelay>:

// Spin for a given number of microseconds.
// On real hardware would want to tune this dynamically.
void
microdelay(int us)
{
80103040:	55                   	push   %ebp
80103041:	89 e5                	mov    %esp,%ebp
}
80103043:	90                   	nop
80103044:	5d                   	pop    %ebp
80103045:	c3                   	ret    

80103046 <lapicstartap>:

// Start additional processor running entry code at addr.
// See Appendix B of MultiProcessor Specification.
void
lapicstartap(uchar apicid, uint addr)
{
80103046:	55                   	push   %ebp
80103047:	89 e5                	mov    %esp,%ebp
80103049:	83 ec 14             	sub    $0x14,%esp
8010304c:	8b 45 08             	mov    0x8(%ebp),%eax
8010304f:	88 45 ec             	mov    %al,-0x14(%ebp)
  ushort *wrv;
  
  // "The BSP must initialize CMOS shutdown code to 0AH
  // and the warm reset vector (DWORD based at 40:67) to point at
  // the AP startup code prior to the [universal startup algorithm]."
  outb(CMOS_PORT, 0xF);  // offset 0xF is shutdown code
80103052:	6a 0f                	push   $0xf
80103054:	6a 70                	push   $0x70
80103056:	e8 02 fe ff ff       	call   80102e5d <outb>
8010305b:	83 c4 08             	add    $0x8,%esp
  outb(CMOS_PORT+1, 0x0A);
8010305e:	6a 0a                	push   $0xa
80103060:	6a 71                	push   $0x71
80103062:	e8 f6 fd ff ff       	call   80102e5d <outb>
80103067:	83 c4 08             	add    $0x8,%esp
  wrv = (ushort*)P2V((0x40<<4 | 0x67));  // Warm reset vector
8010306a:	c7 45 f8 67 04 00 80 	movl   $0x80000467,-0x8(%ebp)
  wrv[0] = 0;
80103071:	8b 45 f8             	mov    -0x8(%ebp),%eax
80103074:	66 c7 00 00 00       	movw   $0x0,(%eax)
  wrv[1] = addr >> 4;
80103079:	8b 45 f8             	mov    -0x8(%ebp),%eax
8010307c:	83 c0 02             	add    $0x2,%eax
8010307f:	8b 55 0c             	mov    0xc(%ebp),%edx
80103082:	c1 ea 04             	shr    $0x4,%edx
80103085:	66 89 10             	mov    %dx,(%eax)

  // "Universal startup algorithm."
  // Send INIT (level-triggered) interrupt to reset other CPU.
  lapicw(ICRHI, apicid<<24);
80103088:	0f b6 45 ec          	movzbl -0x14(%ebp),%eax
8010308c:	c1 e0 18             	shl    $0x18,%eax
8010308f:	50                   	push   %eax
80103090:	68 c4 00 00 00       	push   $0xc4
80103095:	e8 f2 fd ff ff       	call   80102e8c <lapicw>
8010309a:	83 c4 08             	add    $0x8,%esp
  lapicw(ICRLO, INIT | LEVEL | ASSERT);
8010309d:	68 00 c5 00 00       	push   $0xc500
801030a2:	68 c0 00 00 00       	push   $0xc0
801030a7:	e8 e0 fd ff ff       	call   80102e8c <lapicw>
801030ac:	83 c4 08             	add    $0x8,%esp
  microdelay(200);
801030af:	68 c8 00 00 00       	push   $0xc8
801030b4:	e8 87 ff ff ff       	call   80103040 <microdelay>
801030b9:	83 c4 04             	add    $0x4,%esp
  lapicw(ICRLO, INIT | LEVEL);
801030bc:	68 00 85 00 00       	push   $0x8500
801030c1:	68 c0 00 00 00       	push   $0xc0
801030c6:	e8 c1 fd ff ff       	call   80102e8c <lapicw>
801030cb:	83 c4 08             	add    $0x8,%esp
  microdelay(100);    // should be 10ms, but too slow in Bochs!
801030ce:	6a 64                	push   $0x64
801030d0:	e8 6b ff ff ff       	call   80103040 <microdelay>
801030d5:	83 c4 04             	add    $0x4,%esp
  // Send startup IPI (twice!) to enter code.
  // Regular hardware is supposed to only accept a STARTUP
  // when it is in the halted state due to an INIT.  So the second
  // should be ignored, but it is part of the official Intel algorithm.
  // Bochs complains about the second one.  Too bad for Bochs.
  for(i = 0; i < 2; i++){
801030d8:	c7 45 fc 00 00 00 00 	movl   $0x0,-0x4(%ebp)
801030df:	eb 3d                	jmp    8010311e <lapicstartap+0xd8>
    lapicw(ICRHI, apicid<<24);
801030e1:	0f b6 45 ec          	movzbl -0x14(%ebp),%eax
801030e5:	c1 e0 18             	shl    $0x18,%eax
801030e8:	50                   	push   %eax
801030e9:	68 c4 00 00 00       	push   $0xc4
801030ee:	e8 99 fd ff ff       	call   80102e8c <lapicw>
801030f3:	83 c4 08             	add    $0x8,%esp
    lapicw(ICRLO, STARTUP | (addr>>12));
801030f6:	8b 45 0c             	mov    0xc(%ebp),%eax
801030f9:	c1 e8 0c             	shr    $0xc,%eax
801030fc:	80 cc 06             	or     $0x6,%ah
801030ff:	50                   	push   %eax
80103100:	68 c0 00 00 00       	push   $0xc0
80103105:	e8 82 fd ff ff       	call   80102e8c <lapicw>
8010310a:	83 c4 08             	add    $0x8,%esp
    microdelay(200);
8010310d:	68 c8 00 00 00       	push   $0xc8
80103112:	e8 29 ff ff ff       	call   80103040 <microdelay>
80103117:	83 c4 04             	add    $0x4,%esp
  // Send startup IPI (twice!) to enter code.
  // Regular hardware is supposed to only accept a STARTUP
  // when it is in the halted state due to an INIT.  So the second
  // should be ignored, but it is part of the official Intel algorithm.
  // Bochs complains about the second one.  Too bad for Bochs.
  for(i = 0; i < 2; i++){
8010311a:	83 45 fc 01          	addl   $0x1,-0x4(%ebp)
8010311e:	83 7d fc 01          	cmpl   $0x1,-0x4(%ebp)
80103122:	7e bd                	jle    801030e1 <lapicstartap+0x9b>
    lapicw(ICRHI, apicid<<24);
    lapicw(ICRLO, STARTUP | (addr>>12));
    microdelay(200);
  }
}
80103124:	90                   	nop
80103125:	c9                   	leave  
80103126:	c3                   	ret    

80103127 <cmos_read>:
#define DAY     0x07
#define MONTH   0x08
#define YEAR    0x09

static uint cmos_read(uint reg)
{
80103127:	55                   	push   %ebp
80103128:	89 e5                	mov    %esp,%ebp
  outb(CMOS_PORT,  reg);
8010312a:	8b 45 08             	mov    0x8(%ebp),%eax
8010312d:	0f b6 c0             	movzbl %al,%eax
80103130:	50                   	push   %eax
80103131:	6a 70                	push   $0x70
80103133:	e8 25 fd ff ff       	call   80102e5d <outb>
80103138:	83 c4 08             	add    $0x8,%esp
  microdelay(200);
8010313b:	68 c8 00 00 00       	push   $0xc8
80103140:	e8 fb fe ff ff       	call   80103040 <microdelay>
80103145:	83 c4 04             	add    $0x4,%esp

  return inb(CMOS_RETURN);
80103148:	6a 71                	push   $0x71
8010314a:	e8 f1 fc ff ff       	call   80102e40 <inb>
8010314f:	83 c4 04             	add    $0x4,%esp
80103152:	0f b6 c0             	movzbl %al,%eax
}
80103155:	c9                   	leave  
80103156:	c3                   	ret    

80103157 <fill_rtcdate>:

static void fill_rtcdate(struct rtcdate *r)
{
80103157:	55                   	push   %ebp
80103158:	89 e5                	mov    %esp,%ebp
  r->second = cmos_read(SECS);
8010315a:	6a 00                	push   $0x0
8010315c:	e8 c6 ff ff ff       	call   80103127 <cmos_read>
80103161:	83 c4 04             	add    $0x4,%esp
80103164:	89 c2                	mov    %eax,%edx
80103166:	8b 45 08             	mov    0x8(%ebp),%eax
80103169:	89 10                	mov    %edx,(%eax)
  r->minute = cmos_read(MINS);
8010316b:	6a 02                	push   $0x2
8010316d:	e8 b5 ff ff ff       	call   80103127 <cmos_read>
80103172:	83 c4 04             	add    $0x4,%esp
80103175:	89 c2                	mov    %eax,%edx
80103177:	8b 45 08             	mov    0x8(%ebp),%eax
8010317a:	89 50 04             	mov    %edx,0x4(%eax)
  r->hour   = cmos_read(HOURS);
8010317d:	6a 04                	push   $0x4
8010317f:	e8 a3 ff ff ff       	call   80103127 <cmos_read>
80103184:	83 c4 04             	add    $0x4,%esp
80103187:	89 c2                	mov    %eax,%edx
80103189:	8b 45 08             	mov    0x8(%ebp),%eax
8010318c:	89 50 08             	mov    %edx,0x8(%eax)
  r->day    = cmos_read(DAY);
8010318f:	6a 07                	push   $0x7
80103191:	e8 91 ff ff ff       	call   80103127 <cmos_read>
80103196:	83 c4 04             	add    $0x4,%esp
80103199:	89 c2                	mov    %eax,%edx
8010319b:	8b 45 08             	mov    0x8(%ebp),%eax
8010319e:	89 50 0c             	mov    %edx,0xc(%eax)
  r->month  = cmos_read(MONTH);
801031a1:	6a 08                	push   $0x8
801031a3:	e8 7f ff ff ff       	call   80103127 <cmos_read>
801031a8:	83 c4 04             	add    $0x4,%esp
801031ab:	89 c2                	mov    %eax,%edx
801031ad:	8b 45 08             	mov    0x8(%ebp),%eax
801031b0:	89 50 10             	mov    %edx,0x10(%eax)
  r->year   = cmos_read(YEAR);
801031b3:	6a 09                	push   $0x9
801031b5:	e8 6d ff ff ff       	call   80103127 <cmos_read>
801031ba:	83 c4 04             	add    $0x4,%esp
801031bd:	89 c2                	mov    %eax,%edx
801031bf:	8b 45 08             	mov    0x8(%ebp),%eax
801031c2:	89 50 14             	mov    %edx,0x14(%eax)
}
801031c5:	90                   	nop
801031c6:	c9                   	leave  
801031c7:	c3                   	ret    

801031c8 <cmostime>:

// qemu seems to use 24-hour GWT and the values are BCD encoded
void cmostime(struct rtcdate *r)
{
801031c8:	55                   	push   %ebp
801031c9:	89 e5                	mov    %esp,%ebp
801031cb:	83 ec 48             	sub    $0x48,%esp
  struct rtcdate t1, t2;
  int sb, bcd;

  sb = cmos_read(CMOS_STATB);
801031ce:	6a 0b                	push   $0xb
801031d0:	e8 52 ff ff ff       	call   80103127 <cmos_read>
801031d5:	83 c4 04             	add    $0x4,%esp
801031d8:	89 45 f4             	mov    %eax,-0xc(%ebp)

  bcd = (sb & (1 << 2)) == 0;
801031db:	8b 45 f4             	mov    -0xc(%ebp),%eax
801031de:	83 e0 04             	and    $0x4,%eax
801031e1:	85 c0                	test   %eax,%eax
801031e3:	0f 94 c0             	sete   %al
801031e6:	0f b6 c0             	movzbl %al,%eax
801031e9:	89 45 f0             	mov    %eax,-0x10(%ebp)

  // make sure CMOS doesn't modify time while we read it
  for (;;) {
    fill_rtcdate(&t1);
801031ec:	8d 45 d8             	lea    -0x28(%ebp),%eax
801031ef:	50                   	push   %eax
801031f0:	e8 62 ff ff ff       	call   80103157 <fill_rtcdate>
801031f5:	83 c4 04             	add    $0x4,%esp
    if (cmos_read(CMOS_STATA) & CMOS_UIP)
801031f8:	6a 0a                	push   $0xa
801031fa:	e8 28 ff ff ff       	call   80103127 <cmos_read>
801031ff:	83 c4 04             	add    $0x4,%esp
80103202:	25 80 00 00 00       	and    $0x80,%eax
80103207:	85 c0                	test   %eax,%eax
80103209:	75 27                	jne    80103232 <cmostime+0x6a>
        continue;
    fill_rtcdate(&t2);
8010320b:	8d 45 c0             	lea    -0x40(%ebp),%eax
8010320e:	50                   	push   %eax
8010320f:	e8 43 ff ff ff       	call   80103157 <fill_rtcdate>
80103214:	83 c4 04             	add    $0x4,%esp
    if (memcmp(&t1, &t2, sizeof(t1)) == 0)
80103217:	83 ec 04             	sub    $0x4,%esp
8010321a:	6a 18                	push   $0x18
8010321c:	8d 45 c0             	lea    -0x40(%ebp),%eax
8010321f:	50                   	push   %eax
80103220:	8d 45 d8             	lea    -0x28(%ebp),%eax
80103223:	50                   	push   %eax
80103224:	e8 37 24 00 00       	call   80105660 <memcmp>
80103229:	83 c4 10             	add    $0x10,%esp
8010322c:	85 c0                	test   %eax,%eax
8010322e:	74 05                	je     80103235 <cmostime+0x6d>
80103230:	eb ba                	jmp    801031ec <cmostime+0x24>

  // make sure CMOS doesn't modify time while we read it
  for (;;) {
    fill_rtcdate(&t1);
    if (cmos_read(CMOS_STATA) & CMOS_UIP)
        continue;
80103232:	90                   	nop
    fill_rtcdate(&t2);
    if (memcmp(&t1, &t2, sizeof(t1)) == 0)
      break;
  }
80103233:	eb b7                	jmp    801031ec <cmostime+0x24>
    fill_rtcdate(&t1);
    if (cmos_read(CMOS_STATA) & CMOS_UIP)
        continue;
    fill_rtcdate(&t2);
    if (memcmp(&t1, &t2, sizeof(t1)) == 0)
      break;
80103235:	90                   	nop
  }

  // convert
  if (bcd) {
80103236:	83 7d f0 00          	cmpl   $0x0,-0x10(%ebp)
8010323a:	0f 84 b4 00 00 00    	je     801032f4 <cmostime+0x12c>
#define    CONV(x)     (t1.x = ((t1.x >> 4) * 10) + (t1.x & 0xf))
    CONV(second);
80103240:	8b 45 d8             	mov    -0x28(%ebp),%eax
80103243:	c1 e8 04             	shr    $0x4,%eax
80103246:	89 c2                	mov    %eax,%edx
80103248:	89 d0                	mov    %edx,%eax
8010324a:	c1 e0 02             	shl    $0x2,%eax
8010324d:	01 d0                	add    %edx,%eax
8010324f:	01 c0                	add    %eax,%eax
80103251:	89 c2                	mov    %eax,%edx
80103253:	8b 45 d8             	mov    -0x28(%ebp),%eax
80103256:	83 e0 0f             	and    $0xf,%eax
80103259:	01 d0                	add    %edx,%eax
8010325b:	89 45 d8             	mov    %eax,-0x28(%ebp)
    CONV(minute);
8010325e:	8b 45 dc             	mov    -0x24(%ebp),%eax
80103261:	c1 e8 04             	shr    $0x4,%eax
80103264:	89 c2                	mov    %eax,%edx
80103266:	89 d0                	mov    %edx,%eax
80103268:	c1 e0 02             	shl    $0x2,%eax
8010326b:	01 d0                	add    %edx,%eax
8010326d:	01 c0                	add    %eax,%eax
8010326f:	89 c2                	mov    %eax,%edx
80103271:	8b 45 dc             	mov    -0x24(%ebp),%eax
80103274:	83 e0 0f             	and    $0xf,%eax
80103277:	01 d0                	add    %edx,%eax
80103279:	89 45 dc             	mov    %eax,-0x24(%ebp)
    CONV(hour  );
8010327c:	8b 45 e0             	mov    -0x20(%ebp),%eax
8010327f:	c1 e8 04             	shr    $0x4,%eax
80103282:	89 c2                	mov    %eax,%edx
80103284:	89 d0                	mov    %edx,%eax
80103286:	c1 e0 02             	shl    $0x2,%eax
80103289:	01 d0                	add    %edx,%eax
8010328b:	01 c0                	add    %eax,%eax
8010328d:	89 c2                	mov    %eax,%edx
8010328f:	8b 45 e0             	mov    -0x20(%ebp),%eax
80103292:	83 e0 0f             	and    $0xf,%eax
80103295:	01 d0                	add    %edx,%eax
80103297:	89 45 e0             	mov    %eax,-0x20(%ebp)
    CONV(day   );
8010329a:	8b 45 e4             	mov    -0x1c(%ebp),%eax
8010329d:	c1 e8 04             	shr    $0x4,%eax
801032a0:	89 c2                	mov    %eax,%edx
801032a2:	89 d0                	mov    %edx,%eax
801032a4:	c1 e0 02             	shl    $0x2,%eax
801032a7:	01 d0                	add    %edx,%eax
801032a9:	01 c0                	add    %eax,%eax
801032ab:	89 c2                	mov    %eax,%edx
801032ad:	8b 45 e4             	mov    -0x1c(%ebp),%eax
801032b0:	83 e0 0f             	and    $0xf,%eax
801032b3:	01 d0                	add    %edx,%eax
801032b5:	89 45 e4             	mov    %eax,-0x1c(%ebp)
    CONV(month );
801032b8:	8b 45 e8             	mov    -0x18(%ebp),%eax
801032bb:	c1 e8 04             	shr    $0x4,%eax
801032be:	89 c2                	mov    %eax,%edx
801032c0:	89 d0                	mov    %edx,%eax
801032c2:	c1 e0 02             	shl    $0x2,%eax
801032c5:	01 d0                	add    %edx,%eax
801032c7:	01 c0                	add    %eax,%eax
801032c9:	89 c2                	mov    %eax,%edx
801032cb:	8b 45 e8             	mov    -0x18(%ebp),%eax
801032ce:	83 e0 0f             	and    $0xf,%eax
801032d1:	01 d0                	add    %edx,%eax
801032d3:	89 45 e8             	mov    %eax,-0x18(%ebp)
    CONV(year  );
801032d6:	8b 45 ec             	mov    -0x14(%ebp),%eax
801032d9:	c1 e8 04             	shr    $0x4,%eax
801032dc:	89 c2                	mov    %eax,%edx
801032de:	89 d0                	mov    %edx,%eax
801032e0:	c1 e0 02             	shl    $0x2,%eax
801032e3:	01 d0                	add    %edx,%eax
801032e5:	01 c0                	add    %eax,%eax
801032e7:	89 c2                	mov    %eax,%edx
801032e9:	8b 45 ec             	mov    -0x14(%ebp),%eax
801032ec:	83 e0 0f             	and    $0xf,%eax
801032ef:	01 d0                	add    %edx,%eax
801032f1:	89 45 ec             	mov    %eax,-0x14(%ebp)
#undef     CONV
  }

  *r = t1;
801032f4:	8b 45 08             	mov    0x8(%ebp),%eax
801032f7:	8b 55 d8             	mov    -0x28(%ebp),%edx
801032fa:	89 10                	mov    %edx,(%eax)
801032fc:	8b 55 dc             	mov    -0x24(%ebp),%edx
801032ff:	89 50 04             	mov    %edx,0x4(%eax)
80103302:	8b 55 e0             	mov    -0x20(%ebp),%edx
80103305:	89 50 08             	mov    %edx,0x8(%eax)
80103308:	8b 55 e4             	mov    -0x1c(%ebp),%edx
8010330b:	89 50 0c             	mov    %edx,0xc(%eax)
8010330e:	8b 55 e8             	mov    -0x18(%ebp),%edx
80103311:	89 50 10             	mov    %edx,0x10(%eax)
80103314:	8b 55 ec             	mov    -0x14(%ebp),%edx
80103317:	89 50 14             	mov    %edx,0x14(%eax)
  r->year += 2000;
8010331a:	8b 45 08             	mov    0x8(%ebp),%eax
8010331d:	8b 40 14             	mov    0x14(%eax),%eax
80103320:	8d 90 d0 07 00 00    	lea    0x7d0(%eax),%edx
80103326:	8b 45 08             	mov    0x8(%ebp),%eax
80103329:	89 50 14             	mov    %edx,0x14(%eax)
}
8010332c:	90                   	nop
8010332d:	c9                   	leave  
8010332e:	c3                   	ret    

8010332f <initlog>:
static void recover_from_log(void);
static void commit();

void
initlog(int dev)
{
8010332f:	55                   	push   %ebp
80103330:	89 e5                	mov    %esp,%ebp
80103332:	83 ec 28             	sub    $0x28,%esp
  if (sizeof(struct logheader) >= BSIZE)
    panic("initlog: too big logheader");

  struct superblock sb;
  initlock(&log.lock, "log");
80103335:	83 ec 08             	sub    $0x8,%esp
80103338:	68 a8 8c 10 80       	push   $0x80108ca8
8010333d:	68 80 32 11 80       	push   $0x80113280
80103342:	e8 2d 20 00 00       	call   80105374 <initlock>
80103347:	83 c4 10             	add    $0x10,%esp
  readsb(dev, &sb);
8010334a:	83 ec 08             	sub    $0x8,%esp
8010334d:	8d 45 dc             	lea    -0x24(%ebp),%eax
80103350:	50                   	push   %eax
80103351:	ff 75 08             	pushl  0x8(%ebp)
80103354:	e8 2b e0 ff ff       	call   80101384 <readsb>
80103359:	83 c4 10             	add    $0x10,%esp
  log.start = sb.logstart;
8010335c:	8b 45 ec             	mov    -0x14(%ebp),%eax
8010335f:	a3 b4 32 11 80       	mov    %eax,0x801132b4
  log.size = sb.nlog;
80103364:	8b 45 e8             	mov    -0x18(%ebp),%eax
80103367:	a3 b8 32 11 80       	mov    %eax,0x801132b8
  log.dev = dev;
8010336c:	8b 45 08             	mov    0x8(%ebp),%eax
8010336f:	a3 c4 32 11 80       	mov    %eax,0x801132c4
  recover_from_log();
80103374:	e8 b2 01 00 00       	call   8010352b <recover_from_log>
}
80103379:	90                   	nop
8010337a:	c9                   	leave  
8010337b:	c3                   	ret    

8010337c <install_trans>:

// Copy committed blocks from log to their home location
static void 
install_trans(void)
{
8010337c:	55                   	push   %ebp
8010337d:	89 e5                	mov    %esp,%ebp
8010337f:	83 ec 18             	sub    $0x18,%esp
  int tail;

  for (tail = 0; tail < log.lh.n; tail++) {
80103382:	c7 45 f4 00 00 00 00 	movl   $0x0,-0xc(%ebp)
80103389:	e9 95 00 00 00       	jmp    80103423 <install_trans+0xa7>
    struct buf *lbuf = bread(log.dev, log.start+tail+1); // read log block
8010338e:	8b 15 b4 32 11 80    	mov    0x801132b4,%edx
80103394:	8b 45 f4             	mov    -0xc(%ebp),%eax
80103397:	01 d0                	add    %edx,%eax
80103399:	83 c0 01             	add    $0x1,%eax
8010339c:	89 c2                	mov    %eax,%edx
8010339e:	a1 c4 32 11 80       	mov    0x801132c4,%eax
801033a3:	83 ec 08             	sub    $0x8,%esp
801033a6:	52                   	push   %edx
801033a7:	50                   	push   %eax
801033a8:	e8 09 ce ff ff       	call   801001b6 <bread>
801033ad:	83 c4 10             	add    $0x10,%esp
801033b0:	89 45 f0             	mov    %eax,-0x10(%ebp)
    struct buf *dbuf = bread(log.dev, log.lh.block[tail]); // read dst
801033b3:	8b 45 f4             	mov    -0xc(%ebp),%eax
801033b6:	83 c0 10             	add    $0x10,%eax
801033b9:	8b 04 85 8c 32 11 80 	mov    -0x7feecd74(,%eax,4),%eax
801033c0:	89 c2                	mov    %eax,%edx
801033c2:	a1 c4 32 11 80       	mov    0x801132c4,%eax
801033c7:	83 ec 08             	sub    $0x8,%esp
801033ca:	52                   	push   %edx
801033cb:	50                   	push   %eax
801033cc:	e8 e5 cd ff ff       	call   801001b6 <bread>
801033d1:	83 c4 10             	add    $0x10,%esp
801033d4:	89 45 ec             	mov    %eax,-0x14(%ebp)
    memmove(dbuf->data, lbuf->data, BSIZE);  // copy block to dst
801033d7:	8b 45 f0             	mov    -0x10(%ebp),%eax
801033da:	8d 50 18             	lea    0x18(%eax),%edx
801033dd:	8b 45 ec             	mov    -0x14(%ebp),%eax
801033e0:	83 c0 18             	add    $0x18,%eax
801033e3:	83 ec 04             	sub    $0x4,%esp
801033e6:	68 00 02 00 00       	push   $0x200
801033eb:	52                   	push   %edx
801033ec:	50                   	push   %eax
801033ed:	e8 c6 22 00 00       	call   801056b8 <memmove>
801033f2:	83 c4 10             	add    $0x10,%esp
    bwrite(dbuf);  // write dst to disk
801033f5:	83 ec 0c             	sub    $0xc,%esp
801033f8:	ff 75 ec             	pushl  -0x14(%ebp)
801033fb:	e8 ef cd ff ff       	call   801001ef <bwrite>
80103400:	83 c4 10             	add    $0x10,%esp
    brelse(lbuf); 
80103403:	83 ec 0c             	sub    $0xc,%esp
80103406:	ff 75 f0             	pushl  -0x10(%ebp)
80103409:	e8 20 ce ff ff       	call   8010022e <brelse>
8010340e:	83 c4 10             	add    $0x10,%esp
    brelse(dbuf);
80103411:	83 ec 0c             	sub    $0xc,%esp
80103414:	ff 75 ec             	pushl  -0x14(%ebp)
80103417:	e8 12 ce ff ff       	call   8010022e <brelse>
8010341c:	83 c4 10             	add    $0x10,%esp
static void 
install_trans(void)
{
  int tail;

  for (tail = 0; tail < log.lh.n; tail++) {
8010341f:	83 45 f4 01          	addl   $0x1,-0xc(%ebp)
80103423:	a1 c8 32 11 80       	mov    0x801132c8,%eax
80103428:	3b 45 f4             	cmp    -0xc(%ebp),%eax
8010342b:	0f 8f 5d ff ff ff    	jg     8010338e <install_trans+0x12>
    memmove(dbuf->data, lbuf->data, BSIZE);  // copy block to dst
    bwrite(dbuf);  // write dst to disk
    brelse(lbuf); 
    brelse(dbuf);
  }
}
80103431:	90                   	nop
80103432:	c9                   	leave  
80103433:	c3                   	ret    

80103434 <read_head>:

// Read the log header from disk into the in-memory log header
static void
read_head(void)
{
80103434:	55                   	push   %ebp
80103435:	89 e5                	mov    %esp,%ebp
80103437:	83 ec 18             	sub    $0x18,%esp
  struct buf *buf = bread(log.dev, log.start);
8010343a:	a1 b4 32 11 80       	mov    0x801132b4,%eax
8010343f:	89 c2                	mov    %eax,%edx
80103441:	a1 c4 32 11 80       	mov    0x801132c4,%eax
80103446:	83 ec 08             	sub    $0x8,%esp
80103449:	52                   	push   %edx
8010344a:	50                   	push   %eax
8010344b:	e8 66 cd ff ff       	call   801001b6 <bread>
80103450:	83 c4 10             	add    $0x10,%esp
80103453:	89 45 f0             	mov    %eax,-0x10(%ebp)
  struct logheader *lh = (struct logheader *) (buf->data);
80103456:	8b 45 f0             	mov    -0x10(%ebp),%eax
80103459:	83 c0 18             	add    $0x18,%eax
8010345c:	89 45 ec             	mov    %eax,-0x14(%ebp)
  int i;
  log.lh.n = lh->n;
8010345f:	8b 45 ec             	mov    -0x14(%ebp),%eax
80103462:	8b 00                	mov    (%eax),%eax
80103464:	a3 c8 32 11 80       	mov    %eax,0x801132c8
  for (i = 0; i < log.lh.n; i++) {
80103469:	c7 45 f4 00 00 00 00 	movl   $0x0,-0xc(%ebp)
80103470:	eb 1b                	jmp    8010348d <read_head+0x59>
    log.lh.block[i] = lh->block[i];
80103472:	8b 45 ec             	mov    -0x14(%ebp),%eax
80103475:	8b 55 f4             	mov    -0xc(%ebp),%edx
80103478:	8b 44 90 04          	mov    0x4(%eax,%edx,4),%eax
8010347c:	8b 55 f4             	mov    -0xc(%ebp),%edx
8010347f:	83 c2 10             	add    $0x10,%edx
80103482:	89 04 95 8c 32 11 80 	mov    %eax,-0x7feecd74(,%edx,4)
{
  struct buf *buf = bread(log.dev, log.start);
  struct logheader *lh = (struct logheader *) (buf->data);
  int i;
  log.lh.n = lh->n;
  for (i = 0; i < log.lh.n; i++) {
80103489:	83 45 f4 01          	addl   $0x1,-0xc(%ebp)
8010348d:	a1 c8 32 11 80       	mov    0x801132c8,%eax
80103492:	3b 45 f4             	cmp    -0xc(%ebp),%eax
80103495:	7f db                	jg     80103472 <read_head+0x3e>
    log.lh.block[i] = lh->block[i];
  }
  brelse(buf);
80103497:	83 ec 0c             	sub    $0xc,%esp
8010349a:	ff 75 f0             	pushl  -0x10(%ebp)
8010349d:	e8 8c cd ff ff       	call   8010022e <brelse>
801034a2:	83 c4 10             	add    $0x10,%esp
}
801034a5:	90                   	nop
801034a6:	c9                   	leave  
801034a7:	c3                   	ret    

801034a8 <write_head>:
// Write in-memory log header to disk.
// This is the true point at which the
// current transaction commits.
static void
write_head(void)
{
801034a8:	55                   	push   %ebp
801034a9:	89 e5                	mov    %esp,%ebp
801034ab:	83 ec 18             	sub    $0x18,%esp
  struct buf *buf = bread(log.dev, log.start);
801034ae:	a1 b4 32 11 80       	mov    0x801132b4,%eax
801034b3:	89 c2                	mov    %eax,%edx
801034b5:	a1 c4 32 11 80       	mov    0x801132c4,%eax
801034ba:	83 ec 08             	sub    $0x8,%esp
801034bd:	52                   	push   %edx
801034be:	50                   	push   %eax
801034bf:	e8 f2 cc ff ff       	call   801001b6 <bread>
801034c4:	83 c4 10             	add    $0x10,%esp
801034c7:	89 45 f0             	mov    %eax,-0x10(%ebp)
  struct logheader *hb = (struct logheader *) (buf->data);
801034ca:	8b 45 f0             	mov    -0x10(%ebp),%eax
801034cd:	83 c0 18             	add    $0x18,%eax
801034d0:	89 45 ec             	mov    %eax,-0x14(%ebp)
  int i;
  hb->n = log.lh.n;
801034d3:	8b 15 c8 32 11 80    	mov    0x801132c8,%edx
801034d9:	8b 45 ec             	mov    -0x14(%ebp),%eax
801034dc:	89 10                	mov    %edx,(%eax)
  for (i = 0; i < log.lh.n; i++) {
801034de:	c7 45 f4 00 00 00 00 	movl   $0x0,-0xc(%ebp)
801034e5:	eb 1b                	jmp    80103502 <write_head+0x5a>
    hb->block[i] = log.lh.block[i];
801034e7:	8b 45 f4             	mov    -0xc(%ebp),%eax
801034ea:	83 c0 10             	add    $0x10,%eax
801034ed:	8b 0c 85 8c 32 11 80 	mov    -0x7feecd74(,%eax,4),%ecx
801034f4:	8b 45 ec             	mov    -0x14(%ebp),%eax
801034f7:	8b 55 f4             	mov    -0xc(%ebp),%edx
801034fa:	89 4c 90 04          	mov    %ecx,0x4(%eax,%edx,4)
{
  struct buf *buf = bread(log.dev, log.start);
  struct logheader *hb = (struct logheader *) (buf->data);
  int i;
  hb->n = log.lh.n;
  for (i = 0; i < log.lh.n; i++) {
801034fe:	83 45 f4 01          	addl   $0x1,-0xc(%ebp)
80103502:	a1 c8 32 11 80       	mov    0x801132c8,%eax
80103507:	3b 45 f4             	cmp    -0xc(%ebp),%eax
8010350a:	7f db                	jg     801034e7 <write_head+0x3f>
    hb->block[i] = log.lh.block[i];
  }
  bwrite(buf);
8010350c:	83 ec 0c             	sub    $0xc,%esp
8010350f:	ff 75 f0             	pushl  -0x10(%ebp)
80103512:	e8 d8 cc ff ff       	call   801001ef <bwrite>
80103517:	83 c4 10             	add    $0x10,%esp
  brelse(buf);
8010351a:	83 ec 0c             	sub    $0xc,%esp
8010351d:	ff 75 f0             	pushl  -0x10(%ebp)
80103520:	e8 09 cd ff ff       	call   8010022e <brelse>
80103525:	83 c4 10             	add    $0x10,%esp
}
80103528:	90                   	nop
80103529:	c9                   	leave  
8010352a:	c3                   	ret    

8010352b <recover_from_log>:

static void
recover_from_log(void)
{
8010352b:	55                   	push   %ebp
8010352c:	89 e5                	mov    %esp,%ebp
8010352e:	83 ec 08             	sub    $0x8,%esp
  read_head();      
80103531:	e8 fe fe ff ff       	call   80103434 <read_head>
  install_trans(); // if committed, copy from log to disk
80103536:	e8 41 fe ff ff       	call   8010337c <install_trans>
  log.lh.n = 0;
8010353b:	c7 05 c8 32 11 80 00 	movl   $0x0,0x801132c8
80103542:	00 00 00 
  write_head(); // clear the log
80103545:	e8 5e ff ff ff       	call   801034a8 <write_head>
}
8010354a:	90                   	nop
8010354b:	c9                   	leave  
8010354c:	c3                   	ret    

8010354d <begin_op>:

// called at the start of each FS system call.
void
begin_op(void)
{
8010354d:	55                   	push   %ebp
8010354e:	89 e5                	mov    %esp,%ebp
80103550:	83 ec 08             	sub    $0x8,%esp
  acquire(&log.lock);
80103553:	83 ec 0c             	sub    $0xc,%esp
80103556:	68 80 32 11 80       	push   $0x80113280
8010355b:	e8 36 1e 00 00       	call   80105396 <acquire>
80103560:	83 c4 10             	add    $0x10,%esp
  while(1){
    if(log.committing){
80103563:	a1 c0 32 11 80       	mov    0x801132c0,%eax
80103568:	85 c0                	test   %eax,%eax
8010356a:	74 17                	je     80103583 <begin_op+0x36>
      sleep(&log, &log.lock);
8010356c:	83 ec 08             	sub    $0x8,%esp
8010356f:	68 80 32 11 80       	push   $0x80113280
80103574:	68 80 32 11 80       	push   $0x80113280
80103579:	e8 7e 18 00 00       	call   80104dfc <sleep>
8010357e:	83 c4 10             	add    $0x10,%esp
80103581:	eb e0                	jmp    80103563 <begin_op+0x16>
    } else if(log.lh.n + (log.outstanding+1)*MAXOPBLOCKS > LOGSIZE){
80103583:	8b 0d c8 32 11 80    	mov    0x801132c8,%ecx
80103589:	a1 bc 32 11 80       	mov    0x801132bc,%eax
8010358e:	8d 50 01             	lea    0x1(%eax),%edx
80103591:	89 d0                	mov    %edx,%eax
80103593:	c1 e0 02             	shl    $0x2,%eax
80103596:	01 d0                	add    %edx,%eax
80103598:	01 c0                	add    %eax,%eax
8010359a:	01 c8                	add    %ecx,%eax
8010359c:	83 f8 1e             	cmp    $0x1e,%eax
8010359f:	7e 17                	jle    801035b8 <begin_op+0x6b>
      // this op might exhaust log space; wait for commit.
      sleep(&log, &log.lock);
801035a1:	83 ec 08             	sub    $0x8,%esp
801035a4:	68 80 32 11 80       	push   $0x80113280
801035a9:	68 80 32 11 80       	push   $0x80113280
801035ae:	e8 49 18 00 00       	call   80104dfc <sleep>
801035b3:	83 c4 10             	add    $0x10,%esp
801035b6:	eb ab                	jmp    80103563 <begin_op+0x16>
    } else {
      log.outstanding += 1;
801035b8:	a1 bc 32 11 80       	mov    0x801132bc,%eax
801035bd:	83 c0 01             	add    $0x1,%eax
801035c0:	a3 bc 32 11 80       	mov    %eax,0x801132bc
      release(&log.lock);
801035c5:	83 ec 0c             	sub    $0xc,%esp
801035c8:	68 80 32 11 80       	push   $0x80113280
801035cd:	e8 2b 1e 00 00       	call   801053fd <release>
801035d2:	83 c4 10             	add    $0x10,%esp
      break;
801035d5:	90                   	nop
    }
  }
}
801035d6:	90                   	nop
801035d7:	c9                   	leave  
801035d8:	c3                   	ret    

801035d9 <end_op>:

// called at the end of each FS system call.
// commits if this was the last outstanding operation.
void
end_op(void)
{
801035d9:	55                   	push   %ebp
801035da:	89 e5                	mov    %esp,%ebp
801035dc:	83 ec 18             	sub    $0x18,%esp
  int do_commit = 0;
801035df:	c7 45 f4 00 00 00 00 	movl   $0x0,-0xc(%ebp)

  acquire(&log.lock);
801035e6:	83 ec 0c             	sub    $0xc,%esp
801035e9:	68 80 32 11 80       	push   $0x80113280
801035ee:	e8 a3 1d 00 00       	call   80105396 <acquire>
801035f3:	83 c4 10             	add    $0x10,%esp
  log.outstanding -= 1;
801035f6:	a1 bc 32 11 80       	mov    0x801132bc,%eax
801035fb:	83 e8 01             	sub    $0x1,%eax
801035fe:	a3 bc 32 11 80       	mov    %eax,0x801132bc
  if(log.committing)
80103603:	a1 c0 32 11 80       	mov    0x801132c0,%eax
80103608:	85 c0                	test   %eax,%eax
8010360a:	74 0d                	je     80103619 <end_op+0x40>
    panic("log.committing");
8010360c:	83 ec 0c             	sub    $0xc,%esp
8010360f:	68 ac 8c 10 80       	push   $0x80108cac
80103614:	e8 4d cf ff ff       	call   80100566 <panic>
  if(log.outstanding == 0){
80103619:	a1 bc 32 11 80       	mov    0x801132bc,%eax
8010361e:	85 c0                	test   %eax,%eax
80103620:	75 13                	jne    80103635 <end_op+0x5c>
    do_commit = 1;
80103622:	c7 45 f4 01 00 00 00 	movl   $0x1,-0xc(%ebp)
    log.committing = 1;
80103629:	c7 05 c0 32 11 80 01 	movl   $0x1,0x801132c0
80103630:	00 00 00 
80103633:	eb 10                	jmp    80103645 <end_op+0x6c>
  } else {
    // begin_op() may be waiting for log space.
    wakeup(&log);
80103635:	83 ec 0c             	sub    $0xc,%esp
80103638:	68 80 32 11 80       	push   $0x80113280
8010363d:	e8 a1 18 00 00       	call   80104ee3 <wakeup>
80103642:	83 c4 10             	add    $0x10,%esp
  }
  release(&log.lock);
80103645:	83 ec 0c             	sub    $0xc,%esp
80103648:	68 80 32 11 80       	push   $0x80113280
8010364d:	e8 ab 1d 00 00       	call   801053fd <release>
80103652:	83 c4 10             	add    $0x10,%esp

  if(do_commit){
80103655:	83 7d f4 00          	cmpl   $0x0,-0xc(%ebp)
80103659:	74 3f                	je     8010369a <end_op+0xc1>
    // call commit w/o holding locks, since not allowed
    // to sleep with locks.
    commit();
8010365b:	e8 f5 00 00 00       	call   80103755 <commit>
    acquire(&log.lock);
80103660:	83 ec 0c             	sub    $0xc,%esp
80103663:	68 80 32 11 80       	push   $0x80113280
80103668:	e8 29 1d 00 00       	call   80105396 <acquire>
8010366d:	83 c4 10             	add    $0x10,%esp
    log.committing = 0;
80103670:	c7 05 c0 32 11 80 00 	movl   $0x0,0x801132c0
80103677:	00 00 00 
    wakeup(&log);
8010367a:	83 ec 0c             	sub    $0xc,%esp
8010367d:	68 80 32 11 80       	push   $0x80113280
80103682:	e8 5c 18 00 00       	call   80104ee3 <wakeup>
80103687:	83 c4 10             	add    $0x10,%esp
    release(&log.lock);
8010368a:	83 ec 0c             	sub    $0xc,%esp
8010368d:	68 80 32 11 80       	push   $0x80113280
80103692:	e8 66 1d 00 00       	call   801053fd <release>
80103697:	83 c4 10             	add    $0x10,%esp
  }
}
8010369a:	90                   	nop
8010369b:	c9                   	leave  
8010369c:	c3                   	ret    

8010369d <write_log>:

// Copy modified blocks from cache to log.
static void 
write_log(void)
{
8010369d:	55                   	push   %ebp
8010369e:	89 e5                	mov    %esp,%ebp
801036a0:	83 ec 18             	sub    $0x18,%esp
  int tail;

  for (tail = 0; tail < log.lh.n; tail++) {
801036a3:	c7 45 f4 00 00 00 00 	movl   $0x0,-0xc(%ebp)
801036aa:	e9 95 00 00 00       	jmp    80103744 <write_log+0xa7>
    struct buf *to = bread(log.dev, log.start+tail+1); // log block
801036af:	8b 15 b4 32 11 80    	mov    0x801132b4,%edx
801036b5:	8b 45 f4             	mov    -0xc(%ebp),%eax
801036b8:	01 d0                	add    %edx,%eax
801036ba:	83 c0 01             	add    $0x1,%eax
801036bd:	89 c2                	mov    %eax,%edx
801036bf:	a1 c4 32 11 80       	mov    0x801132c4,%eax
801036c4:	83 ec 08             	sub    $0x8,%esp
801036c7:	52                   	push   %edx
801036c8:	50                   	push   %eax
801036c9:	e8 e8 ca ff ff       	call   801001b6 <bread>
801036ce:	83 c4 10             	add    $0x10,%esp
801036d1:	89 45 f0             	mov    %eax,-0x10(%ebp)
    struct buf *from = bread(log.dev, log.lh.block[tail]); // cache block
801036d4:	8b 45 f4             	mov    -0xc(%ebp),%eax
801036d7:	83 c0 10             	add    $0x10,%eax
801036da:	8b 04 85 8c 32 11 80 	mov    -0x7feecd74(,%eax,4),%eax
801036e1:	89 c2                	mov    %eax,%edx
801036e3:	a1 c4 32 11 80       	mov    0x801132c4,%eax
801036e8:	83 ec 08             	sub    $0x8,%esp
801036eb:	52                   	push   %edx
801036ec:	50                   	push   %eax
801036ed:	e8 c4 ca ff ff       	call   801001b6 <bread>
801036f2:	83 c4 10             	add    $0x10,%esp
801036f5:	89 45 ec             	mov    %eax,-0x14(%ebp)
    memmove(to->data, from->data, BSIZE);
801036f8:	8b 45 ec             	mov    -0x14(%ebp),%eax
801036fb:	8d 50 18             	lea    0x18(%eax),%edx
801036fe:	8b 45 f0             	mov    -0x10(%ebp),%eax
80103701:	83 c0 18             	add    $0x18,%eax
80103704:	83 ec 04             	sub    $0x4,%esp
80103707:	68 00 02 00 00       	push   $0x200
8010370c:	52                   	push   %edx
8010370d:	50                   	push   %eax
8010370e:	e8 a5 1f 00 00       	call   801056b8 <memmove>
80103713:	83 c4 10             	add    $0x10,%esp
    bwrite(to);  // write the log
80103716:	83 ec 0c             	sub    $0xc,%esp
80103719:	ff 75 f0             	pushl  -0x10(%ebp)
8010371c:	e8 ce ca ff ff       	call   801001ef <bwrite>
80103721:	83 c4 10             	add    $0x10,%esp
    brelse(from); 
80103724:	83 ec 0c             	sub    $0xc,%esp
80103727:	ff 75 ec             	pushl  -0x14(%ebp)
8010372a:	e8 ff ca ff ff       	call   8010022e <brelse>
8010372f:	83 c4 10             	add    $0x10,%esp
    brelse(to);
80103732:	83 ec 0c             	sub    $0xc,%esp
80103735:	ff 75 f0             	pushl  -0x10(%ebp)
80103738:	e8 f1 ca ff ff       	call   8010022e <brelse>
8010373d:	83 c4 10             	add    $0x10,%esp
static void 
write_log(void)
{
  int tail;

  for (tail = 0; tail < log.lh.n; tail++) {
80103740:	83 45 f4 01          	addl   $0x1,-0xc(%ebp)
80103744:	a1 c8 32 11 80       	mov    0x801132c8,%eax
80103749:	3b 45 f4             	cmp    -0xc(%ebp),%eax
8010374c:	0f 8f 5d ff ff ff    	jg     801036af <write_log+0x12>
    memmove(to->data, from->data, BSIZE);
    bwrite(to);  // write the log
    brelse(from); 
    brelse(to);
  }
}
80103752:	90                   	nop
80103753:	c9                   	leave  
80103754:	c3                   	ret    

80103755 <commit>:

static void
commit()
{
80103755:	55                   	push   %ebp
80103756:	89 e5                	mov    %esp,%ebp
80103758:	83 ec 08             	sub    $0x8,%esp
  if (log.lh.n > 0) {
8010375b:	a1 c8 32 11 80       	mov    0x801132c8,%eax
80103760:	85 c0                	test   %eax,%eax
80103762:	7e 1e                	jle    80103782 <commit+0x2d>
    write_log();     // Write modified blocks from cache to log
80103764:	e8 34 ff ff ff       	call   8010369d <write_log>
    write_head();    // Write header to disk -- the real commit
80103769:	e8 3a fd ff ff       	call   801034a8 <write_head>
    install_trans(); // Now install writes to home locations
8010376e:	e8 09 fc ff ff       	call   8010337c <install_trans>
    log.lh.n = 0; 
80103773:	c7 05 c8 32 11 80 00 	movl   $0x0,0x801132c8
8010377a:	00 00 00 
    write_head();    // Erase the transaction from the log
8010377d:	e8 26 fd ff ff       	call   801034a8 <write_head>
  }
}
80103782:	90                   	nop
80103783:	c9                   	leave  
80103784:	c3                   	ret    

80103785 <log_write>:
//   modify bp->data[]
//   log_write(bp)
//   brelse(bp)
void
log_write(struct buf *b)
{
80103785:	55                   	push   %ebp
80103786:	89 e5                	mov    %esp,%ebp
80103788:	83 ec 18             	sub    $0x18,%esp
  int i;

  if (log.lh.n >= LOGSIZE || log.lh.n >= log.size - 1)
8010378b:	a1 c8 32 11 80       	mov    0x801132c8,%eax
80103790:	83 f8 1d             	cmp    $0x1d,%eax
80103793:	7f 12                	jg     801037a7 <log_write+0x22>
80103795:	a1 c8 32 11 80       	mov    0x801132c8,%eax
8010379a:	8b 15 b8 32 11 80    	mov    0x801132b8,%edx
801037a0:	83 ea 01             	sub    $0x1,%edx
801037a3:	39 d0                	cmp    %edx,%eax
801037a5:	7c 0d                	jl     801037b4 <log_write+0x2f>
    panic("too big a transaction");
801037a7:	83 ec 0c             	sub    $0xc,%esp
801037aa:	68 bb 8c 10 80       	push   $0x80108cbb
801037af:	e8 b2 cd ff ff       	call   80100566 <panic>
  if (log.outstanding < 1)
801037b4:	a1 bc 32 11 80       	mov    0x801132bc,%eax
801037b9:	85 c0                	test   %eax,%eax
801037bb:	7f 0d                	jg     801037ca <log_write+0x45>
    panic("log_write outside of trans");
801037bd:	83 ec 0c             	sub    $0xc,%esp
801037c0:	68 d1 8c 10 80       	push   $0x80108cd1
801037c5:	e8 9c cd ff ff       	call   80100566 <panic>

  acquire(&log.lock);
801037ca:	83 ec 0c             	sub    $0xc,%esp
801037cd:	68 80 32 11 80       	push   $0x80113280
801037d2:	e8 bf 1b 00 00       	call   80105396 <acquire>
801037d7:	83 c4 10             	add    $0x10,%esp
  for (i = 0; i < log.lh.n; i++) {
801037da:	c7 45 f4 00 00 00 00 	movl   $0x0,-0xc(%ebp)
801037e1:	eb 1d                	jmp    80103800 <log_write+0x7b>
    if (log.lh.block[i] == b->blockno)   // log absorbtion
801037e3:	8b 45 f4             	mov    -0xc(%ebp),%eax
801037e6:	83 c0 10             	add    $0x10,%eax
801037e9:	8b 04 85 8c 32 11 80 	mov    -0x7feecd74(,%eax,4),%eax
801037f0:	89 c2                	mov    %eax,%edx
801037f2:	8b 45 08             	mov    0x8(%ebp),%eax
801037f5:	8b 40 08             	mov    0x8(%eax),%eax
801037f8:	39 c2                	cmp    %eax,%edx
801037fa:	74 10                	je     8010380c <log_write+0x87>
    panic("too big a transaction");
  if (log.outstanding < 1)
    panic("log_write outside of trans");

  acquire(&log.lock);
  for (i = 0; i < log.lh.n; i++) {
801037fc:	83 45 f4 01          	addl   $0x1,-0xc(%ebp)
80103800:	a1 c8 32 11 80       	mov    0x801132c8,%eax
80103805:	3b 45 f4             	cmp    -0xc(%ebp),%eax
80103808:	7f d9                	jg     801037e3 <log_write+0x5e>
8010380a:	eb 01                	jmp    8010380d <log_write+0x88>
    if (log.lh.block[i] == b->blockno)   // log absorbtion
      break;
8010380c:	90                   	nop
  }
  log.lh.block[i] = b->blockno;
8010380d:	8b 45 08             	mov    0x8(%ebp),%eax
80103810:	8b 40 08             	mov    0x8(%eax),%eax
80103813:	89 c2                	mov    %eax,%edx
80103815:	8b 45 f4             	mov    -0xc(%ebp),%eax
80103818:	83 c0 10             	add    $0x10,%eax
8010381b:	89 14 85 8c 32 11 80 	mov    %edx,-0x7feecd74(,%eax,4)
  if (i == log.lh.n)
80103822:	a1 c8 32 11 80       	mov    0x801132c8,%eax
80103827:	3b 45 f4             	cmp    -0xc(%ebp),%eax
8010382a:	75 0d                	jne    80103839 <log_write+0xb4>
    log.lh.n++;
8010382c:	a1 c8 32 11 80       	mov    0x801132c8,%eax
80103831:	83 c0 01             	add    $0x1,%eax
80103834:	a3 c8 32 11 80       	mov    %eax,0x801132c8
  b->flags |= B_DIRTY; // prevent eviction
80103839:	8b 45 08             	mov    0x8(%ebp),%eax
8010383c:	8b 00                	mov    (%eax),%eax
8010383e:	83 c8 04             	or     $0x4,%eax
80103841:	89 c2                	mov    %eax,%edx
80103843:	8b 45 08             	mov    0x8(%ebp),%eax
80103846:	89 10                	mov    %edx,(%eax)
  release(&log.lock);
80103848:	83 ec 0c             	sub    $0xc,%esp
8010384b:	68 80 32 11 80       	push   $0x80113280
80103850:	e8 a8 1b 00 00       	call   801053fd <release>
80103855:	83 c4 10             	add    $0x10,%esp
}
80103858:	90                   	nop
80103859:	c9                   	leave  
8010385a:	c3                   	ret    

8010385b <v2p>:
8010385b:	55                   	push   %ebp
8010385c:	89 e5                	mov    %esp,%ebp
8010385e:	8b 45 08             	mov    0x8(%ebp),%eax
80103861:	05 00 00 00 80       	add    $0x80000000,%eax
80103866:	5d                   	pop    %ebp
80103867:	c3                   	ret    

80103868 <p2v>:
static inline void *p2v(uint a) { return (void *) ((a) + KERNBASE); }
80103868:	55                   	push   %ebp
80103869:	89 e5                	mov    %esp,%ebp
8010386b:	8b 45 08             	mov    0x8(%ebp),%eax
8010386e:	05 00 00 00 80       	add    $0x80000000,%eax
80103873:	5d                   	pop    %ebp
80103874:	c3                   	ret    

80103875 <xchg>:
  asm volatile("sti");
}

static inline uint
xchg(volatile uint *addr, uint newval)
{
80103875:	55                   	push   %ebp
80103876:	89 e5                	mov    %esp,%ebp
80103878:	83 ec 10             	sub    $0x10,%esp
  uint result;
  
  // The + in "+m" denotes a read-modify-write operand.
  asm volatile("lock; xchgl %0, %1" :
8010387b:	8b 55 08             	mov    0x8(%ebp),%edx
8010387e:	8b 45 0c             	mov    0xc(%ebp),%eax
80103881:	8b 4d 08             	mov    0x8(%ebp),%ecx
80103884:	f0 87 02             	lock xchg %eax,(%edx)
80103887:	89 45 fc             	mov    %eax,-0x4(%ebp)
               "+m" (*addr), "=a" (result) :
               "1" (newval) :
               "cc");
  return result;
8010388a:	8b 45 fc             	mov    -0x4(%ebp),%eax
}
8010388d:	c9                   	leave  
8010388e:	c3                   	ret    

8010388f <main>:
// Bootstrap processor starts running C code here.
// Allocate a real stack and switch to it, first
// doing some setup required for memory allocator to work.
int
main(void)
{
8010388f:	8d 4c 24 04          	lea    0x4(%esp),%ecx
80103893:	83 e4 f0             	and    $0xfffffff0,%esp
80103896:	ff 71 fc             	pushl  -0x4(%ecx)
80103899:	55                   	push   %ebp
8010389a:	89 e5                	mov    %esp,%ebp
8010389c:	51                   	push   %ecx
8010389d:	83 ec 04             	sub    $0x4,%esp
  kinit1(end, P2V(4*1024*1024)); // phys page allocator
801038a0:	83 ec 08             	sub    $0x8,%esp
801038a3:	68 00 00 40 80       	push   $0x80400000
801038a8:	68 1c 66 11 80       	push   $0x8011661c
801038ad:	e8 7d f2 ff ff       	call   80102b2f <kinit1>
801038b2:	83 c4 10             	add    $0x10,%esp
  kvmalloc();      // kernel page table
801038b5:	e8 ff 49 00 00       	call   801082b9 <kvmalloc>
  mpinit();        // collect info about this machine
801038ba:	e8 43 04 00 00       	call   80103d02 <mpinit>
  lapicinit();
801038bf:	e8 ea f5 ff ff       	call   80102eae <lapicinit>
  seginit();       // set up segments
801038c4:	e8 99 43 00 00       	call   80107c62 <seginit>
  cprintf("\ncpu%d: starting xv6\n\n", cpu->id);
801038c9:	65 a1 00 00 00 00    	mov    %gs:0x0,%eax
801038cf:	0f b6 00             	movzbl (%eax),%eax
801038d2:	0f b6 c0             	movzbl %al,%eax
801038d5:	83 ec 08             	sub    $0x8,%esp
801038d8:	50                   	push   %eax
801038d9:	68 ec 8c 10 80       	push   $0x80108cec
801038de:	e8 e3 ca ff ff       	call   801003c6 <cprintf>
801038e3:	83 c4 10             	add    $0x10,%esp
  picinit();       // interrupt controller
801038e6:	e8 6d 06 00 00       	call   80103f58 <picinit>
  ioapicinit();    // another interrupt controller
801038eb:	e8 34 f1 ff ff       	call   80102a24 <ioapicinit>
  consoleinit();   // I/O devices & their interrupts
801038f0:	e8 24 d2 ff ff       	call   80100b19 <consoleinit>
  uartinit();      // serial port
801038f5:	e8 c4 36 00 00       	call   80106fbe <uartinit>
  pinit();         // process table
801038fa:	e8 5d 0b 00 00       	call   8010445c <pinit>
  tvinit();        // trap vectors
801038ff:	e8 93 32 00 00       	call   80106b97 <tvinit>
  binit();         // buffer cache
80103904:	e8 2b c7 ff ff       	call   80100034 <binit>
  fileinit();      // file table
80103909:	e8 67 d6 ff ff       	call   80100f75 <fileinit>
  ideinit();       // disk
8010390e:	e8 19 ed ff ff       	call   8010262c <ideinit>
  if(!ismp)
80103913:	a1 64 33 11 80       	mov    0x80113364,%eax
80103918:	85 c0                	test   %eax,%eax
8010391a:	75 05                	jne    80103921 <main+0x92>
    timerinit();   // uniprocessor timer
8010391c:	e8 c7 31 00 00       	call   80106ae8 <timerinit>
  startothers();   // start other processors
80103921:	e8 7f 00 00 00       	call   801039a5 <startothers>
  kinit2(P2V(4*1024*1024), P2V(PHYSTOP)); // must come after startothers()
80103926:	83 ec 08             	sub    $0x8,%esp
80103929:	68 00 00 00 8e       	push   $0x8e000000
8010392e:	68 00 00 40 80       	push   $0x80400000
80103933:	e8 30 f2 ff ff       	call   80102b68 <kinit2>
80103938:	83 c4 10             	add    $0x10,%esp
  userinit();      // first user process
8010393b:	e8 6e 0c 00 00       	call   801045ae <userinit>
  // Finish setting up this processor in mpmain.
  mpmain();
80103940:	e8 1a 00 00 00       	call   8010395f <mpmain>

80103945 <mpenter>:
}

// Other CPUs jump here from entryother.S.
static void
mpenter(void)
{
80103945:	55                   	push   %ebp
80103946:	89 e5                	mov    %esp,%ebp
80103948:	83 ec 08             	sub    $0x8,%esp
  switchkvm(); 
8010394b:	e8 81 49 00 00       	call   801082d1 <switchkvm>
  seginit();
80103950:	e8 0d 43 00 00       	call   80107c62 <seginit>
  lapicinit();
80103955:	e8 54 f5 ff ff       	call   80102eae <lapicinit>
  mpmain();
8010395a:	e8 00 00 00 00       	call   8010395f <mpmain>

8010395f <mpmain>:
}

// Common CPU setup code.
static void
mpmain(void)
{
8010395f:	55                   	push   %ebp
80103960:	89 e5                	mov    %esp,%ebp
80103962:	83 ec 08             	sub    $0x8,%esp
  cprintf("cpu%d: starting\n", cpu->id);
80103965:	65 a1 00 00 00 00    	mov    %gs:0x0,%eax
8010396b:	0f b6 00             	movzbl (%eax),%eax
8010396e:	0f b6 c0             	movzbl %al,%eax
80103971:	83 ec 08             	sub    $0x8,%esp
80103974:	50                   	push   %eax
80103975:	68 03 8d 10 80       	push   $0x80108d03
8010397a:	e8 47 ca ff ff       	call   801003c6 <cprintf>
8010397f:	83 c4 10             	add    $0x10,%esp
  idtinit();       // load idt register
80103982:	e8 71 33 00 00       	call   80106cf8 <idtinit>
  xchg(&cpu->started, 1); // tell startothers() we're up
80103987:	65 a1 00 00 00 00    	mov    %gs:0x0,%eax
8010398d:	05 a8 00 00 00       	add    $0xa8,%eax
80103992:	83 ec 08             	sub    $0x8,%esp
80103995:	6a 01                	push   $0x1
80103997:	50                   	push   %eax
80103998:	e8 d8 fe ff ff       	call   80103875 <xchg>
8010399d:	83 c4 10             	add    $0x10,%esp
  scheduler();     // start running processes
801039a0:	e8 07 12 00 00       	call   80104bac <scheduler>

801039a5 <startothers>:
pde_t entrypgdir[];  // For entry.S

// Start the non-boot (AP) processors.
static void
startothers(void)
{
801039a5:	55                   	push   %ebp
801039a6:	89 e5                	mov    %esp,%ebp
801039a8:	53                   	push   %ebx
801039a9:	83 ec 14             	sub    $0x14,%esp
  char *stack;

  // Write entry code to unused memory at 0x7000.
  // The linker has placed the image of entryother.S in
  // _binary_entryother_start.
  code = p2v(0x7000);
801039ac:	68 00 70 00 00       	push   $0x7000
801039b1:	e8 b2 fe ff ff       	call   80103868 <p2v>
801039b6:	83 c4 04             	add    $0x4,%esp
801039b9:	89 45 f0             	mov    %eax,-0x10(%ebp)
  memmove(code, _binary_entryother_start, (uint)_binary_entryother_size);
801039bc:	b8 8a 00 00 00       	mov    $0x8a,%eax
801039c1:	83 ec 04             	sub    $0x4,%esp
801039c4:	50                   	push   %eax
801039c5:	68 2c c5 10 80       	push   $0x8010c52c
801039ca:	ff 75 f0             	pushl  -0x10(%ebp)
801039cd:	e8 e6 1c 00 00       	call   801056b8 <memmove>
801039d2:	83 c4 10             	add    $0x10,%esp

  for(c = cpus; c < cpus+ncpu; c++){
801039d5:	c7 45 f4 80 33 11 80 	movl   $0x80113380,-0xc(%ebp)
801039dc:	e9 90 00 00 00       	jmp    80103a71 <startothers+0xcc>
    if(c == cpus+cpunum())  // We've started already.
801039e1:	e8 e6 f5 ff ff       	call   80102fcc <cpunum>
801039e6:	69 c0 bc 00 00 00    	imul   $0xbc,%eax,%eax
801039ec:	05 80 33 11 80       	add    $0x80113380,%eax
801039f1:	3b 45 f4             	cmp    -0xc(%ebp),%eax
801039f4:	74 73                	je     80103a69 <startothers+0xc4>
      continue;

    // Tell entryother.S what stack to use, where to enter, and what 
    // pgdir to use. We cannot use kpgdir yet, because the AP processor
    // is running in low  memory, so we use entrypgdir for the APs too.
    stack = kalloc();
801039f6:	e8 6b f2 ff ff       	call   80102c66 <kalloc>
801039fb:	89 45 ec             	mov    %eax,-0x14(%ebp)
    *(void**)(code-4) = stack + KSTACKSIZE;
801039fe:	8b 45 f0             	mov    -0x10(%ebp),%eax
80103a01:	83 e8 04             	sub    $0x4,%eax
80103a04:	8b 55 ec             	mov    -0x14(%ebp),%edx
80103a07:	81 c2 00 10 00 00    	add    $0x1000,%edx
80103a0d:	89 10                	mov    %edx,(%eax)
    *(void**)(code-8) = mpenter;
80103a0f:	8b 45 f0             	mov    -0x10(%ebp),%eax
80103a12:	83 e8 08             	sub    $0x8,%eax
80103a15:	c7 00 45 39 10 80    	movl   $0x80103945,(%eax)
    *(int**)(code-12) = (void *) v2p(entrypgdir);
80103a1b:	8b 45 f0             	mov    -0x10(%ebp),%eax
80103a1e:	8d 58 f4             	lea    -0xc(%eax),%ebx
80103a21:	83 ec 0c             	sub    $0xc,%esp
80103a24:	68 00 b0 10 80       	push   $0x8010b000
80103a29:	e8 2d fe ff ff       	call   8010385b <v2p>
80103a2e:	83 c4 10             	add    $0x10,%esp
80103a31:	89 03                	mov    %eax,(%ebx)

    lapicstartap(c->id, v2p(code));
80103a33:	83 ec 0c             	sub    $0xc,%esp
80103a36:	ff 75 f0             	pushl  -0x10(%ebp)
80103a39:	e8 1d fe ff ff       	call   8010385b <v2p>
80103a3e:	83 c4 10             	add    $0x10,%esp
80103a41:	89 c2                	mov    %eax,%edx
80103a43:	8b 45 f4             	mov    -0xc(%ebp),%eax
80103a46:	0f b6 00             	movzbl (%eax),%eax
80103a49:	0f b6 c0             	movzbl %al,%eax
80103a4c:	83 ec 08             	sub    $0x8,%esp
80103a4f:	52                   	push   %edx
80103a50:	50                   	push   %eax
80103a51:	e8 f0 f5 ff ff       	call   80103046 <lapicstartap>
80103a56:	83 c4 10             	add    $0x10,%esp

    // wait for cpu to finish mpmain()
    while(c->started == 0)
80103a59:	90                   	nop
80103a5a:	8b 45 f4             	mov    -0xc(%ebp),%eax
80103a5d:	8b 80 a8 00 00 00    	mov    0xa8(%eax),%eax
80103a63:	85 c0                	test   %eax,%eax
80103a65:	74 f3                	je     80103a5a <startothers+0xb5>
80103a67:	eb 01                	jmp    80103a6a <startothers+0xc5>
  code = p2v(0x7000);
  memmove(code, _binary_entryother_start, (uint)_binary_entryother_size);

  for(c = cpus; c < cpus+ncpu; c++){
    if(c == cpus+cpunum())  // We've started already.
      continue;
80103a69:	90                   	nop
  // The linker has placed the image of entryother.S in
  // _binary_entryother_start.
  code = p2v(0x7000);
  memmove(code, _binary_entryother_start, (uint)_binary_entryother_size);

  for(c = cpus; c < cpus+ncpu; c++){
80103a6a:	81 45 f4 bc 00 00 00 	addl   $0xbc,-0xc(%ebp)
80103a71:	a1 60 39 11 80       	mov    0x80113960,%eax
80103a76:	69 c0 bc 00 00 00    	imul   $0xbc,%eax,%eax
80103a7c:	05 80 33 11 80       	add    $0x80113380,%eax
80103a81:	3b 45 f4             	cmp    -0xc(%ebp),%eax
80103a84:	0f 87 57 ff ff ff    	ja     801039e1 <startothers+0x3c>

    // wait for cpu to finish mpmain()
    while(c->started == 0)
      ;
  }
}
80103a8a:	90                   	nop
80103a8b:	8b 5d fc             	mov    -0x4(%ebp),%ebx
80103a8e:	c9                   	leave  
80103a8f:	c3                   	ret    

80103a90 <p2v>:
80103a90:	55                   	push   %ebp
80103a91:	89 e5                	mov    %esp,%ebp
80103a93:	8b 45 08             	mov    0x8(%ebp),%eax
80103a96:	05 00 00 00 80       	add    $0x80000000,%eax
80103a9b:	5d                   	pop    %ebp
80103a9c:	c3                   	ret    

80103a9d <inb>:

// end of CS333 added routines

static inline uchar
inb(ushort port)
{
80103a9d:	55                   	push   %ebp
80103a9e:	89 e5                	mov    %esp,%ebp
80103aa0:	83 ec 14             	sub    $0x14,%esp
80103aa3:	8b 45 08             	mov    0x8(%ebp),%eax
80103aa6:	66 89 45 ec          	mov    %ax,-0x14(%ebp)
  uchar data;

  asm volatile("in %1,%0" : "=a" (data) : "d" (port));
80103aaa:	0f b7 45 ec          	movzwl -0x14(%ebp),%eax
80103aae:	89 c2                	mov    %eax,%edx
80103ab0:	ec                   	in     (%dx),%al
80103ab1:	88 45 ff             	mov    %al,-0x1(%ebp)
  return data;
80103ab4:	0f b6 45 ff          	movzbl -0x1(%ebp),%eax
}
80103ab8:	c9                   	leave  
80103ab9:	c3                   	ret    

80103aba <outb>:
               "memory", "cc");
}

static inline void
outb(ushort port, uchar data)
{
80103aba:	55                   	push   %ebp
80103abb:	89 e5                	mov    %esp,%ebp
80103abd:	83 ec 08             	sub    $0x8,%esp
80103ac0:	8b 55 08             	mov    0x8(%ebp),%edx
80103ac3:	8b 45 0c             	mov    0xc(%ebp),%eax
80103ac6:	66 89 55 fc          	mov    %dx,-0x4(%ebp)
80103aca:	88 45 f8             	mov    %al,-0x8(%ebp)
  asm volatile("out %0,%1" : : "a" (data), "d" (port));
80103acd:	0f b6 45 f8          	movzbl -0x8(%ebp),%eax
80103ad1:	0f b7 55 fc          	movzwl -0x4(%ebp),%edx
80103ad5:	ee                   	out    %al,(%dx)
}
80103ad6:	90                   	nop
80103ad7:	c9                   	leave  
80103ad8:	c3                   	ret    

80103ad9 <mpbcpu>:
int ncpu;
uchar ioapicid;

int
mpbcpu(void)
{
80103ad9:	55                   	push   %ebp
80103ada:	89 e5                	mov    %esp,%ebp
  return bcpu-cpus;
80103adc:	a1 64 c6 10 80       	mov    0x8010c664,%eax
80103ae1:	89 c2                	mov    %eax,%edx
80103ae3:	b8 80 33 11 80       	mov    $0x80113380,%eax
80103ae8:	29 c2                	sub    %eax,%edx
80103aea:	89 d0                	mov    %edx,%eax
80103aec:	c1 f8 02             	sar    $0x2,%eax
80103aef:	69 c0 cf 46 7d 67    	imul   $0x677d46cf,%eax,%eax
}
80103af5:	5d                   	pop    %ebp
80103af6:	c3                   	ret    

80103af7 <sum>:

static uchar
sum(uchar *addr, int len)
{
80103af7:	55                   	push   %ebp
80103af8:	89 e5                	mov    %esp,%ebp
80103afa:	83 ec 10             	sub    $0x10,%esp
  int i, sum;
  
  sum = 0;
80103afd:	c7 45 f8 00 00 00 00 	movl   $0x0,-0x8(%ebp)
  for(i=0; i<len; i++)
80103b04:	c7 45 fc 00 00 00 00 	movl   $0x0,-0x4(%ebp)
80103b0b:	eb 15                	jmp    80103b22 <sum+0x2b>
    sum += addr[i];
80103b0d:	8b 55 fc             	mov    -0x4(%ebp),%edx
80103b10:	8b 45 08             	mov    0x8(%ebp),%eax
80103b13:	01 d0                	add    %edx,%eax
80103b15:	0f b6 00             	movzbl (%eax),%eax
80103b18:	0f b6 c0             	movzbl %al,%eax
80103b1b:	01 45 f8             	add    %eax,-0x8(%ebp)
sum(uchar *addr, int len)
{
  int i, sum;
  
  sum = 0;
  for(i=0; i<len; i++)
80103b1e:	83 45 fc 01          	addl   $0x1,-0x4(%ebp)
80103b22:	8b 45 fc             	mov    -0x4(%ebp),%eax
80103b25:	3b 45 0c             	cmp    0xc(%ebp),%eax
80103b28:	7c e3                	jl     80103b0d <sum+0x16>
    sum += addr[i];
  return sum;
80103b2a:	8b 45 f8             	mov    -0x8(%ebp),%eax
}
80103b2d:	c9                   	leave  
80103b2e:	c3                   	ret    

80103b2f <mpsearch1>:

// Look for an MP structure in the len bytes at addr.
static struct mp*
mpsearch1(uint a, int len)
{
80103b2f:	55                   	push   %ebp
80103b30:	89 e5                	mov    %esp,%ebp
80103b32:	83 ec 18             	sub    $0x18,%esp
  uchar *e, *p, *addr;

  addr = p2v(a);
80103b35:	ff 75 08             	pushl  0x8(%ebp)
80103b38:	e8 53 ff ff ff       	call   80103a90 <p2v>
80103b3d:	83 c4 04             	add    $0x4,%esp
80103b40:	89 45 f0             	mov    %eax,-0x10(%ebp)
  e = addr+len;
80103b43:	8b 55 0c             	mov    0xc(%ebp),%edx
80103b46:	8b 45 f0             	mov    -0x10(%ebp),%eax
80103b49:	01 d0                	add    %edx,%eax
80103b4b:	89 45 ec             	mov    %eax,-0x14(%ebp)
  for(p = addr; p < e; p += sizeof(struct mp))
80103b4e:	8b 45 f0             	mov    -0x10(%ebp),%eax
80103b51:	89 45 f4             	mov    %eax,-0xc(%ebp)
80103b54:	eb 36                	jmp    80103b8c <mpsearch1+0x5d>
    if(memcmp(p, "_MP_", 4) == 0 && sum(p, sizeof(struct mp)) == 0)
80103b56:	83 ec 04             	sub    $0x4,%esp
80103b59:	6a 04                	push   $0x4
80103b5b:	68 14 8d 10 80       	push   $0x80108d14
80103b60:	ff 75 f4             	pushl  -0xc(%ebp)
80103b63:	e8 f8 1a 00 00       	call   80105660 <memcmp>
80103b68:	83 c4 10             	add    $0x10,%esp
80103b6b:	85 c0                	test   %eax,%eax
80103b6d:	75 19                	jne    80103b88 <mpsearch1+0x59>
80103b6f:	83 ec 08             	sub    $0x8,%esp
80103b72:	6a 10                	push   $0x10
80103b74:	ff 75 f4             	pushl  -0xc(%ebp)
80103b77:	e8 7b ff ff ff       	call   80103af7 <sum>
80103b7c:	83 c4 10             	add    $0x10,%esp
80103b7f:	84 c0                	test   %al,%al
80103b81:	75 05                	jne    80103b88 <mpsearch1+0x59>
      return (struct mp*)p;
80103b83:	8b 45 f4             	mov    -0xc(%ebp),%eax
80103b86:	eb 11                	jmp    80103b99 <mpsearch1+0x6a>
{
  uchar *e, *p, *addr;

  addr = p2v(a);
  e = addr+len;
  for(p = addr; p < e; p += sizeof(struct mp))
80103b88:	83 45 f4 10          	addl   $0x10,-0xc(%ebp)
80103b8c:	8b 45 f4             	mov    -0xc(%ebp),%eax
80103b8f:	3b 45 ec             	cmp    -0x14(%ebp),%eax
80103b92:	72 c2                	jb     80103b56 <mpsearch1+0x27>
    if(memcmp(p, "_MP_", 4) == 0 && sum(p, sizeof(struct mp)) == 0)
      return (struct mp*)p;
  return 0;
80103b94:	b8 00 00 00 00       	mov    $0x0,%eax
}
80103b99:	c9                   	leave  
80103b9a:	c3                   	ret    

80103b9b <mpsearch>:
// 1) in the first KB of the EBDA;
// 2) in the last KB of system base memory;
// 3) in the BIOS ROM between 0xE0000 and 0xFFFFF.
static struct mp*
mpsearch(void)
{
80103b9b:	55                   	push   %ebp
80103b9c:	89 e5                	mov    %esp,%ebp
80103b9e:	83 ec 18             	sub    $0x18,%esp
  uchar *bda;
  uint p;
  struct mp *mp;

  bda = (uchar *) P2V(0x400);
80103ba1:	c7 45 f4 00 04 00 80 	movl   $0x80000400,-0xc(%ebp)
  if((p = ((bda[0x0F]<<8)| bda[0x0E]) << 4)){
80103ba8:	8b 45 f4             	mov    -0xc(%ebp),%eax
80103bab:	83 c0 0f             	add    $0xf,%eax
80103bae:	0f b6 00             	movzbl (%eax),%eax
80103bb1:	0f b6 c0             	movzbl %al,%eax
80103bb4:	c1 e0 08             	shl    $0x8,%eax
80103bb7:	89 c2                	mov    %eax,%edx
80103bb9:	8b 45 f4             	mov    -0xc(%ebp),%eax
80103bbc:	83 c0 0e             	add    $0xe,%eax
80103bbf:	0f b6 00             	movzbl (%eax),%eax
80103bc2:	0f b6 c0             	movzbl %al,%eax
80103bc5:	09 d0                	or     %edx,%eax
80103bc7:	c1 e0 04             	shl    $0x4,%eax
80103bca:	89 45 f0             	mov    %eax,-0x10(%ebp)
80103bcd:	83 7d f0 00          	cmpl   $0x0,-0x10(%ebp)
80103bd1:	74 21                	je     80103bf4 <mpsearch+0x59>
    if((mp = mpsearch1(p, 1024)))
80103bd3:	83 ec 08             	sub    $0x8,%esp
80103bd6:	68 00 04 00 00       	push   $0x400
80103bdb:	ff 75 f0             	pushl  -0x10(%ebp)
80103bde:	e8 4c ff ff ff       	call   80103b2f <mpsearch1>
80103be3:	83 c4 10             	add    $0x10,%esp
80103be6:	89 45 ec             	mov    %eax,-0x14(%ebp)
80103be9:	83 7d ec 00          	cmpl   $0x0,-0x14(%ebp)
80103bed:	74 51                	je     80103c40 <mpsearch+0xa5>
      return mp;
80103bef:	8b 45 ec             	mov    -0x14(%ebp),%eax
80103bf2:	eb 61                	jmp    80103c55 <mpsearch+0xba>
  } else {
    p = ((bda[0x14]<<8)|bda[0x13])*1024;
80103bf4:	8b 45 f4             	mov    -0xc(%ebp),%eax
80103bf7:	83 c0 14             	add    $0x14,%eax
80103bfa:	0f b6 00             	movzbl (%eax),%eax
80103bfd:	0f b6 c0             	movzbl %al,%eax
80103c00:	c1 e0 08             	shl    $0x8,%eax
80103c03:	89 c2                	mov    %eax,%edx
80103c05:	8b 45 f4             	mov    -0xc(%ebp),%eax
80103c08:	83 c0 13             	add    $0x13,%eax
80103c0b:	0f b6 00             	movzbl (%eax),%eax
80103c0e:	0f b6 c0             	movzbl %al,%eax
80103c11:	09 d0                	or     %edx,%eax
80103c13:	c1 e0 0a             	shl    $0xa,%eax
80103c16:	89 45 f0             	mov    %eax,-0x10(%ebp)
    if((mp = mpsearch1(p-1024, 1024)))
80103c19:	8b 45 f0             	mov    -0x10(%ebp),%eax
80103c1c:	2d 00 04 00 00       	sub    $0x400,%eax
80103c21:	83 ec 08             	sub    $0x8,%esp
80103c24:	68 00 04 00 00       	push   $0x400
80103c29:	50                   	push   %eax
80103c2a:	e8 00 ff ff ff       	call   80103b2f <mpsearch1>
80103c2f:	83 c4 10             	add    $0x10,%esp
80103c32:	89 45 ec             	mov    %eax,-0x14(%ebp)
80103c35:	83 7d ec 00          	cmpl   $0x0,-0x14(%ebp)
80103c39:	74 05                	je     80103c40 <mpsearch+0xa5>
      return mp;
80103c3b:	8b 45 ec             	mov    -0x14(%ebp),%eax
80103c3e:	eb 15                	jmp    80103c55 <mpsearch+0xba>
  }
  return mpsearch1(0xF0000, 0x10000);
80103c40:	83 ec 08             	sub    $0x8,%esp
80103c43:	68 00 00 01 00       	push   $0x10000
80103c48:	68 00 00 0f 00       	push   $0xf0000
80103c4d:	e8 dd fe ff ff       	call   80103b2f <mpsearch1>
80103c52:	83 c4 10             	add    $0x10,%esp
}
80103c55:	c9                   	leave  
80103c56:	c3                   	ret    

80103c57 <mpconfig>:
// Check for correct signature, calculate the checksum and,
// if correct, check the version.
// To do: check extended table checksum.
static struct mpconf*
mpconfig(struct mp **pmp)
{
80103c57:	55                   	push   %ebp
80103c58:	89 e5                	mov    %esp,%ebp
80103c5a:	83 ec 18             	sub    $0x18,%esp
  struct mpconf *conf;
  struct mp *mp;

  if((mp = mpsearch()) == 0 || mp->physaddr == 0)
80103c5d:	e8 39 ff ff ff       	call   80103b9b <mpsearch>
80103c62:	89 45 f4             	mov    %eax,-0xc(%ebp)
80103c65:	83 7d f4 00          	cmpl   $0x0,-0xc(%ebp)
80103c69:	74 0a                	je     80103c75 <mpconfig+0x1e>
80103c6b:	8b 45 f4             	mov    -0xc(%ebp),%eax
80103c6e:	8b 40 04             	mov    0x4(%eax),%eax
80103c71:	85 c0                	test   %eax,%eax
80103c73:	75 0a                	jne    80103c7f <mpconfig+0x28>
    return 0;
80103c75:	b8 00 00 00 00       	mov    $0x0,%eax
80103c7a:	e9 81 00 00 00       	jmp    80103d00 <mpconfig+0xa9>
  conf = (struct mpconf*) p2v((uint) mp->physaddr);
80103c7f:	8b 45 f4             	mov    -0xc(%ebp),%eax
80103c82:	8b 40 04             	mov    0x4(%eax),%eax
80103c85:	83 ec 0c             	sub    $0xc,%esp
80103c88:	50                   	push   %eax
80103c89:	e8 02 fe ff ff       	call   80103a90 <p2v>
80103c8e:	83 c4 10             	add    $0x10,%esp
80103c91:	89 45 f0             	mov    %eax,-0x10(%ebp)
  if(memcmp(conf, "PCMP", 4) != 0)
80103c94:	83 ec 04             	sub    $0x4,%esp
80103c97:	6a 04                	push   $0x4
80103c99:	68 19 8d 10 80       	push   $0x80108d19
80103c9e:	ff 75 f0             	pushl  -0x10(%ebp)
80103ca1:	e8 ba 19 00 00       	call   80105660 <memcmp>
80103ca6:	83 c4 10             	add    $0x10,%esp
80103ca9:	85 c0                	test   %eax,%eax
80103cab:	74 07                	je     80103cb4 <mpconfig+0x5d>
    return 0;
80103cad:	b8 00 00 00 00       	mov    $0x0,%eax
80103cb2:	eb 4c                	jmp    80103d00 <mpconfig+0xa9>
  if(conf->version != 1 && conf->version != 4)
80103cb4:	8b 45 f0             	mov    -0x10(%ebp),%eax
80103cb7:	0f b6 40 06          	movzbl 0x6(%eax),%eax
80103cbb:	3c 01                	cmp    $0x1,%al
80103cbd:	74 12                	je     80103cd1 <mpconfig+0x7a>
80103cbf:	8b 45 f0             	mov    -0x10(%ebp),%eax
80103cc2:	0f b6 40 06          	movzbl 0x6(%eax),%eax
80103cc6:	3c 04                	cmp    $0x4,%al
80103cc8:	74 07                	je     80103cd1 <mpconfig+0x7a>
    return 0;
80103cca:	b8 00 00 00 00       	mov    $0x0,%eax
80103ccf:	eb 2f                	jmp    80103d00 <mpconfig+0xa9>
  if(sum((uchar*)conf, conf->length) != 0)
80103cd1:	8b 45 f0             	mov    -0x10(%ebp),%eax
80103cd4:	0f b7 40 04          	movzwl 0x4(%eax),%eax
80103cd8:	0f b7 c0             	movzwl %ax,%eax
80103cdb:	83 ec 08             	sub    $0x8,%esp
80103cde:	50                   	push   %eax
80103cdf:	ff 75 f0             	pushl  -0x10(%ebp)
80103ce2:	e8 10 fe ff ff       	call   80103af7 <sum>
80103ce7:	83 c4 10             	add    $0x10,%esp
80103cea:	84 c0                	test   %al,%al
80103cec:	74 07                	je     80103cf5 <mpconfig+0x9e>
    return 0;
80103cee:	b8 00 00 00 00       	mov    $0x0,%eax
80103cf3:	eb 0b                	jmp    80103d00 <mpconfig+0xa9>
  *pmp = mp;
80103cf5:	8b 45 08             	mov    0x8(%ebp),%eax
80103cf8:	8b 55 f4             	mov    -0xc(%ebp),%edx
80103cfb:	89 10                	mov    %edx,(%eax)
  return conf;
80103cfd:	8b 45 f0             	mov    -0x10(%ebp),%eax
}
80103d00:	c9                   	leave  
80103d01:	c3                   	ret    

80103d02 <mpinit>:

void
mpinit(void)
{
80103d02:	55                   	push   %ebp
80103d03:	89 e5                	mov    %esp,%ebp
80103d05:	83 ec 28             	sub    $0x28,%esp
  struct mp *mp;
  struct mpconf *conf;
  struct mpproc *proc;
  struct mpioapic *ioapic;

  bcpu = &cpus[0];
80103d08:	c7 05 64 c6 10 80 80 	movl   $0x80113380,0x8010c664
80103d0f:	33 11 80 
  if((conf = mpconfig(&mp)) == 0)
80103d12:	83 ec 0c             	sub    $0xc,%esp
80103d15:	8d 45 e0             	lea    -0x20(%ebp),%eax
80103d18:	50                   	push   %eax
80103d19:	e8 39 ff ff ff       	call   80103c57 <mpconfig>
80103d1e:	83 c4 10             	add    $0x10,%esp
80103d21:	89 45 f0             	mov    %eax,-0x10(%ebp)
80103d24:	83 7d f0 00          	cmpl   $0x0,-0x10(%ebp)
80103d28:	0f 84 96 01 00 00    	je     80103ec4 <mpinit+0x1c2>
    return;
  ismp = 1;
80103d2e:	c7 05 64 33 11 80 01 	movl   $0x1,0x80113364
80103d35:	00 00 00 
  lapic = (uint*)conf->lapicaddr;
80103d38:	8b 45 f0             	mov    -0x10(%ebp),%eax
80103d3b:	8b 40 24             	mov    0x24(%eax),%eax
80103d3e:	a3 7c 32 11 80       	mov    %eax,0x8011327c
  for(p=(uchar*)(conf+1), e=(uchar*)conf+conf->length; p<e; ){
80103d43:	8b 45 f0             	mov    -0x10(%ebp),%eax
80103d46:	83 c0 2c             	add    $0x2c,%eax
80103d49:	89 45 f4             	mov    %eax,-0xc(%ebp)
80103d4c:	8b 45 f0             	mov    -0x10(%ebp),%eax
80103d4f:	0f b7 40 04          	movzwl 0x4(%eax),%eax
80103d53:	0f b7 d0             	movzwl %ax,%edx
80103d56:	8b 45 f0             	mov    -0x10(%ebp),%eax
80103d59:	01 d0                	add    %edx,%eax
80103d5b:	89 45 ec             	mov    %eax,-0x14(%ebp)
80103d5e:	e9 f2 00 00 00       	jmp    80103e55 <mpinit+0x153>
    switch(*p){
80103d63:	8b 45 f4             	mov    -0xc(%ebp),%eax
80103d66:	0f b6 00             	movzbl (%eax),%eax
80103d69:	0f b6 c0             	movzbl %al,%eax
80103d6c:	83 f8 04             	cmp    $0x4,%eax
80103d6f:	0f 87 bc 00 00 00    	ja     80103e31 <mpinit+0x12f>
80103d75:	8b 04 85 5c 8d 10 80 	mov    -0x7fef72a4(,%eax,4),%eax
80103d7c:	ff e0                	jmp    *%eax
    case MPPROC:
      proc = (struct mpproc*)p;
80103d7e:	8b 45 f4             	mov    -0xc(%ebp),%eax
80103d81:	89 45 e8             	mov    %eax,-0x18(%ebp)
      if(ncpu != proc->apicid){
80103d84:	8b 45 e8             	mov    -0x18(%ebp),%eax
80103d87:	0f b6 40 01          	movzbl 0x1(%eax),%eax
80103d8b:	0f b6 d0             	movzbl %al,%edx
80103d8e:	a1 60 39 11 80       	mov    0x80113960,%eax
80103d93:	39 c2                	cmp    %eax,%edx
80103d95:	74 2b                	je     80103dc2 <mpinit+0xc0>
        cprintf("mpinit: ncpu=%d apicid=%d\n", ncpu, proc->apicid);
80103d97:	8b 45 e8             	mov    -0x18(%ebp),%eax
80103d9a:	0f b6 40 01          	movzbl 0x1(%eax),%eax
80103d9e:	0f b6 d0             	movzbl %al,%edx
80103da1:	a1 60 39 11 80       	mov    0x80113960,%eax
80103da6:	83 ec 04             	sub    $0x4,%esp
80103da9:	52                   	push   %edx
80103daa:	50                   	push   %eax
80103dab:	68 1e 8d 10 80       	push   $0x80108d1e
80103db0:	e8 11 c6 ff ff       	call   801003c6 <cprintf>
80103db5:	83 c4 10             	add    $0x10,%esp
        ismp = 0;
80103db8:	c7 05 64 33 11 80 00 	movl   $0x0,0x80113364
80103dbf:	00 00 00 
      }
      if(proc->flags & MPBOOT)
80103dc2:	8b 45 e8             	mov    -0x18(%ebp),%eax
80103dc5:	0f b6 40 03          	movzbl 0x3(%eax),%eax
80103dc9:	0f b6 c0             	movzbl %al,%eax
80103dcc:	83 e0 02             	and    $0x2,%eax
80103dcf:	85 c0                	test   %eax,%eax
80103dd1:	74 15                	je     80103de8 <mpinit+0xe6>
        bcpu = &cpus[ncpu];
80103dd3:	a1 60 39 11 80       	mov    0x80113960,%eax
80103dd8:	69 c0 bc 00 00 00    	imul   $0xbc,%eax,%eax
80103dde:	05 80 33 11 80       	add    $0x80113380,%eax
80103de3:	a3 64 c6 10 80       	mov    %eax,0x8010c664
      cpus[ncpu].id = ncpu;
80103de8:	a1 60 39 11 80       	mov    0x80113960,%eax
80103ded:	8b 15 60 39 11 80    	mov    0x80113960,%edx
80103df3:	69 c0 bc 00 00 00    	imul   $0xbc,%eax,%eax
80103df9:	05 80 33 11 80       	add    $0x80113380,%eax
80103dfe:	88 10                	mov    %dl,(%eax)
      ncpu++;
80103e00:	a1 60 39 11 80       	mov    0x80113960,%eax
80103e05:	83 c0 01             	add    $0x1,%eax
80103e08:	a3 60 39 11 80       	mov    %eax,0x80113960
      p += sizeof(struct mpproc);
80103e0d:	83 45 f4 14          	addl   $0x14,-0xc(%ebp)
      continue;
80103e11:	eb 42                	jmp    80103e55 <mpinit+0x153>
    case MPIOAPIC:
      ioapic = (struct mpioapic*)p;
80103e13:	8b 45 f4             	mov    -0xc(%ebp),%eax
80103e16:	89 45 e4             	mov    %eax,-0x1c(%ebp)
      ioapicid = ioapic->apicno;
80103e19:	8b 45 e4             	mov    -0x1c(%ebp),%eax
80103e1c:	0f b6 40 01          	movzbl 0x1(%eax),%eax
80103e20:	a2 60 33 11 80       	mov    %al,0x80113360
      p += sizeof(struct mpioapic);
80103e25:	83 45 f4 08          	addl   $0x8,-0xc(%ebp)
      continue;
80103e29:	eb 2a                	jmp    80103e55 <mpinit+0x153>
    case MPBUS:
    case MPIOINTR:
    case MPLINTR:
      p += 8;
80103e2b:	83 45 f4 08          	addl   $0x8,-0xc(%ebp)
      continue;
80103e2f:	eb 24                	jmp    80103e55 <mpinit+0x153>
    default:
      cprintf("mpinit: unknown config type %x\n", *p);
80103e31:	8b 45 f4             	mov    -0xc(%ebp),%eax
80103e34:	0f b6 00             	movzbl (%eax),%eax
80103e37:	0f b6 c0             	movzbl %al,%eax
80103e3a:	83 ec 08             	sub    $0x8,%esp
80103e3d:	50                   	push   %eax
80103e3e:	68 3c 8d 10 80       	push   $0x80108d3c
80103e43:	e8 7e c5 ff ff       	call   801003c6 <cprintf>
80103e48:	83 c4 10             	add    $0x10,%esp
      ismp = 0;
80103e4b:	c7 05 64 33 11 80 00 	movl   $0x0,0x80113364
80103e52:	00 00 00 
  bcpu = &cpus[0];
  if((conf = mpconfig(&mp)) == 0)
    return;
  ismp = 1;
  lapic = (uint*)conf->lapicaddr;
  for(p=(uchar*)(conf+1), e=(uchar*)conf+conf->length; p<e; ){
80103e55:	8b 45 f4             	mov    -0xc(%ebp),%eax
80103e58:	3b 45 ec             	cmp    -0x14(%ebp),%eax
80103e5b:	0f 82 02 ff ff ff    	jb     80103d63 <mpinit+0x61>
    default:
      cprintf("mpinit: unknown config type %x\n", *p);
      ismp = 0;
    }
  }
  if(!ismp){
80103e61:	a1 64 33 11 80       	mov    0x80113364,%eax
80103e66:	85 c0                	test   %eax,%eax
80103e68:	75 1d                	jne    80103e87 <mpinit+0x185>
    // Didn't like what we found; fall back to no MP.
    ncpu = 1;
80103e6a:	c7 05 60 39 11 80 01 	movl   $0x1,0x80113960
80103e71:	00 00 00 
    lapic = 0;
80103e74:	c7 05 7c 32 11 80 00 	movl   $0x0,0x8011327c
80103e7b:	00 00 00 
    ioapicid = 0;
80103e7e:	c6 05 60 33 11 80 00 	movb   $0x0,0x80113360
    return;
80103e85:	eb 3e                	jmp    80103ec5 <mpinit+0x1c3>
  }

  if(mp->imcrp){
80103e87:	8b 45 e0             	mov    -0x20(%ebp),%eax
80103e8a:	0f b6 40 0c          	movzbl 0xc(%eax),%eax
80103e8e:	84 c0                	test   %al,%al
80103e90:	74 33                	je     80103ec5 <mpinit+0x1c3>
    // Bochs doesn't support IMCR, so this doesn't run on Bochs.
    // But it would on real hardware.
    outb(0x22, 0x70);   // Select IMCR
80103e92:	83 ec 08             	sub    $0x8,%esp
80103e95:	6a 70                	push   $0x70
80103e97:	6a 22                	push   $0x22
80103e99:	e8 1c fc ff ff       	call   80103aba <outb>
80103e9e:	83 c4 10             	add    $0x10,%esp
    outb(0x23, inb(0x23) | 1);  // Mask external interrupts.
80103ea1:	83 ec 0c             	sub    $0xc,%esp
80103ea4:	6a 23                	push   $0x23
80103ea6:	e8 f2 fb ff ff       	call   80103a9d <inb>
80103eab:	83 c4 10             	add    $0x10,%esp
80103eae:	83 c8 01             	or     $0x1,%eax
80103eb1:	0f b6 c0             	movzbl %al,%eax
80103eb4:	83 ec 08             	sub    $0x8,%esp
80103eb7:	50                   	push   %eax
80103eb8:	6a 23                	push   $0x23
80103eba:	e8 fb fb ff ff       	call   80103aba <outb>
80103ebf:	83 c4 10             	add    $0x10,%esp
80103ec2:	eb 01                	jmp    80103ec5 <mpinit+0x1c3>
  struct mpproc *proc;
  struct mpioapic *ioapic;

  bcpu = &cpus[0];
  if((conf = mpconfig(&mp)) == 0)
    return;
80103ec4:	90                   	nop
    // Bochs doesn't support IMCR, so this doesn't run on Bochs.
    // But it would on real hardware.
    outb(0x22, 0x70);   // Select IMCR
    outb(0x23, inb(0x23) | 1);  // Mask external interrupts.
  }
}
80103ec5:	c9                   	leave  
80103ec6:	c3                   	ret    

80103ec7 <outb>:
               "memory", "cc");
}

static inline void
outb(ushort port, uchar data)
{
80103ec7:	55                   	push   %ebp
80103ec8:	89 e5                	mov    %esp,%ebp
80103eca:	83 ec 08             	sub    $0x8,%esp
80103ecd:	8b 55 08             	mov    0x8(%ebp),%edx
80103ed0:	8b 45 0c             	mov    0xc(%ebp),%eax
80103ed3:	66 89 55 fc          	mov    %dx,-0x4(%ebp)
80103ed7:	88 45 f8             	mov    %al,-0x8(%ebp)
  asm volatile("out %0,%1" : : "a" (data), "d" (port));
80103eda:	0f b6 45 f8          	movzbl -0x8(%ebp),%eax
80103ede:	0f b7 55 fc          	movzwl -0x4(%ebp),%edx
80103ee2:	ee                   	out    %al,(%dx)
}
80103ee3:	90                   	nop
80103ee4:	c9                   	leave  
80103ee5:	c3                   	ret    

80103ee6 <picsetmask>:
// Initial IRQ mask has interrupt 2 enabled (for slave 8259A).
static ushort irqmask = 0xFFFF & ~(1<<IRQ_SLAVE);

static void
picsetmask(ushort mask)
{
80103ee6:	55                   	push   %ebp
80103ee7:	89 e5                	mov    %esp,%ebp
80103ee9:	83 ec 04             	sub    $0x4,%esp
80103eec:	8b 45 08             	mov    0x8(%ebp),%eax
80103eef:	66 89 45 fc          	mov    %ax,-0x4(%ebp)
  irqmask = mask;
80103ef3:	0f b7 45 fc          	movzwl -0x4(%ebp),%eax
80103ef7:	66 a3 00 c0 10 80    	mov    %ax,0x8010c000
  outb(IO_PIC1+1, mask);
80103efd:	0f b7 45 fc          	movzwl -0x4(%ebp),%eax
80103f01:	0f b6 c0             	movzbl %al,%eax
80103f04:	50                   	push   %eax
80103f05:	6a 21                	push   $0x21
80103f07:	e8 bb ff ff ff       	call   80103ec7 <outb>
80103f0c:	83 c4 08             	add    $0x8,%esp
  outb(IO_PIC2+1, mask >> 8);
80103f0f:	0f b7 45 fc          	movzwl -0x4(%ebp),%eax
80103f13:	66 c1 e8 08          	shr    $0x8,%ax
80103f17:	0f b6 c0             	movzbl %al,%eax
80103f1a:	50                   	push   %eax
80103f1b:	68 a1 00 00 00       	push   $0xa1
80103f20:	e8 a2 ff ff ff       	call   80103ec7 <outb>
80103f25:	83 c4 08             	add    $0x8,%esp
}
80103f28:	90                   	nop
80103f29:	c9                   	leave  
80103f2a:	c3                   	ret    

80103f2b <picenable>:

void
picenable(int irq)
{
80103f2b:	55                   	push   %ebp
80103f2c:	89 e5                	mov    %esp,%ebp
  picsetmask(irqmask & ~(1<<irq));
80103f2e:	8b 45 08             	mov    0x8(%ebp),%eax
80103f31:	ba 01 00 00 00       	mov    $0x1,%edx
80103f36:	89 c1                	mov    %eax,%ecx
80103f38:	d3 e2                	shl    %cl,%edx
80103f3a:	89 d0                	mov    %edx,%eax
80103f3c:	f7 d0                	not    %eax
80103f3e:	89 c2                	mov    %eax,%edx
80103f40:	0f b7 05 00 c0 10 80 	movzwl 0x8010c000,%eax
80103f47:	21 d0                	and    %edx,%eax
80103f49:	0f b7 c0             	movzwl %ax,%eax
80103f4c:	50                   	push   %eax
80103f4d:	e8 94 ff ff ff       	call   80103ee6 <picsetmask>
80103f52:	83 c4 04             	add    $0x4,%esp
}
80103f55:	90                   	nop
80103f56:	c9                   	leave  
80103f57:	c3                   	ret    

80103f58 <picinit>:

// Initialize the 8259A interrupt controllers.
void
picinit(void)
{
80103f58:	55                   	push   %ebp
80103f59:	89 e5                	mov    %esp,%ebp
  // mask all interrupts
  outb(IO_PIC1+1, 0xFF);
80103f5b:	68 ff 00 00 00       	push   $0xff
80103f60:	6a 21                	push   $0x21
80103f62:	e8 60 ff ff ff       	call   80103ec7 <outb>
80103f67:	83 c4 08             	add    $0x8,%esp
  outb(IO_PIC2+1, 0xFF);
80103f6a:	68 ff 00 00 00       	push   $0xff
80103f6f:	68 a1 00 00 00       	push   $0xa1
80103f74:	e8 4e ff ff ff       	call   80103ec7 <outb>
80103f79:	83 c4 08             	add    $0x8,%esp

  // ICW1:  0001g0hi
  //    g:  0 = edge triggering, 1 = level triggering
  //    h:  0 = cascaded PICs, 1 = master only
  //    i:  0 = no ICW4, 1 = ICW4 required
  outb(IO_PIC1, 0x11);
80103f7c:	6a 11                	push   $0x11
80103f7e:	6a 20                	push   $0x20
80103f80:	e8 42 ff ff ff       	call   80103ec7 <outb>
80103f85:	83 c4 08             	add    $0x8,%esp

  // ICW2:  Vector offset
  outb(IO_PIC1+1, T_IRQ0);
80103f88:	6a 20                	push   $0x20
80103f8a:	6a 21                	push   $0x21
80103f8c:	e8 36 ff ff ff       	call   80103ec7 <outb>
80103f91:	83 c4 08             	add    $0x8,%esp

  // ICW3:  (master PIC) bit mask of IR lines connected to slaves
  //        (slave PIC) 3-bit # of slave's connection to master
  outb(IO_PIC1+1, 1<<IRQ_SLAVE);
80103f94:	6a 04                	push   $0x4
80103f96:	6a 21                	push   $0x21
80103f98:	e8 2a ff ff ff       	call   80103ec7 <outb>
80103f9d:	83 c4 08             	add    $0x8,%esp
  //    m:  0 = slave PIC, 1 = master PIC
  //      (ignored when b is 0, as the master/slave role
  //      can be hardwired).
  //    a:  1 = Automatic EOI mode
  //    p:  0 = MCS-80/85 mode, 1 = intel x86 mode
  outb(IO_PIC1+1, 0x3);
80103fa0:	6a 03                	push   $0x3
80103fa2:	6a 21                	push   $0x21
80103fa4:	e8 1e ff ff ff       	call   80103ec7 <outb>
80103fa9:	83 c4 08             	add    $0x8,%esp

  // Set up slave (8259A-2)
  outb(IO_PIC2, 0x11);                  // ICW1
80103fac:	6a 11                	push   $0x11
80103fae:	68 a0 00 00 00       	push   $0xa0
80103fb3:	e8 0f ff ff ff       	call   80103ec7 <outb>
80103fb8:	83 c4 08             	add    $0x8,%esp
  outb(IO_PIC2+1, T_IRQ0 + 8);      // ICW2
80103fbb:	6a 28                	push   $0x28
80103fbd:	68 a1 00 00 00       	push   $0xa1
80103fc2:	e8 00 ff ff ff       	call   80103ec7 <outb>
80103fc7:	83 c4 08             	add    $0x8,%esp
  outb(IO_PIC2+1, IRQ_SLAVE);           // ICW3
80103fca:	6a 02                	push   $0x2
80103fcc:	68 a1 00 00 00       	push   $0xa1
80103fd1:	e8 f1 fe ff ff       	call   80103ec7 <outb>
80103fd6:	83 c4 08             	add    $0x8,%esp
  // NB Automatic EOI mode doesn't tend to work on the slave.
  // Linux source code says it's "to be investigated".
  outb(IO_PIC2+1, 0x3);                 // ICW4
80103fd9:	6a 03                	push   $0x3
80103fdb:	68 a1 00 00 00       	push   $0xa1
80103fe0:	e8 e2 fe ff ff       	call   80103ec7 <outb>
80103fe5:	83 c4 08             	add    $0x8,%esp

  // OCW3:  0ef01prs
  //   ef:  0x = NOP, 10 = clear specific mask, 11 = set specific mask
  //    p:  0 = no polling, 1 = polling mode
  //   rs:  0x = NOP, 10 = read IRR, 11 = read ISR
  outb(IO_PIC1, 0x68);             // clear specific mask
80103fe8:	6a 68                	push   $0x68
80103fea:	6a 20                	push   $0x20
80103fec:	e8 d6 fe ff ff       	call   80103ec7 <outb>
80103ff1:	83 c4 08             	add    $0x8,%esp
  outb(IO_PIC1, 0x0a);             // read IRR by default
80103ff4:	6a 0a                	push   $0xa
80103ff6:	6a 20                	push   $0x20
80103ff8:	e8 ca fe ff ff       	call   80103ec7 <outb>
80103ffd:	83 c4 08             	add    $0x8,%esp

  outb(IO_PIC2, 0x68);             // OCW3
80104000:	6a 68                	push   $0x68
80104002:	68 a0 00 00 00       	push   $0xa0
80104007:	e8 bb fe ff ff       	call   80103ec7 <outb>
8010400c:	83 c4 08             	add    $0x8,%esp
  outb(IO_PIC2, 0x0a);             // OCW3
8010400f:	6a 0a                	push   $0xa
80104011:	68 a0 00 00 00       	push   $0xa0
80104016:	e8 ac fe ff ff       	call   80103ec7 <outb>
8010401b:	83 c4 08             	add    $0x8,%esp

  if(irqmask != 0xFFFF)
8010401e:	0f b7 05 00 c0 10 80 	movzwl 0x8010c000,%eax
80104025:	66 83 f8 ff          	cmp    $0xffff,%ax
80104029:	74 13                	je     8010403e <picinit+0xe6>
    picsetmask(irqmask);
8010402b:	0f b7 05 00 c0 10 80 	movzwl 0x8010c000,%eax
80104032:	0f b7 c0             	movzwl %ax,%eax
80104035:	50                   	push   %eax
80104036:	e8 ab fe ff ff       	call   80103ee6 <picsetmask>
8010403b:	83 c4 04             	add    $0x4,%esp
}
8010403e:	90                   	nop
8010403f:	c9                   	leave  
80104040:	c3                   	ret    

80104041 <pipealloc>:
  int writeopen;  // write fd is still open
};

int
pipealloc(struct file **f0, struct file **f1)
{
80104041:	55                   	push   %ebp
80104042:	89 e5                	mov    %esp,%ebp
80104044:	83 ec 18             	sub    $0x18,%esp
  struct pipe *p;

  p = 0;
80104047:	c7 45 f4 00 00 00 00 	movl   $0x0,-0xc(%ebp)
  *f0 = *f1 = 0;
8010404e:	8b 45 0c             	mov    0xc(%ebp),%eax
80104051:	c7 00 00 00 00 00    	movl   $0x0,(%eax)
80104057:	8b 45 0c             	mov    0xc(%ebp),%eax
8010405a:	8b 10                	mov    (%eax),%edx
8010405c:	8b 45 08             	mov    0x8(%ebp),%eax
8010405f:	89 10                	mov    %edx,(%eax)
  if((*f0 = filealloc()) == 0 || (*f1 = filealloc()) == 0)
80104061:	e8 2d cf ff ff       	call   80100f93 <filealloc>
80104066:	89 c2                	mov    %eax,%edx
80104068:	8b 45 08             	mov    0x8(%ebp),%eax
8010406b:	89 10                	mov    %edx,(%eax)
8010406d:	8b 45 08             	mov    0x8(%ebp),%eax
80104070:	8b 00                	mov    (%eax),%eax
80104072:	85 c0                	test   %eax,%eax
80104074:	0f 84 cb 00 00 00    	je     80104145 <pipealloc+0x104>
8010407a:	e8 14 cf ff ff       	call   80100f93 <filealloc>
8010407f:	89 c2                	mov    %eax,%edx
80104081:	8b 45 0c             	mov    0xc(%ebp),%eax
80104084:	89 10                	mov    %edx,(%eax)
80104086:	8b 45 0c             	mov    0xc(%ebp),%eax
80104089:	8b 00                	mov    (%eax),%eax
8010408b:	85 c0                	test   %eax,%eax
8010408d:	0f 84 b2 00 00 00    	je     80104145 <pipealloc+0x104>
    goto bad;
  if((p = (struct pipe*)kalloc()) == 0)
80104093:	e8 ce eb ff ff       	call   80102c66 <kalloc>
80104098:	89 45 f4             	mov    %eax,-0xc(%ebp)
8010409b:	83 7d f4 00          	cmpl   $0x0,-0xc(%ebp)
8010409f:	0f 84 9f 00 00 00    	je     80104144 <pipealloc+0x103>
    goto bad;
  p->readopen = 1;
801040a5:	8b 45 f4             	mov    -0xc(%ebp),%eax
801040a8:	c7 80 3c 02 00 00 01 	movl   $0x1,0x23c(%eax)
801040af:	00 00 00 
  p->writeopen = 1;
801040b2:	8b 45 f4             	mov    -0xc(%ebp),%eax
801040b5:	c7 80 40 02 00 00 01 	movl   $0x1,0x240(%eax)
801040bc:	00 00 00 
  p->nwrite = 0;
801040bf:	8b 45 f4             	mov    -0xc(%ebp),%eax
801040c2:	c7 80 38 02 00 00 00 	movl   $0x0,0x238(%eax)
801040c9:	00 00 00 
  p->nread = 0;
801040cc:	8b 45 f4             	mov    -0xc(%ebp),%eax
801040cf:	c7 80 34 02 00 00 00 	movl   $0x0,0x234(%eax)
801040d6:	00 00 00 
  initlock(&p->lock, "pipe");
801040d9:	8b 45 f4             	mov    -0xc(%ebp),%eax
801040dc:	83 ec 08             	sub    $0x8,%esp
801040df:	68 70 8d 10 80       	push   $0x80108d70
801040e4:	50                   	push   %eax
801040e5:	e8 8a 12 00 00       	call   80105374 <initlock>
801040ea:	83 c4 10             	add    $0x10,%esp
  (*f0)->type = FD_PIPE;
801040ed:	8b 45 08             	mov    0x8(%ebp),%eax
801040f0:	8b 00                	mov    (%eax),%eax
801040f2:	c7 00 01 00 00 00    	movl   $0x1,(%eax)
  (*f0)->readable = 1;
801040f8:	8b 45 08             	mov    0x8(%ebp),%eax
801040fb:	8b 00                	mov    (%eax),%eax
801040fd:	c6 40 08 01          	movb   $0x1,0x8(%eax)
  (*f0)->writable = 0;
80104101:	8b 45 08             	mov    0x8(%ebp),%eax
80104104:	8b 00                	mov    (%eax),%eax
80104106:	c6 40 09 00          	movb   $0x0,0x9(%eax)
  (*f0)->pipe = p;
8010410a:	8b 45 08             	mov    0x8(%ebp),%eax
8010410d:	8b 00                	mov    (%eax),%eax
8010410f:	8b 55 f4             	mov    -0xc(%ebp),%edx
80104112:	89 50 0c             	mov    %edx,0xc(%eax)
  (*f1)->type = FD_PIPE;
80104115:	8b 45 0c             	mov    0xc(%ebp),%eax
80104118:	8b 00                	mov    (%eax),%eax
8010411a:	c7 00 01 00 00 00    	movl   $0x1,(%eax)
  (*f1)->readable = 0;
80104120:	8b 45 0c             	mov    0xc(%ebp),%eax
80104123:	8b 00                	mov    (%eax),%eax
80104125:	c6 40 08 00          	movb   $0x0,0x8(%eax)
  (*f1)->writable = 1;
80104129:	8b 45 0c             	mov    0xc(%ebp),%eax
8010412c:	8b 00                	mov    (%eax),%eax
8010412e:	c6 40 09 01          	movb   $0x1,0x9(%eax)
  (*f1)->pipe = p;
80104132:	8b 45 0c             	mov    0xc(%ebp),%eax
80104135:	8b 00                	mov    (%eax),%eax
80104137:	8b 55 f4             	mov    -0xc(%ebp),%edx
8010413a:	89 50 0c             	mov    %edx,0xc(%eax)
  return 0;
8010413d:	b8 00 00 00 00       	mov    $0x0,%eax
80104142:	eb 4e                	jmp    80104192 <pipealloc+0x151>
  p = 0;
  *f0 = *f1 = 0;
  if((*f0 = filealloc()) == 0 || (*f1 = filealloc()) == 0)
    goto bad;
  if((p = (struct pipe*)kalloc()) == 0)
    goto bad;
80104144:	90                   	nop
  (*f1)->pipe = p;
  return 0;

//PAGEBREAK: 20
 bad:
  if(p)
80104145:	83 7d f4 00          	cmpl   $0x0,-0xc(%ebp)
80104149:	74 0e                	je     80104159 <pipealloc+0x118>
    kfree((char*)p);
8010414b:	83 ec 0c             	sub    $0xc,%esp
8010414e:	ff 75 f4             	pushl  -0xc(%ebp)
80104151:	e8 73 ea ff ff       	call   80102bc9 <kfree>
80104156:	83 c4 10             	add    $0x10,%esp
  if(*f0)
80104159:	8b 45 08             	mov    0x8(%ebp),%eax
8010415c:	8b 00                	mov    (%eax),%eax
8010415e:	85 c0                	test   %eax,%eax
80104160:	74 11                	je     80104173 <pipealloc+0x132>
    fileclose(*f0);
80104162:	8b 45 08             	mov    0x8(%ebp),%eax
80104165:	8b 00                	mov    (%eax),%eax
80104167:	83 ec 0c             	sub    $0xc,%esp
8010416a:	50                   	push   %eax
8010416b:	e8 e1 ce ff ff       	call   80101051 <fileclose>
80104170:	83 c4 10             	add    $0x10,%esp
  if(*f1)
80104173:	8b 45 0c             	mov    0xc(%ebp),%eax
80104176:	8b 00                	mov    (%eax),%eax
80104178:	85 c0                	test   %eax,%eax
8010417a:	74 11                	je     8010418d <pipealloc+0x14c>
    fileclose(*f1);
8010417c:	8b 45 0c             	mov    0xc(%ebp),%eax
8010417f:	8b 00                	mov    (%eax),%eax
80104181:	83 ec 0c             	sub    $0xc,%esp
80104184:	50                   	push   %eax
80104185:	e8 c7 ce ff ff       	call   80101051 <fileclose>
8010418a:	83 c4 10             	add    $0x10,%esp
  return -1;
8010418d:	b8 ff ff ff ff       	mov    $0xffffffff,%eax
}
80104192:	c9                   	leave  
80104193:	c3                   	ret    

80104194 <pipeclose>:

void
pipeclose(struct pipe *p, int writable)
{
80104194:	55                   	push   %ebp
80104195:	89 e5                	mov    %esp,%ebp
80104197:	83 ec 08             	sub    $0x8,%esp
  acquire(&p->lock);
8010419a:	8b 45 08             	mov    0x8(%ebp),%eax
8010419d:	83 ec 0c             	sub    $0xc,%esp
801041a0:	50                   	push   %eax
801041a1:	e8 f0 11 00 00       	call   80105396 <acquire>
801041a6:	83 c4 10             	add    $0x10,%esp
  if(writable){
801041a9:	83 7d 0c 00          	cmpl   $0x0,0xc(%ebp)
801041ad:	74 23                	je     801041d2 <pipeclose+0x3e>
    p->writeopen = 0;
801041af:	8b 45 08             	mov    0x8(%ebp),%eax
801041b2:	c7 80 40 02 00 00 00 	movl   $0x0,0x240(%eax)
801041b9:	00 00 00 
    wakeup(&p->nread);
801041bc:	8b 45 08             	mov    0x8(%ebp),%eax
801041bf:	05 34 02 00 00       	add    $0x234,%eax
801041c4:	83 ec 0c             	sub    $0xc,%esp
801041c7:	50                   	push   %eax
801041c8:	e8 16 0d 00 00       	call   80104ee3 <wakeup>
801041cd:	83 c4 10             	add    $0x10,%esp
801041d0:	eb 21                	jmp    801041f3 <pipeclose+0x5f>
  } else {
    p->readopen = 0;
801041d2:	8b 45 08             	mov    0x8(%ebp),%eax
801041d5:	c7 80 3c 02 00 00 00 	movl   $0x0,0x23c(%eax)
801041dc:	00 00 00 
    wakeup(&p->nwrite);
801041df:	8b 45 08             	mov    0x8(%ebp),%eax
801041e2:	05 38 02 00 00       	add    $0x238,%eax
801041e7:	83 ec 0c             	sub    $0xc,%esp
801041ea:	50                   	push   %eax
801041eb:	e8 f3 0c 00 00       	call   80104ee3 <wakeup>
801041f0:	83 c4 10             	add    $0x10,%esp
  }
  if(p->readopen == 0 && p->writeopen == 0){
801041f3:	8b 45 08             	mov    0x8(%ebp),%eax
801041f6:	8b 80 3c 02 00 00    	mov    0x23c(%eax),%eax
801041fc:	85 c0                	test   %eax,%eax
801041fe:	75 2c                	jne    8010422c <pipeclose+0x98>
80104200:	8b 45 08             	mov    0x8(%ebp),%eax
80104203:	8b 80 40 02 00 00    	mov    0x240(%eax),%eax
80104209:	85 c0                	test   %eax,%eax
8010420b:	75 1f                	jne    8010422c <pipeclose+0x98>
    release(&p->lock);
8010420d:	8b 45 08             	mov    0x8(%ebp),%eax
80104210:	83 ec 0c             	sub    $0xc,%esp
80104213:	50                   	push   %eax
80104214:	e8 e4 11 00 00       	call   801053fd <release>
80104219:	83 c4 10             	add    $0x10,%esp
    kfree((char*)p);
8010421c:	83 ec 0c             	sub    $0xc,%esp
8010421f:	ff 75 08             	pushl  0x8(%ebp)
80104222:	e8 a2 e9 ff ff       	call   80102bc9 <kfree>
80104227:	83 c4 10             	add    $0x10,%esp
8010422a:	eb 0f                	jmp    8010423b <pipeclose+0xa7>
  } else
    release(&p->lock);
8010422c:	8b 45 08             	mov    0x8(%ebp),%eax
8010422f:	83 ec 0c             	sub    $0xc,%esp
80104232:	50                   	push   %eax
80104233:	e8 c5 11 00 00       	call   801053fd <release>
80104238:	83 c4 10             	add    $0x10,%esp
}
8010423b:	90                   	nop
8010423c:	c9                   	leave  
8010423d:	c3                   	ret    

8010423e <pipewrite>:

//PAGEBREAK: 40
int
pipewrite(struct pipe *p, char *addr, int n)
{
8010423e:	55                   	push   %ebp
8010423f:	89 e5                	mov    %esp,%ebp
80104241:	83 ec 18             	sub    $0x18,%esp
  int i;

  acquire(&p->lock);
80104244:	8b 45 08             	mov    0x8(%ebp),%eax
80104247:	83 ec 0c             	sub    $0xc,%esp
8010424a:	50                   	push   %eax
8010424b:	e8 46 11 00 00       	call   80105396 <acquire>
80104250:	83 c4 10             	add    $0x10,%esp
  for(i = 0; i < n; i++){
80104253:	c7 45 f4 00 00 00 00 	movl   $0x0,-0xc(%ebp)
8010425a:	e9 ad 00 00 00       	jmp    8010430c <pipewrite+0xce>
    while(p->nwrite == p->nread + PIPESIZE){  //DOC: pipewrite-full
      if(p->readopen == 0 || proc->killed){
8010425f:	8b 45 08             	mov    0x8(%ebp),%eax
80104262:	8b 80 3c 02 00 00    	mov    0x23c(%eax),%eax
80104268:	85 c0                	test   %eax,%eax
8010426a:	74 0d                	je     80104279 <pipewrite+0x3b>
8010426c:	65 a1 04 00 00 00    	mov    %gs:0x4,%eax
80104272:	8b 40 24             	mov    0x24(%eax),%eax
80104275:	85 c0                	test   %eax,%eax
80104277:	74 19                	je     80104292 <pipewrite+0x54>
        release(&p->lock);
80104279:	8b 45 08             	mov    0x8(%ebp),%eax
8010427c:	83 ec 0c             	sub    $0xc,%esp
8010427f:	50                   	push   %eax
80104280:	e8 78 11 00 00       	call   801053fd <release>
80104285:	83 c4 10             	add    $0x10,%esp
        return -1;
80104288:	b8 ff ff ff ff       	mov    $0xffffffff,%eax
8010428d:	e9 a8 00 00 00       	jmp    8010433a <pipewrite+0xfc>
      }
      wakeup(&p->nread);
80104292:	8b 45 08             	mov    0x8(%ebp),%eax
80104295:	05 34 02 00 00       	add    $0x234,%eax
8010429a:	83 ec 0c             	sub    $0xc,%esp
8010429d:	50                   	push   %eax
8010429e:	e8 40 0c 00 00       	call   80104ee3 <wakeup>
801042a3:	83 c4 10             	add    $0x10,%esp
      sleep(&p->nwrite, &p->lock);  //DOC: pipewrite-sleep
801042a6:	8b 45 08             	mov    0x8(%ebp),%eax
801042a9:	8b 55 08             	mov    0x8(%ebp),%edx
801042ac:	81 c2 38 02 00 00    	add    $0x238,%edx
801042b2:	83 ec 08             	sub    $0x8,%esp
801042b5:	50                   	push   %eax
801042b6:	52                   	push   %edx
801042b7:	e8 40 0b 00 00       	call   80104dfc <sleep>
801042bc:	83 c4 10             	add    $0x10,%esp
{
  int i;

  acquire(&p->lock);
  for(i = 0; i < n; i++){
    while(p->nwrite == p->nread + PIPESIZE){  //DOC: pipewrite-full
801042bf:	8b 45 08             	mov    0x8(%ebp),%eax
801042c2:	8b 90 38 02 00 00    	mov    0x238(%eax),%edx
801042c8:	8b 45 08             	mov    0x8(%ebp),%eax
801042cb:	8b 80 34 02 00 00    	mov    0x234(%eax),%eax
801042d1:	05 00 02 00 00       	add    $0x200,%eax
801042d6:	39 c2                	cmp    %eax,%edx
801042d8:	74 85                	je     8010425f <pipewrite+0x21>
        return -1;
      }
      wakeup(&p->nread);
      sleep(&p->nwrite, &p->lock);  //DOC: pipewrite-sleep
    }
    p->data[p->nwrite++ % PIPESIZE] = addr[i];
801042da:	8b 45 08             	mov    0x8(%ebp),%eax
801042dd:	8b 80 38 02 00 00    	mov    0x238(%eax),%eax
801042e3:	8d 48 01             	lea    0x1(%eax),%ecx
801042e6:	8b 55 08             	mov    0x8(%ebp),%edx
801042e9:	89 8a 38 02 00 00    	mov    %ecx,0x238(%edx)
801042ef:	25 ff 01 00 00       	and    $0x1ff,%eax
801042f4:	89 c1                	mov    %eax,%ecx
801042f6:	8b 55 f4             	mov    -0xc(%ebp),%edx
801042f9:	8b 45 0c             	mov    0xc(%ebp),%eax
801042fc:	01 d0                	add    %edx,%eax
801042fe:	0f b6 10             	movzbl (%eax),%edx
80104301:	8b 45 08             	mov    0x8(%ebp),%eax
80104304:	88 54 08 34          	mov    %dl,0x34(%eax,%ecx,1)
pipewrite(struct pipe *p, char *addr, int n)
{
  int i;

  acquire(&p->lock);
  for(i = 0; i < n; i++){
80104308:	83 45 f4 01          	addl   $0x1,-0xc(%ebp)
8010430c:	8b 45 f4             	mov    -0xc(%ebp),%eax
8010430f:	3b 45 10             	cmp    0x10(%ebp),%eax
80104312:	7c ab                	jl     801042bf <pipewrite+0x81>
      wakeup(&p->nread);
      sleep(&p->nwrite, &p->lock);  //DOC: pipewrite-sleep
    }
    p->data[p->nwrite++ % PIPESIZE] = addr[i];
  }
  wakeup(&p->nread);  //DOC: pipewrite-wakeup1
80104314:	8b 45 08             	mov    0x8(%ebp),%eax
80104317:	05 34 02 00 00       	add    $0x234,%eax
8010431c:	83 ec 0c             	sub    $0xc,%esp
8010431f:	50                   	push   %eax
80104320:	e8 be 0b 00 00       	call   80104ee3 <wakeup>
80104325:	83 c4 10             	add    $0x10,%esp
  release(&p->lock);
80104328:	8b 45 08             	mov    0x8(%ebp),%eax
8010432b:	83 ec 0c             	sub    $0xc,%esp
8010432e:	50                   	push   %eax
8010432f:	e8 c9 10 00 00       	call   801053fd <release>
80104334:	83 c4 10             	add    $0x10,%esp
  return n;
80104337:	8b 45 10             	mov    0x10(%ebp),%eax
}
8010433a:	c9                   	leave  
8010433b:	c3                   	ret    

8010433c <piperead>:

int
piperead(struct pipe *p, char *addr, int n)
{
8010433c:	55                   	push   %ebp
8010433d:	89 e5                	mov    %esp,%ebp
8010433f:	53                   	push   %ebx
80104340:	83 ec 14             	sub    $0x14,%esp
  int i;

  acquire(&p->lock);
80104343:	8b 45 08             	mov    0x8(%ebp),%eax
80104346:	83 ec 0c             	sub    $0xc,%esp
80104349:	50                   	push   %eax
8010434a:	e8 47 10 00 00       	call   80105396 <acquire>
8010434f:	83 c4 10             	add    $0x10,%esp
  while(p->nread == p->nwrite && p->writeopen){  //DOC: pipe-empty
80104352:	eb 3f                	jmp    80104393 <piperead+0x57>
    if(proc->killed){
80104354:	65 a1 04 00 00 00    	mov    %gs:0x4,%eax
8010435a:	8b 40 24             	mov    0x24(%eax),%eax
8010435d:	85 c0                	test   %eax,%eax
8010435f:	74 19                	je     8010437a <piperead+0x3e>
      release(&p->lock);
80104361:	8b 45 08             	mov    0x8(%ebp),%eax
80104364:	83 ec 0c             	sub    $0xc,%esp
80104367:	50                   	push   %eax
80104368:	e8 90 10 00 00       	call   801053fd <release>
8010436d:	83 c4 10             	add    $0x10,%esp
      return -1;
80104370:	b8 ff ff ff ff       	mov    $0xffffffff,%eax
80104375:	e9 bf 00 00 00       	jmp    80104439 <piperead+0xfd>
    }
    sleep(&p->nread, &p->lock); //DOC: piperead-sleep
8010437a:	8b 45 08             	mov    0x8(%ebp),%eax
8010437d:	8b 55 08             	mov    0x8(%ebp),%edx
80104380:	81 c2 34 02 00 00    	add    $0x234,%edx
80104386:	83 ec 08             	sub    $0x8,%esp
80104389:	50                   	push   %eax
8010438a:	52                   	push   %edx
8010438b:	e8 6c 0a 00 00       	call   80104dfc <sleep>
80104390:	83 c4 10             	add    $0x10,%esp
piperead(struct pipe *p, char *addr, int n)
{
  int i;

  acquire(&p->lock);
  while(p->nread == p->nwrite && p->writeopen){  //DOC: pipe-empty
80104393:	8b 45 08             	mov    0x8(%ebp),%eax
80104396:	8b 90 34 02 00 00    	mov    0x234(%eax),%edx
8010439c:	8b 45 08             	mov    0x8(%ebp),%eax
8010439f:	8b 80 38 02 00 00    	mov    0x238(%eax),%eax
801043a5:	39 c2                	cmp    %eax,%edx
801043a7:	75 0d                	jne    801043b6 <piperead+0x7a>
801043a9:	8b 45 08             	mov    0x8(%ebp),%eax
801043ac:	8b 80 40 02 00 00    	mov    0x240(%eax),%eax
801043b2:	85 c0                	test   %eax,%eax
801043b4:	75 9e                	jne    80104354 <piperead+0x18>
      release(&p->lock);
      return -1;
    }
    sleep(&p->nread, &p->lock); //DOC: piperead-sleep
  }
  for(i = 0; i < n; i++){  //DOC: piperead-copy
801043b6:	c7 45 f4 00 00 00 00 	movl   $0x0,-0xc(%ebp)
801043bd:	eb 49                	jmp    80104408 <piperead+0xcc>
    if(p->nread == p->nwrite)
801043bf:	8b 45 08             	mov    0x8(%ebp),%eax
801043c2:	8b 90 34 02 00 00    	mov    0x234(%eax),%edx
801043c8:	8b 45 08             	mov    0x8(%ebp),%eax
801043cb:	8b 80 38 02 00 00    	mov    0x238(%eax),%eax
801043d1:	39 c2                	cmp    %eax,%edx
801043d3:	74 3d                	je     80104412 <piperead+0xd6>
      break;
    addr[i] = p->data[p->nread++ % PIPESIZE];
801043d5:	8b 55 f4             	mov    -0xc(%ebp),%edx
801043d8:	8b 45 0c             	mov    0xc(%ebp),%eax
801043db:	8d 1c 02             	lea    (%edx,%eax,1),%ebx
801043de:	8b 45 08             	mov    0x8(%ebp),%eax
801043e1:	8b 80 34 02 00 00    	mov    0x234(%eax),%eax
801043e7:	8d 48 01             	lea    0x1(%eax),%ecx
801043ea:	8b 55 08             	mov    0x8(%ebp),%edx
801043ed:	89 8a 34 02 00 00    	mov    %ecx,0x234(%edx)
801043f3:	25 ff 01 00 00       	and    $0x1ff,%eax
801043f8:	89 c2                	mov    %eax,%edx
801043fa:	8b 45 08             	mov    0x8(%ebp),%eax
801043fd:	0f b6 44 10 34       	movzbl 0x34(%eax,%edx,1),%eax
80104402:	88 03                	mov    %al,(%ebx)
      release(&p->lock);
      return -1;
    }
    sleep(&p->nread, &p->lock); //DOC: piperead-sleep
  }
  for(i = 0; i < n; i++){  //DOC: piperead-copy
80104404:	83 45 f4 01          	addl   $0x1,-0xc(%ebp)
80104408:	8b 45 f4             	mov    -0xc(%ebp),%eax
8010440b:	3b 45 10             	cmp    0x10(%ebp),%eax
8010440e:	7c af                	jl     801043bf <piperead+0x83>
80104410:	eb 01                	jmp    80104413 <piperead+0xd7>
    if(p->nread == p->nwrite)
      break;
80104412:	90                   	nop
    addr[i] = p->data[p->nread++ % PIPESIZE];
  }
  wakeup(&p->nwrite);  //DOC: piperead-wakeup
80104413:	8b 45 08             	mov    0x8(%ebp),%eax
80104416:	05 38 02 00 00       	add    $0x238,%eax
8010441b:	83 ec 0c             	sub    $0xc,%esp
8010441e:	50                   	push   %eax
8010441f:	e8 bf 0a 00 00       	call   80104ee3 <wakeup>
80104424:	83 c4 10             	add    $0x10,%esp
  release(&p->lock);
80104427:	8b 45 08             	mov    0x8(%ebp),%eax
8010442a:	83 ec 0c             	sub    $0xc,%esp
8010442d:	50                   	push   %eax
8010442e:	e8 ca 0f 00 00       	call   801053fd <release>
80104433:	83 c4 10             	add    $0x10,%esp
  return i;
80104436:	8b 45 f4             	mov    -0xc(%ebp),%eax
}
80104439:	8b 5d fc             	mov    -0x4(%ebp),%ebx
8010443c:	c9                   	leave  
8010443d:	c3                   	ret    

8010443e <hlt>:
}

// hlt() added by Noah Zentzis, Fall 2016.
static inline void
hlt()
{
8010443e:	55                   	push   %ebp
8010443f:	89 e5                	mov    %esp,%ebp
  asm volatile("hlt");
80104441:	f4                   	hlt    
}
80104442:	90                   	nop
80104443:	5d                   	pop    %ebp
80104444:	c3                   	ret    

80104445 <readeflags>:
  asm volatile("ltr %0" : : "r" (sel));
}

static inline uint
readeflags(void)
{
80104445:	55                   	push   %ebp
80104446:	89 e5                	mov    %esp,%ebp
80104448:	83 ec 10             	sub    $0x10,%esp
  uint eflags;
  asm volatile("pushfl; popl %0" : "=r" (eflags));
8010444b:	9c                   	pushf  
8010444c:	58                   	pop    %eax
8010444d:	89 45 fc             	mov    %eax,-0x4(%ebp)
  return eflags;
80104450:	8b 45 fc             	mov    -0x4(%ebp),%eax
}
80104453:	c9                   	leave  
80104454:	c3                   	ret    

80104455 <sti>:
  asm volatile("cli");
}

static inline void
sti(void)
{
80104455:	55                   	push   %ebp
80104456:	89 e5                	mov    %esp,%ebp
  asm volatile("sti");
80104458:	fb                   	sti    
}
80104459:	90                   	nop
8010445a:	5d                   	pop    %ebp
8010445b:	c3                   	ret    

8010445c <pinit>:
static int stateListRemove(struct proc** head, struct proc** tail, struct proc* p);
#endif

void
pinit(void)
{
8010445c:	55                   	push   %ebp
8010445d:	89 e5                	mov    %esp,%ebp
8010445f:	83 ec 08             	sub    $0x8,%esp
  initlock(&ptable.lock, "ptable");
80104462:	83 ec 08             	sub    $0x8,%esp
80104465:	68 78 8d 10 80       	push   $0x80108d78
8010446a:	68 80 39 11 80       	push   $0x80113980
8010446f:	e8 00 0f 00 00       	call   80105374 <initlock>
80104474:	83 c4 10             	add    $0x10,%esp
}
80104477:	90                   	nop
80104478:	c9                   	leave  
80104479:	c3                   	ret    

8010447a <allocproc>:
// If found, change state to EMBRYO and initialize
// state required to run in the kernel.
// Otherwise return 0.
static struct proc*
allocproc(void)
{
8010447a:	55                   	push   %ebp
8010447b:	89 e5                	mov    %esp,%ebp
8010447d:	83 ec 18             	sub    $0x18,%esp
  struct proc *p;
  char *sp;

  acquire(&ptable.lock);
80104480:	83 ec 0c             	sub    $0xc,%esp
80104483:	68 80 39 11 80       	push   $0x80113980
80104488:	e8 09 0f 00 00       	call   80105396 <acquire>
8010448d:	83 c4 10             	add    $0x10,%esp
  for(p = ptable.proc; p < &ptable.proc[NPROC]; p++)
80104490:	c7 45 f4 b4 39 11 80 	movl   $0x801139b4,-0xc(%ebp)
80104497:	eb 11                	jmp    801044aa <allocproc+0x30>
    if(p->state == UNUSED)
80104499:	8b 45 f4             	mov    -0xc(%ebp),%eax
8010449c:	8b 40 0c             	mov    0xc(%eax),%eax
8010449f:	85 c0                	test   %eax,%eax
801044a1:	74 2a                	je     801044cd <allocproc+0x53>
{
  struct proc *p;
  char *sp;

  acquire(&ptable.lock);
  for(p = ptable.proc; p < &ptable.proc[NPROC]; p++)
801044a3:	81 45 f4 90 00 00 00 	addl   $0x90,-0xc(%ebp)
801044aa:	81 7d f4 b4 5d 11 80 	cmpl   $0x80115db4,-0xc(%ebp)
801044b1:	72 e6                	jb     80104499 <allocproc+0x1f>
    if(p->state == UNUSED)
      goto found;
  release(&ptable.lock);
801044b3:	83 ec 0c             	sub    $0xc,%esp
801044b6:	68 80 39 11 80       	push   $0x80113980
801044bb:	e8 3d 0f 00 00       	call   801053fd <release>
801044c0:	83 c4 10             	add    $0x10,%esp
  return 0;
801044c3:	b8 00 00 00 00       	mov    $0x0,%eax
801044c8:	e9 df 00 00 00       	jmp    801045ac <allocproc+0x132>
  char *sp;

  acquire(&ptable.lock);
  for(p = ptable.proc; p < &ptable.proc[NPROC]; p++)
    if(p->state == UNUSED)
      goto found;
801044cd:	90                   	nop
  release(&ptable.lock);
  return 0;

found:
  p->state = EMBRYO;
801044ce:	8b 45 f4             	mov    -0xc(%ebp),%eax
801044d1:	c7 40 0c 01 00 00 00 	movl   $0x1,0xc(%eax)
  p->pid = nextpid++;
801044d8:	a1 04 c0 10 80       	mov    0x8010c004,%eax
801044dd:	8d 50 01             	lea    0x1(%eax),%edx
801044e0:	89 15 04 c0 10 80    	mov    %edx,0x8010c004
801044e6:	89 c2                	mov    %eax,%edx
801044e8:	8b 45 f4             	mov    -0xc(%ebp),%eax
801044eb:	89 50 10             	mov    %edx,0x10(%eax)
  release(&ptable.lock);
801044ee:	83 ec 0c             	sub    $0xc,%esp
801044f1:	68 80 39 11 80       	push   $0x80113980
801044f6:	e8 02 0f 00 00       	call   801053fd <release>
801044fb:	83 c4 10             	add    $0x10,%esp

  // Allocate kernel stack.
  if((p->kstack = kalloc()) == 0){
801044fe:	e8 63 e7 ff ff       	call   80102c66 <kalloc>
80104503:	89 c2                	mov    %eax,%edx
80104505:	8b 45 f4             	mov    -0xc(%ebp),%eax
80104508:	89 50 08             	mov    %edx,0x8(%eax)
8010450b:	8b 45 f4             	mov    -0xc(%ebp),%eax
8010450e:	8b 40 08             	mov    0x8(%eax),%eax
80104511:	85 c0                	test   %eax,%eax
80104513:	75 14                	jne    80104529 <allocproc+0xaf>
    p->state = UNUSED;
80104515:	8b 45 f4             	mov    -0xc(%ebp),%eax
80104518:	c7 40 0c 00 00 00 00 	movl   $0x0,0xc(%eax)
    return 0;
8010451f:	b8 00 00 00 00       	mov    $0x0,%eax
80104524:	e9 83 00 00 00       	jmp    801045ac <allocproc+0x132>
  }
  sp = p->kstack + KSTACKSIZE;
80104529:	8b 45 f4             	mov    -0xc(%ebp),%eax
8010452c:	8b 40 08             	mov    0x8(%eax),%eax
8010452f:	05 00 10 00 00       	add    $0x1000,%eax
80104534:	89 45 f0             	mov    %eax,-0x10(%ebp)

  // Leave room for trap frame.
  sp -= sizeof *p->tf;
80104537:	83 6d f0 4c          	subl   $0x4c,-0x10(%ebp)
  p->tf = (struct trapframe*)sp;
8010453b:	8b 45 f4             	mov    -0xc(%ebp),%eax
8010453e:	8b 55 f0             	mov    -0x10(%ebp),%edx
80104541:	89 50 18             	mov    %edx,0x18(%eax)

  // Set up new context to start executing at forkret,
  // which returns to trapret.
  sp -= 4;
80104544:	83 6d f0 04          	subl   $0x4,-0x10(%ebp)
  *(uint*)sp = (uint)trapret;
80104548:	ba 45 6b 10 80       	mov    $0x80106b45,%edx
8010454d:	8b 45 f0             	mov    -0x10(%ebp),%eax
80104550:	89 10                	mov    %edx,(%eax)

  sp -= sizeof *p->context;
80104552:	83 6d f0 14          	subl   $0x14,-0x10(%ebp)
  p->context = (struct context*)sp;
80104556:	8b 45 f4             	mov    -0xc(%ebp),%eax
80104559:	8b 55 f0             	mov    -0x10(%ebp),%edx
8010455c:	89 50 1c             	mov    %edx,0x1c(%eax)
  memset(p->context, 0, sizeof *p->context);
8010455f:	8b 45 f4             	mov    -0xc(%ebp),%eax
80104562:	8b 40 1c             	mov    0x1c(%eax),%eax
80104565:	83 ec 04             	sub    $0x4,%esp
80104568:	6a 14                	push   $0x14
8010456a:	6a 00                	push   $0x0
8010456c:	50                   	push   %eax
8010456d:	e8 87 10 00 00       	call   801055f9 <memset>
80104572:	83 c4 10             	add    $0x10,%esp
  p->context->eip = (uint)forkret;
80104575:	8b 45 f4             	mov    -0xc(%ebp),%eax
80104578:	8b 40 1c             	mov    0x1c(%eax),%eax
8010457b:	ba b6 4d 10 80       	mov    $0x80104db6,%edx
80104580:	89 50 10             	mov    %edx,0x10(%eax)

  #ifdef CS333_P1
  p->start_ticks = ticks;
80104583:	8b 15 c0 65 11 80    	mov    0x801165c0,%edx
80104589:	8b 45 f4             	mov    -0xc(%ebp),%eax
8010458c:	89 50 7c             	mov    %edx,0x7c(%eax)
  #endif  
  #ifdef CS333_P2
  p->cpu_ticks_total = 0;
8010458f:	8b 45 f4             	mov    -0xc(%ebp),%eax
80104592:	c7 80 88 00 00 00 00 	movl   $0x0,0x88(%eax)
80104599:	00 00 00 
  p->cpu_ticks_in = 0;
8010459c:	8b 45 f4             	mov    -0xc(%ebp),%eax
8010459f:	c7 80 8c 00 00 00 00 	movl   $0x0,0x8c(%eax)
801045a6:	00 00 00 
  #endif

  return p;
801045a9:	8b 45 f4             	mov    -0xc(%ebp),%eax
}
801045ac:	c9                   	leave  
801045ad:	c3                   	ret    

801045ae <userinit>:

//PAGEBREAK: 32
// Set up first user process.
void
userinit(void)
{
801045ae:	55                   	push   %ebp
801045af:	89 e5                	mov    %esp,%ebp
801045b1:	83 ec 18             	sub    $0x18,%esp
  struct proc *p;
  extern char _binary_initcode_start[], _binary_initcode_size[];

  p = allocproc();
801045b4:	e8 c1 fe ff ff       	call   8010447a <allocproc>
801045b9:	89 45 f4             	mov    %eax,-0xc(%ebp)
  initproc = p;
801045bc:	8b 45 f4             	mov    -0xc(%ebp),%eax
801045bf:	a3 68 c6 10 80       	mov    %eax,0x8010c668
  if((p->pgdir = setupkvm()) == 0)
801045c4:	e8 3e 3c 00 00       	call   80108207 <setupkvm>
801045c9:	89 c2                	mov    %eax,%edx
801045cb:	8b 45 f4             	mov    -0xc(%ebp),%eax
801045ce:	89 50 04             	mov    %edx,0x4(%eax)
801045d1:	8b 45 f4             	mov    -0xc(%ebp),%eax
801045d4:	8b 40 04             	mov    0x4(%eax),%eax
801045d7:	85 c0                	test   %eax,%eax
801045d9:	75 0d                	jne    801045e8 <userinit+0x3a>
    panic("userinit: out of memory?");
801045db:	83 ec 0c             	sub    $0xc,%esp
801045de:	68 7f 8d 10 80       	push   $0x80108d7f
801045e3:	e8 7e bf ff ff       	call   80100566 <panic>
  inituvm(p->pgdir, _binary_initcode_start, (int)_binary_initcode_size);
801045e8:	ba 2c 00 00 00       	mov    $0x2c,%edx
801045ed:	8b 45 f4             	mov    -0xc(%ebp),%eax
801045f0:	8b 40 04             	mov    0x4(%eax),%eax
801045f3:	83 ec 04             	sub    $0x4,%esp
801045f6:	52                   	push   %edx
801045f7:	68 00 c5 10 80       	push   $0x8010c500
801045fc:	50                   	push   %eax
801045fd:	e8 5f 3e 00 00       	call   80108461 <inituvm>
80104602:	83 c4 10             	add    $0x10,%esp
  p->sz = PGSIZE;
80104605:	8b 45 f4             	mov    -0xc(%ebp),%eax
80104608:	c7 00 00 10 00 00    	movl   $0x1000,(%eax)
  memset(p->tf, 0, sizeof(*p->tf));
8010460e:	8b 45 f4             	mov    -0xc(%ebp),%eax
80104611:	8b 40 18             	mov    0x18(%eax),%eax
80104614:	83 ec 04             	sub    $0x4,%esp
80104617:	6a 4c                	push   $0x4c
80104619:	6a 00                	push   $0x0
8010461b:	50                   	push   %eax
8010461c:	e8 d8 0f 00 00       	call   801055f9 <memset>
80104621:	83 c4 10             	add    $0x10,%esp
  p->tf->cs = (SEG_UCODE << 3) | DPL_USER;
80104624:	8b 45 f4             	mov    -0xc(%ebp),%eax
80104627:	8b 40 18             	mov    0x18(%eax),%eax
8010462a:	66 c7 40 3c 23 00    	movw   $0x23,0x3c(%eax)
  p->tf->ds = (SEG_UDATA << 3) | DPL_USER;
80104630:	8b 45 f4             	mov    -0xc(%ebp),%eax
80104633:	8b 40 18             	mov    0x18(%eax),%eax
80104636:	66 c7 40 2c 2b 00    	movw   $0x2b,0x2c(%eax)
  p->tf->es = p->tf->ds;
8010463c:	8b 45 f4             	mov    -0xc(%ebp),%eax
8010463f:	8b 40 18             	mov    0x18(%eax),%eax
80104642:	8b 55 f4             	mov    -0xc(%ebp),%edx
80104645:	8b 52 18             	mov    0x18(%edx),%edx
80104648:	0f b7 52 2c          	movzwl 0x2c(%edx),%edx
8010464c:	66 89 50 28          	mov    %dx,0x28(%eax)
  p->tf->ss = p->tf->ds;
80104650:	8b 45 f4             	mov    -0xc(%ebp),%eax
80104653:	8b 40 18             	mov    0x18(%eax),%eax
80104656:	8b 55 f4             	mov    -0xc(%ebp),%edx
80104659:	8b 52 18             	mov    0x18(%edx),%edx
8010465c:	0f b7 52 2c          	movzwl 0x2c(%edx),%edx
80104660:	66 89 50 48          	mov    %dx,0x48(%eax)
  p->tf->eflags = FL_IF;
80104664:	8b 45 f4             	mov    -0xc(%ebp),%eax
80104667:	8b 40 18             	mov    0x18(%eax),%eax
8010466a:	c7 40 40 00 02 00 00 	movl   $0x200,0x40(%eax)
  p->tf->esp = PGSIZE;
80104671:	8b 45 f4             	mov    -0xc(%ebp),%eax
80104674:	8b 40 18             	mov    0x18(%eax),%eax
80104677:	c7 40 44 00 10 00 00 	movl   $0x1000,0x44(%eax)
  p->tf->eip = 0;  // beginning of initcode.S
8010467e:	8b 45 f4             	mov    -0xc(%ebp),%eax
80104681:	8b 40 18             	mov    0x18(%eax),%eax
80104684:	c7 40 38 00 00 00 00 	movl   $0x0,0x38(%eax)

  #ifdef CS333_P2
  // Set default UID and GID
  p->uid = UID_DEFAULT;
8010468b:	8b 45 f4             	mov    -0xc(%ebp),%eax
8010468e:	c7 80 80 00 00 00 00 	movl   $0x0,0x80(%eax)
80104695:	00 00 00 
  p->gid = GID_DEFAULT;
80104698:	8b 45 f4             	mov    -0xc(%ebp),%eax
8010469b:	c7 80 84 00 00 00 00 	movl   $0x0,0x84(%eax)
801046a2:	00 00 00 

  // Point Process 1's parent pointer to itself
  p->parent = p;
801046a5:	8b 45 f4             	mov    -0xc(%ebp),%eax
801046a8:	8b 55 f4             	mov    -0xc(%ebp),%edx
801046ab:	89 50 14             	mov    %edx,0x14(%eax)
  #endif

  safestrcpy(p->name, "initcode", sizeof(p->name));
801046ae:	8b 45 f4             	mov    -0xc(%ebp),%eax
801046b1:	83 c0 6c             	add    $0x6c,%eax
801046b4:	83 ec 04             	sub    $0x4,%esp
801046b7:	6a 10                	push   $0x10
801046b9:	68 98 8d 10 80       	push   $0x80108d98
801046be:	50                   	push   %eax
801046bf:	e8 38 11 00 00       	call   801057fc <safestrcpy>
801046c4:	83 c4 10             	add    $0x10,%esp
  p->cwd = namei("/");
801046c7:	83 ec 0c             	sub    $0xc,%esp
801046ca:	68 a1 8d 10 80       	push   $0x80108da1
801046cf:	e8 54 de ff ff       	call   80102528 <namei>
801046d4:	83 c4 10             	add    $0x10,%esp
801046d7:	89 c2                	mov    %eax,%edx
801046d9:	8b 45 f4             	mov    -0xc(%ebp),%eax
801046dc:	89 50 68             	mov    %edx,0x68(%eax)

  p->state = RUNNABLE;
801046df:	8b 45 f4             	mov    -0xc(%ebp),%eax
801046e2:	c7 40 0c 03 00 00 00 	movl   $0x3,0xc(%eax)
}
801046e9:	90                   	nop
801046ea:	c9                   	leave  
801046eb:	c3                   	ret    

801046ec <growproc>:

// Grow current process's memory by n bytes.
// Return 0 on success, -1 on failure.
int
growproc(int n)
{
801046ec:	55                   	push   %ebp
801046ed:	89 e5                	mov    %esp,%ebp
801046ef:	83 ec 18             	sub    $0x18,%esp
  uint sz;

  sz = proc->sz;
801046f2:	65 a1 04 00 00 00    	mov    %gs:0x4,%eax
801046f8:	8b 00                	mov    (%eax),%eax
801046fa:	89 45 f4             	mov    %eax,-0xc(%ebp)
  if(n > 0){
801046fd:	83 7d 08 00          	cmpl   $0x0,0x8(%ebp)
80104701:	7e 31                	jle    80104734 <growproc+0x48>
    if((sz = allocuvm(proc->pgdir, sz, sz + n)) == 0)
80104703:	8b 55 08             	mov    0x8(%ebp),%edx
80104706:	8b 45 f4             	mov    -0xc(%ebp),%eax
80104709:	01 c2                	add    %eax,%edx
8010470b:	65 a1 04 00 00 00    	mov    %gs:0x4,%eax
80104711:	8b 40 04             	mov    0x4(%eax),%eax
80104714:	83 ec 04             	sub    $0x4,%esp
80104717:	52                   	push   %edx
80104718:	ff 75 f4             	pushl  -0xc(%ebp)
8010471b:	50                   	push   %eax
8010471c:	e8 8d 3e 00 00       	call   801085ae <allocuvm>
80104721:	83 c4 10             	add    $0x10,%esp
80104724:	89 45 f4             	mov    %eax,-0xc(%ebp)
80104727:	83 7d f4 00          	cmpl   $0x0,-0xc(%ebp)
8010472b:	75 3e                	jne    8010476b <growproc+0x7f>
      return -1;
8010472d:	b8 ff ff ff ff       	mov    $0xffffffff,%eax
80104732:	eb 59                	jmp    8010478d <growproc+0xa1>
  } else if(n < 0){
80104734:	83 7d 08 00          	cmpl   $0x0,0x8(%ebp)
80104738:	79 31                	jns    8010476b <growproc+0x7f>
    if((sz = deallocuvm(proc->pgdir, sz, sz + n)) == 0)
8010473a:	8b 55 08             	mov    0x8(%ebp),%edx
8010473d:	8b 45 f4             	mov    -0xc(%ebp),%eax
80104740:	01 c2                	add    %eax,%edx
80104742:	65 a1 04 00 00 00    	mov    %gs:0x4,%eax
80104748:	8b 40 04             	mov    0x4(%eax),%eax
8010474b:	83 ec 04             	sub    $0x4,%esp
8010474e:	52                   	push   %edx
8010474f:	ff 75 f4             	pushl  -0xc(%ebp)
80104752:	50                   	push   %eax
80104753:	e8 1f 3f 00 00       	call   80108677 <deallocuvm>
80104758:	83 c4 10             	add    $0x10,%esp
8010475b:	89 45 f4             	mov    %eax,-0xc(%ebp)
8010475e:	83 7d f4 00          	cmpl   $0x0,-0xc(%ebp)
80104762:	75 07                	jne    8010476b <growproc+0x7f>
      return -1;
80104764:	b8 ff ff ff ff       	mov    $0xffffffff,%eax
80104769:	eb 22                	jmp    8010478d <growproc+0xa1>
  }
  proc->sz = sz;
8010476b:	65 a1 04 00 00 00    	mov    %gs:0x4,%eax
80104771:	8b 55 f4             	mov    -0xc(%ebp),%edx
80104774:	89 10                	mov    %edx,(%eax)
  switchuvm(proc);
80104776:	65 a1 04 00 00 00    	mov    %gs:0x4,%eax
8010477c:	83 ec 0c             	sub    $0xc,%esp
8010477f:	50                   	push   %eax
80104780:	e8 69 3b 00 00       	call   801082ee <switchuvm>
80104785:	83 c4 10             	add    $0x10,%esp
  return 0;
80104788:	b8 00 00 00 00       	mov    $0x0,%eax
}
8010478d:	c9                   	leave  
8010478e:	c3                   	ret    

8010478f <fork>:
// Create a new process copying p as the parent.
// Sets up stack to return as if from system call.
// Caller must set state of returned proc to RUNNABLE.
int
fork(void)
{
8010478f:	55                   	push   %ebp
80104790:	89 e5                	mov    %esp,%ebp
80104792:	57                   	push   %edi
80104793:	56                   	push   %esi
80104794:	53                   	push   %ebx
80104795:	83 ec 1c             	sub    $0x1c,%esp
  int i, pid;
  struct proc *np;

  // Allocate process.
  if((np = allocproc()) == 0)
80104798:	e8 dd fc ff ff       	call   8010447a <allocproc>
8010479d:	89 45 e0             	mov    %eax,-0x20(%ebp)
801047a0:	83 7d e0 00          	cmpl   $0x0,-0x20(%ebp)
801047a4:	75 0a                	jne    801047b0 <fork+0x21>
    return -1;
801047a6:	b8 ff ff ff ff       	mov    $0xffffffff,%eax
801047ab:	e9 92 01 00 00       	jmp    80104942 <fork+0x1b3>

  // Copy process state from p.
  if((np->pgdir = copyuvm(proc->pgdir, proc->sz)) == 0){
801047b0:	65 a1 04 00 00 00    	mov    %gs:0x4,%eax
801047b6:	8b 10                	mov    (%eax),%edx
801047b8:	65 a1 04 00 00 00    	mov    %gs:0x4,%eax
801047be:	8b 40 04             	mov    0x4(%eax),%eax
801047c1:	83 ec 08             	sub    $0x8,%esp
801047c4:	52                   	push   %edx
801047c5:	50                   	push   %eax
801047c6:	e8 4a 40 00 00       	call   80108815 <copyuvm>
801047cb:	83 c4 10             	add    $0x10,%esp
801047ce:	89 c2                	mov    %eax,%edx
801047d0:	8b 45 e0             	mov    -0x20(%ebp),%eax
801047d3:	89 50 04             	mov    %edx,0x4(%eax)
801047d6:	8b 45 e0             	mov    -0x20(%ebp),%eax
801047d9:	8b 40 04             	mov    0x4(%eax),%eax
801047dc:	85 c0                	test   %eax,%eax
801047de:	75 30                	jne    80104810 <fork+0x81>
    kfree(np->kstack);
801047e0:	8b 45 e0             	mov    -0x20(%ebp),%eax
801047e3:	8b 40 08             	mov    0x8(%eax),%eax
801047e6:	83 ec 0c             	sub    $0xc,%esp
801047e9:	50                   	push   %eax
801047ea:	e8 da e3 ff ff       	call   80102bc9 <kfree>
801047ef:	83 c4 10             	add    $0x10,%esp
    np->kstack = 0;
801047f2:	8b 45 e0             	mov    -0x20(%ebp),%eax
801047f5:	c7 40 08 00 00 00 00 	movl   $0x0,0x8(%eax)
    np->state = UNUSED;
801047fc:	8b 45 e0             	mov    -0x20(%ebp),%eax
801047ff:	c7 40 0c 00 00 00 00 	movl   $0x0,0xc(%eax)
    return -1;
80104806:	b8 ff ff ff ff       	mov    $0xffffffff,%eax
8010480b:	e9 32 01 00 00       	jmp    80104942 <fork+0x1b3>
  }
  np->sz = proc->sz;
80104810:	65 a1 04 00 00 00    	mov    %gs:0x4,%eax
80104816:	8b 10                	mov    (%eax),%edx
80104818:	8b 45 e0             	mov    -0x20(%ebp),%eax
8010481b:	89 10                	mov    %edx,(%eax)
  np->parent = proc;
8010481d:	65 8b 15 04 00 00 00 	mov    %gs:0x4,%edx
80104824:	8b 45 e0             	mov    -0x20(%ebp),%eax
80104827:	89 50 14             	mov    %edx,0x14(%eax)
  *np->tf = *proc->tf;
8010482a:	8b 45 e0             	mov    -0x20(%ebp),%eax
8010482d:	8b 50 18             	mov    0x18(%eax),%edx
80104830:	65 a1 04 00 00 00    	mov    %gs:0x4,%eax
80104836:	8b 40 18             	mov    0x18(%eax),%eax
80104839:	89 c3                	mov    %eax,%ebx
8010483b:	b8 13 00 00 00       	mov    $0x13,%eax
80104840:	89 d7                	mov    %edx,%edi
80104842:	89 de                	mov    %ebx,%esi
80104844:	89 c1                	mov    %eax,%ecx
80104846:	f3 a5                	rep movsl %ds:(%esi),%es:(%edi)

  #ifdef CS333_P2
  // Inherit parent UID and GID
  np->uid = proc->uid;
80104848:	65 a1 04 00 00 00    	mov    %gs:0x4,%eax
8010484e:	8b 90 80 00 00 00    	mov    0x80(%eax),%edx
80104854:	8b 45 e0             	mov    -0x20(%ebp),%eax
80104857:	89 90 80 00 00 00    	mov    %edx,0x80(%eax)
  np->gid = proc->gid;
8010485d:	65 a1 04 00 00 00    	mov    %gs:0x4,%eax
80104863:	8b 90 84 00 00 00    	mov    0x84(%eax),%edx
80104869:	8b 45 e0             	mov    -0x20(%ebp),%eax
8010486c:	89 90 84 00 00 00    	mov    %edx,0x84(%eax)
  #endif

  // Clear %eax so that fork returns 0 in the child.
  np->tf->eax = 0;
80104872:	8b 45 e0             	mov    -0x20(%ebp),%eax
80104875:	8b 40 18             	mov    0x18(%eax),%eax
80104878:	c7 40 1c 00 00 00 00 	movl   $0x0,0x1c(%eax)

  for(i = 0; i < NOFILE; i++)
8010487f:	c7 45 e4 00 00 00 00 	movl   $0x0,-0x1c(%ebp)
80104886:	eb 43                	jmp    801048cb <fork+0x13c>
    if(proc->ofile[i])
80104888:	65 a1 04 00 00 00    	mov    %gs:0x4,%eax
8010488e:	8b 55 e4             	mov    -0x1c(%ebp),%edx
80104891:	83 c2 08             	add    $0x8,%edx
80104894:	8b 44 90 08          	mov    0x8(%eax,%edx,4),%eax
80104898:	85 c0                	test   %eax,%eax
8010489a:	74 2b                	je     801048c7 <fork+0x138>
      np->ofile[i] = filedup(proc->ofile[i]);
8010489c:	65 a1 04 00 00 00    	mov    %gs:0x4,%eax
801048a2:	8b 55 e4             	mov    -0x1c(%ebp),%edx
801048a5:	83 c2 08             	add    $0x8,%edx
801048a8:	8b 44 90 08          	mov    0x8(%eax,%edx,4),%eax
801048ac:	83 ec 0c             	sub    $0xc,%esp
801048af:	50                   	push   %eax
801048b0:	e8 4b c7 ff ff       	call   80101000 <filedup>
801048b5:	83 c4 10             	add    $0x10,%esp
801048b8:	89 c1                	mov    %eax,%ecx
801048ba:	8b 45 e0             	mov    -0x20(%ebp),%eax
801048bd:	8b 55 e4             	mov    -0x1c(%ebp),%edx
801048c0:	83 c2 08             	add    $0x8,%edx
801048c3:	89 4c 90 08          	mov    %ecx,0x8(%eax,%edx,4)
  #endif

  // Clear %eax so that fork returns 0 in the child.
  np->tf->eax = 0;

  for(i = 0; i < NOFILE; i++)
801048c7:	83 45 e4 01          	addl   $0x1,-0x1c(%ebp)
801048cb:	83 7d e4 0f          	cmpl   $0xf,-0x1c(%ebp)
801048cf:	7e b7                	jle    80104888 <fork+0xf9>
    if(proc->ofile[i])
      np->ofile[i] = filedup(proc->ofile[i]);
  np->cwd = idup(proc->cwd);
801048d1:	65 a1 04 00 00 00    	mov    %gs:0x4,%eax
801048d7:	8b 40 68             	mov    0x68(%eax),%eax
801048da:	83 ec 0c             	sub    $0xc,%esp
801048dd:	50                   	push   %eax
801048de:	e8 4d d0 ff ff       	call   80101930 <idup>
801048e3:	83 c4 10             	add    $0x10,%esp
801048e6:	89 c2                	mov    %eax,%edx
801048e8:	8b 45 e0             	mov    -0x20(%ebp),%eax
801048eb:	89 50 68             	mov    %edx,0x68(%eax)

  safestrcpy(np->name, proc->name, sizeof(proc->name));
801048ee:	65 a1 04 00 00 00    	mov    %gs:0x4,%eax
801048f4:	8d 50 6c             	lea    0x6c(%eax),%edx
801048f7:	8b 45 e0             	mov    -0x20(%ebp),%eax
801048fa:	83 c0 6c             	add    $0x6c,%eax
801048fd:	83 ec 04             	sub    $0x4,%esp
80104900:	6a 10                	push   $0x10
80104902:	52                   	push   %edx
80104903:	50                   	push   %eax
80104904:	e8 f3 0e 00 00       	call   801057fc <safestrcpy>
80104909:	83 c4 10             	add    $0x10,%esp

  pid = np->pid;
8010490c:	8b 45 e0             	mov    -0x20(%ebp),%eax
8010490f:	8b 40 10             	mov    0x10(%eax),%eax
80104912:	89 45 dc             	mov    %eax,-0x24(%ebp)

  // lock to force the compiler to emit the np->state write last.
  acquire(&ptable.lock);
80104915:	83 ec 0c             	sub    $0xc,%esp
80104918:	68 80 39 11 80       	push   $0x80113980
8010491d:	e8 74 0a 00 00       	call   80105396 <acquire>
80104922:	83 c4 10             	add    $0x10,%esp
  np->state = RUNNABLE;
80104925:	8b 45 e0             	mov    -0x20(%ebp),%eax
80104928:	c7 40 0c 03 00 00 00 	movl   $0x3,0xc(%eax)
  release(&ptable.lock);
8010492f:	83 ec 0c             	sub    $0xc,%esp
80104932:	68 80 39 11 80       	push   $0x80113980
80104937:	e8 c1 0a 00 00       	call   801053fd <release>
8010493c:	83 c4 10             	add    $0x10,%esp

  return pid;
8010493f:	8b 45 dc             	mov    -0x24(%ebp),%eax
}
80104942:	8d 65 f4             	lea    -0xc(%ebp),%esp
80104945:	5b                   	pop    %ebx
80104946:	5e                   	pop    %esi
80104947:	5f                   	pop    %edi
80104948:	5d                   	pop    %ebp
80104949:	c3                   	ret    

8010494a <exit>:
// An exited process remains in the zombie state
// until its parent calls wait() to find out it exited.
#ifndef CS333_P3P4
void
exit(void)
{
8010494a:	55                   	push   %ebp
8010494b:	89 e5                	mov    %esp,%ebp
8010494d:	83 ec 18             	sub    $0x18,%esp
  struct proc *p;
  int fd;

  if(proc == initproc)
80104950:	65 8b 15 04 00 00 00 	mov    %gs:0x4,%edx
80104957:	a1 68 c6 10 80       	mov    0x8010c668,%eax
8010495c:	39 c2                	cmp    %eax,%edx
8010495e:	75 0d                	jne    8010496d <exit+0x23>
    panic("init exiting");
80104960:	83 ec 0c             	sub    $0xc,%esp
80104963:	68 a3 8d 10 80       	push   $0x80108da3
80104968:	e8 f9 bb ff ff       	call   80100566 <panic>

  // Close all open files.
  for(fd = 0; fd < NOFILE; fd++){
8010496d:	c7 45 f0 00 00 00 00 	movl   $0x0,-0x10(%ebp)
80104974:	eb 48                	jmp    801049be <exit+0x74>
    if(proc->ofile[fd]){
80104976:	65 a1 04 00 00 00    	mov    %gs:0x4,%eax
8010497c:	8b 55 f0             	mov    -0x10(%ebp),%edx
8010497f:	83 c2 08             	add    $0x8,%edx
80104982:	8b 44 90 08          	mov    0x8(%eax,%edx,4),%eax
80104986:	85 c0                	test   %eax,%eax
80104988:	74 30                	je     801049ba <exit+0x70>
      fileclose(proc->ofile[fd]);
8010498a:	65 a1 04 00 00 00    	mov    %gs:0x4,%eax
80104990:	8b 55 f0             	mov    -0x10(%ebp),%edx
80104993:	83 c2 08             	add    $0x8,%edx
80104996:	8b 44 90 08          	mov    0x8(%eax,%edx,4),%eax
8010499a:	83 ec 0c             	sub    $0xc,%esp
8010499d:	50                   	push   %eax
8010499e:	e8 ae c6 ff ff       	call   80101051 <fileclose>
801049a3:	83 c4 10             	add    $0x10,%esp
      proc->ofile[fd] = 0;
801049a6:	65 a1 04 00 00 00    	mov    %gs:0x4,%eax
801049ac:	8b 55 f0             	mov    -0x10(%ebp),%edx
801049af:	83 c2 08             	add    $0x8,%edx
801049b2:	c7 44 90 08 00 00 00 	movl   $0x0,0x8(%eax,%edx,4)
801049b9:	00 

  if(proc == initproc)
    panic("init exiting");

  // Close all open files.
  for(fd = 0; fd < NOFILE; fd++){
801049ba:	83 45 f0 01          	addl   $0x1,-0x10(%ebp)
801049be:	83 7d f0 0f          	cmpl   $0xf,-0x10(%ebp)
801049c2:	7e b2                	jle    80104976 <exit+0x2c>
      fileclose(proc->ofile[fd]);
      proc->ofile[fd] = 0;
    }
  }

  begin_op();
801049c4:	e8 84 eb ff ff       	call   8010354d <begin_op>
  iput(proc->cwd);
801049c9:	65 a1 04 00 00 00    	mov    %gs:0x4,%eax
801049cf:	8b 40 68             	mov    0x68(%eax),%eax
801049d2:	83 ec 0c             	sub    $0xc,%esp
801049d5:	50                   	push   %eax
801049d6:	e8 5f d1 ff ff       	call   80101b3a <iput>
801049db:	83 c4 10             	add    $0x10,%esp
  end_op();
801049de:	e8 f6 eb ff ff       	call   801035d9 <end_op>
  proc->cwd = 0;
801049e3:	65 a1 04 00 00 00    	mov    %gs:0x4,%eax
801049e9:	c7 40 68 00 00 00 00 	movl   $0x0,0x68(%eax)

  acquire(&ptable.lock);
801049f0:	83 ec 0c             	sub    $0xc,%esp
801049f3:	68 80 39 11 80       	push   $0x80113980
801049f8:	e8 99 09 00 00       	call   80105396 <acquire>
801049fd:	83 c4 10             	add    $0x10,%esp

  // Parent might be sleeping in wait().
  wakeup1(proc->parent);
80104a00:	65 a1 04 00 00 00    	mov    %gs:0x4,%eax
80104a06:	8b 40 14             	mov    0x14(%eax),%eax
80104a09:	83 ec 0c             	sub    $0xc,%esp
80104a0c:	50                   	push   %eax
80104a0d:	e8 8f 04 00 00       	call   80104ea1 <wakeup1>
80104a12:	83 c4 10             	add    $0x10,%esp

  // Pass abandoned children to init.
  for(p = ptable.proc; p < &ptable.proc[NPROC]; p++){
80104a15:	c7 45 f4 b4 39 11 80 	movl   $0x801139b4,-0xc(%ebp)
80104a1c:	eb 3f                	jmp    80104a5d <exit+0x113>
    if(p->parent == proc){
80104a1e:	8b 45 f4             	mov    -0xc(%ebp),%eax
80104a21:	8b 50 14             	mov    0x14(%eax),%edx
80104a24:	65 a1 04 00 00 00    	mov    %gs:0x4,%eax
80104a2a:	39 c2                	cmp    %eax,%edx
80104a2c:	75 28                	jne    80104a56 <exit+0x10c>
      p->parent = initproc;
80104a2e:	8b 15 68 c6 10 80    	mov    0x8010c668,%edx
80104a34:	8b 45 f4             	mov    -0xc(%ebp),%eax
80104a37:	89 50 14             	mov    %edx,0x14(%eax)
      if(p->state == ZOMBIE)
80104a3a:	8b 45 f4             	mov    -0xc(%ebp),%eax
80104a3d:	8b 40 0c             	mov    0xc(%eax),%eax
80104a40:	83 f8 05             	cmp    $0x5,%eax
80104a43:	75 11                	jne    80104a56 <exit+0x10c>
        wakeup1(initproc);
80104a45:	a1 68 c6 10 80       	mov    0x8010c668,%eax
80104a4a:	83 ec 0c             	sub    $0xc,%esp
80104a4d:	50                   	push   %eax
80104a4e:	e8 4e 04 00 00       	call   80104ea1 <wakeup1>
80104a53:	83 c4 10             	add    $0x10,%esp

  // Parent might be sleeping in wait().
  wakeup1(proc->parent);

  // Pass abandoned children to init.
  for(p = ptable.proc; p < &ptable.proc[NPROC]; p++){
80104a56:	81 45 f4 90 00 00 00 	addl   $0x90,-0xc(%ebp)
80104a5d:	81 7d f4 b4 5d 11 80 	cmpl   $0x80115db4,-0xc(%ebp)
80104a64:	72 b8                	jb     80104a1e <exit+0xd4>
        wakeup1(initproc);
    }
  }

  // Jump into the scheduler, never to return.
  proc->state = ZOMBIE;
80104a66:	65 a1 04 00 00 00    	mov    %gs:0x4,%eax
80104a6c:	c7 40 0c 05 00 00 00 	movl   $0x5,0xc(%eax)
  sched();
80104a73:	e8 11 02 00 00       	call   80104c89 <sched>
  panic("zombie exit");
80104a78:	83 ec 0c             	sub    $0xc,%esp
80104a7b:	68 b0 8d 10 80       	push   $0x80108db0
80104a80:	e8 e1 ba ff ff       	call   80100566 <panic>

80104a85 <wait>:
// Wait for a child process to exit and return its pid.
// Return -1 if this process has no children.
#ifndef CS333_P3P4
int
wait(void)
{
80104a85:	55                   	push   %ebp
80104a86:	89 e5                	mov    %esp,%ebp
80104a88:	83 ec 18             	sub    $0x18,%esp
  struct proc *p;
  int havekids, pid;

  acquire(&ptable.lock);
80104a8b:	83 ec 0c             	sub    $0xc,%esp
80104a8e:	68 80 39 11 80       	push   $0x80113980
80104a93:	e8 fe 08 00 00       	call   80105396 <acquire>
80104a98:	83 c4 10             	add    $0x10,%esp
  for(;;){
    // Scan through table looking for zombie children.
    havekids = 0;
80104a9b:	c7 45 f0 00 00 00 00 	movl   $0x0,-0x10(%ebp)
    for(p = ptable.proc; p < &ptable.proc[NPROC]; p++){
80104aa2:	c7 45 f4 b4 39 11 80 	movl   $0x801139b4,-0xc(%ebp)
80104aa9:	e9 a9 00 00 00       	jmp    80104b57 <wait+0xd2>
      if(p->parent != proc)
80104aae:	8b 45 f4             	mov    -0xc(%ebp),%eax
80104ab1:	8b 50 14             	mov    0x14(%eax),%edx
80104ab4:	65 a1 04 00 00 00    	mov    %gs:0x4,%eax
80104aba:	39 c2                	cmp    %eax,%edx
80104abc:	0f 85 8d 00 00 00    	jne    80104b4f <wait+0xca>
        continue;
      havekids = 1;
80104ac2:	c7 45 f0 01 00 00 00 	movl   $0x1,-0x10(%ebp)
      if(p->state == ZOMBIE){
80104ac9:	8b 45 f4             	mov    -0xc(%ebp),%eax
80104acc:	8b 40 0c             	mov    0xc(%eax),%eax
80104acf:	83 f8 05             	cmp    $0x5,%eax
80104ad2:	75 7c                	jne    80104b50 <wait+0xcb>
        // Found one.
        pid = p->pid;
80104ad4:	8b 45 f4             	mov    -0xc(%ebp),%eax
80104ad7:	8b 40 10             	mov    0x10(%eax),%eax
80104ada:	89 45 ec             	mov    %eax,-0x14(%ebp)
        kfree(p->kstack);
80104add:	8b 45 f4             	mov    -0xc(%ebp),%eax
80104ae0:	8b 40 08             	mov    0x8(%eax),%eax
80104ae3:	83 ec 0c             	sub    $0xc,%esp
80104ae6:	50                   	push   %eax
80104ae7:	e8 dd e0 ff ff       	call   80102bc9 <kfree>
80104aec:	83 c4 10             	add    $0x10,%esp
        p->kstack = 0;
80104aef:	8b 45 f4             	mov    -0xc(%ebp),%eax
80104af2:	c7 40 08 00 00 00 00 	movl   $0x0,0x8(%eax)
        freevm(p->pgdir);
80104af9:	8b 45 f4             	mov    -0xc(%ebp),%eax
80104afc:	8b 40 04             	mov    0x4(%eax),%eax
80104aff:	83 ec 0c             	sub    $0xc,%esp
80104b02:	50                   	push   %eax
80104b03:	e8 2c 3c 00 00       	call   80108734 <freevm>
80104b08:	83 c4 10             	add    $0x10,%esp
        p->state = UNUSED;
80104b0b:	8b 45 f4             	mov    -0xc(%ebp),%eax
80104b0e:	c7 40 0c 00 00 00 00 	movl   $0x0,0xc(%eax)
        p->pid = 0;
80104b15:	8b 45 f4             	mov    -0xc(%ebp),%eax
80104b18:	c7 40 10 00 00 00 00 	movl   $0x0,0x10(%eax)
        p->parent = 0;
80104b1f:	8b 45 f4             	mov    -0xc(%ebp),%eax
80104b22:	c7 40 14 00 00 00 00 	movl   $0x0,0x14(%eax)
        p->name[0] = 0;
80104b29:	8b 45 f4             	mov    -0xc(%ebp),%eax
80104b2c:	c6 40 6c 00          	movb   $0x0,0x6c(%eax)
        p->killed = 0;
80104b30:	8b 45 f4             	mov    -0xc(%ebp),%eax
80104b33:	c7 40 24 00 00 00 00 	movl   $0x0,0x24(%eax)
        release(&ptable.lock);
80104b3a:	83 ec 0c             	sub    $0xc,%esp
80104b3d:	68 80 39 11 80       	push   $0x80113980
80104b42:	e8 b6 08 00 00       	call   801053fd <release>
80104b47:	83 c4 10             	add    $0x10,%esp
        return pid;
80104b4a:	8b 45 ec             	mov    -0x14(%ebp),%eax
80104b4d:	eb 5b                	jmp    80104baa <wait+0x125>
  for(;;){
    // Scan through table looking for zombie children.
    havekids = 0;
    for(p = ptable.proc; p < &ptable.proc[NPROC]; p++){
      if(p->parent != proc)
        continue;
80104b4f:	90                   	nop

  acquire(&ptable.lock);
  for(;;){
    // Scan through table looking for zombie children.
    havekids = 0;
    for(p = ptable.proc; p < &ptable.proc[NPROC]; p++){
80104b50:	81 45 f4 90 00 00 00 	addl   $0x90,-0xc(%ebp)
80104b57:	81 7d f4 b4 5d 11 80 	cmpl   $0x80115db4,-0xc(%ebp)
80104b5e:	0f 82 4a ff ff ff    	jb     80104aae <wait+0x29>
        return pid;
      }
    }

    // No point waiting if we don't have any children.
    if(!havekids || proc->killed){
80104b64:	83 7d f0 00          	cmpl   $0x0,-0x10(%ebp)
80104b68:	74 0d                	je     80104b77 <wait+0xf2>
80104b6a:	65 a1 04 00 00 00    	mov    %gs:0x4,%eax
80104b70:	8b 40 24             	mov    0x24(%eax),%eax
80104b73:	85 c0                	test   %eax,%eax
80104b75:	74 17                	je     80104b8e <wait+0x109>
      release(&ptable.lock);
80104b77:	83 ec 0c             	sub    $0xc,%esp
80104b7a:	68 80 39 11 80       	push   $0x80113980
80104b7f:	e8 79 08 00 00       	call   801053fd <release>
80104b84:	83 c4 10             	add    $0x10,%esp
      return -1;
80104b87:	b8 ff ff ff ff       	mov    $0xffffffff,%eax
80104b8c:	eb 1c                	jmp    80104baa <wait+0x125>
    }

    // Wait for children to exit.  (See wakeup1 call in proc_exit.)
    sleep(proc, &ptable.lock);  //DOC: wait-sleep
80104b8e:	65 a1 04 00 00 00    	mov    %gs:0x4,%eax
80104b94:	83 ec 08             	sub    $0x8,%esp
80104b97:	68 80 39 11 80       	push   $0x80113980
80104b9c:	50                   	push   %eax
80104b9d:	e8 5a 02 00 00       	call   80104dfc <sleep>
80104ba2:	83 c4 10             	add    $0x10,%esp
  }
80104ba5:	e9 f1 fe ff ff       	jmp    80104a9b <wait+0x16>
}
80104baa:	c9                   	leave  
80104bab:	c3                   	ret    

80104bac <scheduler>:
//      via swtch back to the scheduler.
#ifndef CS333_P3P4
// original xv6 scheduler. Use if CS333_P3P4 NOT defined.
void
scheduler(void)
{
80104bac:	55                   	push   %ebp
80104bad:	89 e5                	mov    %esp,%ebp
80104baf:	83 ec 18             	sub    $0x18,%esp
  struct proc *p;
  int idle;  // for checking if processor is idle

  for(;;){
    // Enable interrupts on this processor.
    sti();
80104bb2:	e8 9e f8 ff ff       	call   80104455 <sti>

    idle = 1;  // assume idle unless we schedule a process
80104bb7:	c7 45 f0 01 00 00 00 	movl   $0x1,-0x10(%ebp)
    // Loop over process table looking for process to run.
    acquire(&ptable.lock);
80104bbe:	83 ec 0c             	sub    $0xc,%esp
80104bc1:	68 80 39 11 80       	push   $0x80113980
80104bc6:	e8 cb 07 00 00       	call   80105396 <acquire>
80104bcb:	83 c4 10             	add    $0x10,%esp
    for(p = ptable.proc; p < &ptable.proc[NPROC]; p++){
80104bce:	c7 45 f4 b4 39 11 80 	movl   $0x801139b4,-0xc(%ebp)
80104bd5:	eb 7c                	jmp    80104c53 <scheduler+0xa7>
      if(p->state != RUNNABLE)
80104bd7:	8b 45 f4             	mov    -0xc(%ebp),%eax
80104bda:	8b 40 0c             	mov    0xc(%eax),%eax
80104bdd:	83 f8 03             	cmp    $0x3,%eax
80104be0:	75 69                	jne    80104c4b <scheduler+0x9f>
        continue;

      // Switch to chosen process.  It is the process's job
      // to release ptable.lock and then reacquire it
      // before jumping back to us.
      idle = 0;  // not idle this timeslice
80104be2:	c7 45 f0 00 00 00 00 	movl   $0x0,-0x10(%ebp)
      proc = p;
80104be9:	8b 45 f4             	mov    -0xc(%ebp),%eax
80104bec:	65 a3 04 00 00 00    	mov    %eax,%gs:0x4
      switchuvm(p);
80104bf2:	83 ec 0c             	sub    $0xc,%esp
80104bf5:	ff 75 f4             	pushl  -0xc(%ebp)
80104bf8:	e8 f1 36 00 00       	call   801082ee <switchuvm>
80104bfd:	83 c4 10             	add    $0x10,%esp
      p->state = RUNNING;
80104c00:	8b 45 f4             	mov    -0xc(%ebp),%eax
80104c03:	c7 40 0c 04 00 00 00 	movl   $0x4,0xc(%eax)
      #ifdef CS333_P2
      p->cpu_ticks_in = ticks;
80104c0a:	8b 15 c0 65 11 80    	mov    0x801165c0,%edx
80104c10:	8b 45 f4             	mov    -0xc(%ebp),%eax
80104c13:	89 90 8c 00 00 00    	mov    %edx,0x8c(%eax)
      #endif
      swtch(&cpu->scheduler, proc->context);
80104c19:	65 a1 04 00 00 00    	mov    %gs:0x4,%eax
80104c1f:	8b 40 1c             	mov    0x1c(%eax),%eax
80104c22:	65 8b 15 00 00 00 00 	mov    %gs:0x0,%edx
80104c29:	83 c2 04             	add    $0x4,%edx
80104c2c:	83 ec 08             	sub    $0x8,%esp
80104c2f:	50                   	push   %eax
80104c30:	52                   	push   %edx
80104c31:	e8 37 0c 00 00       	call   8010586d <swtch>
80104c36:	83 c4 10             	add    $0x10,%esp
      switchkvm();
80104c39:	e8 93 36 00 00       	call   801082d1 <switchkvm>

      // Process is done running for now.
      // It should have changed its p->state before coming back.
      proc = 0;
80104c3e:	65 c7 05 04 00 00 00 	movl   $0x0,%gs:0x4
80104c45:	00 00 00 00 
80104c49:	eb 01                	jmp    80104c4c <scheduler+0xa0>
    idle = 1;  // assume idle unless we schedule a process
    // Loop over process table looking for process to run.
    acquire(&ptable.lock);
    for(p = ptable.proc; p < &ptable.proc[NPROC]; p++){
      if(p->state != RUNNABLE)
        continue;
80104c4b:	90                   	nop
    sti();

    idle = 1;  // assume idle unless we schedule a process
    // Loop over process table looking for process to run.
    acquire(&ptable.lock);
    for(p = ptable.proc; p < &ptable.proc[NPROC]; p++){
80104c4c:	81 45 f4 90 00 00 00 	addl   $0x90,-0xc(%ebp)
80104c53:	81 7d f4 b4 5d 11 80 	cmpl   $0x80115db4,-0xc(%ebp)
80104c5a:	0f 82 77 ff ff ff    	jb     80104bd7 <scheduler+0x2b>

      // Process is done running for now.
      // It should have changed its p->state before coming back.
      proc = 0;
    }
    release(&ptable.lock);
80104c60:	83 ec 0c             	sub    $0xc,%esp
80104c63:	68 80 39 11 80       	push   $0x80113980
80104c68:	e8 90 07 00 00       	call   801053fd <release>
80104c6d:	83 c4 10             	add    $0x10,%esp
    // if idle, wait for next interrupt
    if (idle) {
80104c70:	83 7d f0 00          	cmpl   $0x0,-0x10(%ebp)
80104c74:	0f 84 38 ff ff ff    	je     80104bb2 <scheduler+0x6>
      sti();
80104c7a:	e8 d6 f7 ff ff       	call   80104455 <sti>
      hlt();
80104c7f:	e8 ba f7 ff ff       	call   8010443e <hlt>
    }
  }
80104c84:	e9 29 ff ff ff       	jmp    80104bb2 <scheduler+0x6>

80104c89 <sched>:

// Enter scheduler.  Must hold only ptable.lock
// and have changed proc->state.
void
sched(void)
{
80104c89:	55                   	push   %ebp
80104c8a:	89 e5                	mov    %esp,%ebp
80104c8c:	53                   	push   %ebx
80104c8d:	83 ec 14             	sub    $0x14,%esp
  int intena;

  if(!holding(&ptable.lock))
80104c90:	83 ec 0c             	sub    $0xc,%esp
80104c93:	68 80 39 11 80       	push   $0x80113980
80104c98:	e8 2c 08 00 00       	call   801054c9 <holding>
80104c9d:	83 c4 10             	add    $0x10,%esp
80104ca0:	85 c0                	test   %eax,%eax
80104ca2:	75 0d                	jne    80104cb1 <sched+0x28>
    panic("sched ptable.lock");
80104ca4:	83 ec 0c             	sub    $0xc,%esp
80104ca7:	68 bc 8d 10 80       	push   $0x80108dbc
80104cac:	e8 b5 b8 ff ff       	call   80100566 <panic>
  if(cpu->ncli != 1)
80104cb1:	65 a1 00 00 00 00    	mov    %gs:0x0,%eax
80104cb7:	8b 80 ac 00 00 00    	mov    0xac(%eax),%eax
80104cbd:	83 f8 01             	cmp    $0x1,%eax
80104cc0:	74 0d                	je     80104ccf <sched+0x46>
    panic("sched locks");
80104cc2:	83 ec 0c             	sub    $0xc,%esp
80104cc5:	68 ce 8d 10 80       	push   $0x80108dce
80104cca:	e8 97 b8 ff ff       	call   80100566 <panic>
  if(proc->state == RUNNING)
80104ccf:	65 a1 04 00 00 00    	mov    %gs:0x4,%eax
80104cd5:	8b 40 0c             	mov    0xc(%eax),%eax
80104cd8:	83 f8 04             	cmp    $0x4,%eax
80104cdb:	75 0d                	jne    80104cea <sched+0x61>
    panic("sched running");
80104cdd:	83 ec 0c             	sub    $0xc,%esp
80104ce0:	68 da 8d 10 80       	push   $0x80108dda
80104ce5:	e8 7c b8 ff ff       	call   80100566 <panic>
  if(readeflags()&FL_IF)
80104cea:	e8 56 f7 ff ff       	call   80104445 <readeflags>
80104cef:	25 00 02 00 00       	and    $0x200,%eax
80104cf4:	85 c0                	test   %eax,%eax
80104cf6:	74 0d                	je     80104d05 <sched+0x7c>
    panic("sched interruptible");
80104cf8:	83 ec 0c             	sub    $0xc,%esp
80104cfb:	68 e8 8d 10 80       	push   $0x80108de8
80104d00:	e8 61 b8 ff ff       	call   80100566 <panic>
  intena = cpu->intena;
80104d05:	65 a1 00 00 00 00    	mov    %gs:0x0,%eax
80104d0b:	8b 80 b0 00 00 00    	mov    0xb0(%eax),%eax
80104d11:	89 45 f4             	mov    %eax,-0xc(%ebp)
  #ifdef CS333_P2
  proc->cpu_ticks_total += ticks - proc->cpu_ticks_in;
80104d14:	65 a1 04 00 00 00    	mov    %gs:0x4,%eax
80104d1a:	65 8b 15 04 00 00 00 	mov    %gs:0x4,%edx
80104d21:	8b 8a 88 00 00 00    	mov    0x88(%edx),%ecx
80104d27:	8b 1d c0 65 11 80    	mov    0x801165c0,%ebx
80104d2d:	65 8b 15 04 00 00 00 	mov    %gs:0x4,%edx
80104d34:	8b 92 8c 00 00 00    	mov    0x8c(%edx),%edx
80104d3a:	29 d3                	sub    %edx,%ebx
80104d3c:	89 da                	mov    %ebx,%edx
80104d3e:	01 ca                	add    %ecx,%edx
80104d40:	89 90 88 00 00 00    	mov    %edx,0x88(%eax)
  #endif
  swtch(&proc->context, cpu->scheduler);
80104d46:	65 a1 00 00 00 00    	mov    %gs:0x0,%eax
80104d4c:	8b 40 04             	mov    0x4(%eax),%eax
80104d4f:	65 8b 15 04 00 00 00 	mov    %gs:0x4,%edx
80104d56:	83 c2 1c             	add    $0x1c,%edx
80104d59:	83 ec 08             	sub    $0x8,%esp
80104d5c:	50                   	push   %eax
80104d5d:	52                   	push   %edx
80104d5e:	e8 0a 0b 00 00       	call   8010586d <swtch>
80104d63:	83 c4 10             	add    $0x10,%esp
  cpu->intena = intena;
80104d66:	65 a1 00 00 00 00    	mov    %gs:0x0,%eax
80104d6c:	8b 55 f4             	mov    -0xc(%ebp),%edx
80104d6f:	89 90 b0 00 00 00    	mov    %edx,0xb0(%eax)
}
80104d75:	90                   	nop
80104d76:	8b 5d fc             	mov    -0x4(%ebp),%ebx
80104d79:	c9                   	leave  
80104d7a:	c3                   	ret    

80104d7b <yield>:

// Give up the CPU for one scheduling round.
void
yield(void)
{
80104d7b:	55                   	push   %ebp
80104d7c:	89 e5                	mov    %esp,%ebp
80104d7e:	83 ec 08             	sub    $0x8,%esp
  acquire(&ptable.lock);  //DOC: yieldlock
80104d81:	83 ec 0c             	sub    $0xc,%esp
80104d84:	68 80 39 11 80       	push   $0x80113980
80104d89:	e8 08 06 00 00       	call   80105396 <acquire>
80104d8e:	83 c4 10             	add    $0x10,%esp
  proc->state = RUNNABLE;
80104d91:	65 a1 04 00 00 00    	mov    %gs:0x4,%eax
80104d97:	c7 40 0c 03 00 00 00 	movl   $0x3,0xc(%eax)
  sched();
80104d9e:	e8 e6 fe ff ff       	call   80104c89 <sched>
  release(&ptable.lock);
80104da3:	83 ec 0c             	sub    $0xc,%esp
80104da6:	68 80 39 11 80       	push   $0x80113980
80104dab:	e8 4d 06 00 00       	call   801053fd <release>
80104db0:	83 c4 10             	add    $0x10,%esp
}
80104db3:	90                   	nop
80104db4:	c9                   	leave  
80104db5:	c3                   	ret    

80104db6 <forkret>:

// A fork child's very first scheduling by scheduler()
// will swtch here.  "Return" to user space.
void
forkret(void)
{
80104db6:	55                   	push   %ebp
80104db7:	89 e5                	mov    %esp,%ebp
80104db9:	83 ec 08             	sub    $0x8,%esp
  static int first = 1;
  // Still holding ptable.lock from scheduler.
  release(&ptable.lock);
80104dbc:	83 ec 0c             	sub    $0xc,%esp
80104dbf:	68 80 39 11 80       	push   $0x80113980
80104dc4:	e8 34 06 00 00       	call   801053fd <release>
80104dc9:	83 c4 10             	add    $0x10,%esp

  if (first) {
80104dcc:	a1 20 c0 10 80       	mov    0x8010c020,%eax
80104dd1:	85 c0                	test   %eax,%eax
80104dd3:	74 24                	je     80104df9 <forkret+0x43>
    // Some initialization functions must be run in the context
    // of a regular process (e.g., they call sleep), and thus cannot
    // be run from main().
    first = 0;
80104dd5:	c7 05 20 c0 10 80 00 	movl   $0x0,0x8010c020
80104ddc:	00 00 00 
    iinit(ROOTDEV);
80104ddf:	83 ec 0c             	sub    $0xc,%esp
80104de2:	6a 01                	push   $0x1
80104de4:	e8 55 c8 ff ff       	call   8010163e <iinit>
80104de9:	83 c4 10             	add    $0x10,%esp
    initlog(ROOTDEV);
80104dec:	83 ec 0c             	sub    $0xc,%esp
80104def:	6a 01                	push   $0x1
80104df1:	e8 39 e5 ff ff       	call   8010332f <initlog>
80104df6:	83 c4 10             	add    $0x10,%esp
  }

  // Return to "caller", actually trapret (see allocproc).
}
80104df9:	90                   	nop
80104dfa:	c9                   	leave  
80104dfb:	c3                   	ret    

80104dfc <sleep>:
// Reacquires lock when awakened.
// 2016/12/28: ticklock removed from xv6. sleep() changed to
// accept a NULL lock to accommodate.
void
sleep(void *chan, struct spinlock *lk)
{
80104dfc:	55                   	push   %ebp
80104dfd:	89 e5                	mov    %esp,%ebp
80104dff:	83 ec 08             	sub    $0x8,%esp
  if(proc == 0)
80104e02:	65 a1 04 00 00 00    	mov    %gs:0x4,%eax
80104e08:	85 c0                	test   %eax,%eax
80104e0a:	75 0d                	jne    80104e19 <sleep+0x1d>
    panic("sleep");
80104e0c:	83 ec 0c             	sub    $0xc,%esp
80104e0f:	68 fc 8d 10 80       	push   $0x80108dfc
80104e14:	e8 4d b7 ff ff       	call   80100566 <panic>
  // change p->state and then call sched.
  // Once we hold ptable.lock, we can be
  // guaranteed that we won't miss any wakeup
  // (wakeup runs with ptable.lock locked),
  // so it's okay to release lk.
  if(lk != &ptable.lock){
80104e19:	81 7d 0c 80 39 11 80 	cmpl   $0x80113980,0xc(%ebp)
80104e20:	74 24                	je     80104e46 <sleep+0x4a>
    acquire(&ptable.lock);
80104e22:	83 ec 0c             	sub    $0xc,%esp
80104e25:	68 80 39 11 80       	push   $0x80113980
80104e2a:	e8 67 05 00 00       	call   80105396 <acquire>
80104e2f:	83 c4 10             	add    $0x10,%esp
    if (lk) release(lk);
80104e32:	83 7d 0c 00          	cmpl   $0x0,0xc(%ebp)
80104e36:	74 0e                	je     80104e46 <sleep+0x4a>
80104e38:	83 ec 0c             	sub    $0xc,%esp
80104e3b:	ff 75 0c             	pushl  0xc(%ebp)
80104e3e:	e8 ba 05 00 00       	call   801053fd <release>
80104e43:	83 c4 10             	add    $0x10,%esp
  }

  // Go to sleep.
  proc->chan = chan;
80104e46:	65 a1 04 00 00 00    	mov    %gs:0x4,%eax
80104e4c:	8b 55 08             	mov    0x8(%ebp),%edx
80104e4f:	89 50 20             	mov    %edx,0x20(%eax)
  proc->state = SLEEPING;
80104e52:	65 a1 04 00 00 00    	mov    %gs:0x4,%eax
80104e58:	c7 40 0c 02 00 00 00 	movl   $0x2,0xc(%eax)
  sched();
80104e5f:	e8 25 fe ff ff       	call   80104c89 <sched>

  // Tidy up.
  proc->chan = 0;
80104e64:	65 a1 04 00 00 00    	mov    %gs:0x4,%eax
80104e6a:	c7 40 20 00 00 00 00 	movl   $0x0,0x20(%eax)

  // Reacquire original lock.
  if(lk != &ptable.lock){
80104e71:	81 7d 0c 80 39 11 80 	cmpl   $0x80113980,0xc(%ebp)
80104e78:	74 24                	je     80104e9e <sleep+0xa2>
    release(&ptable.lock);
80104e7a:	83 ec 0c             	sub    $0xc,%esp
80104e7d:	68 80 39 11 80       	push   $0x80113980
80104e82:	e8 76 05 00 00       	call   801053fd <release>
80104e87:	83 c4 10             	add    $0x10,%esp
    if (lk) acquire(lk);
80104e8a:	83 7d 0c 00          	cmpl   $0x0,0xc(%ebp)
80104e8e:	74 0e                	je     80104e9e <sleep+0xa2>
80104e90:	83 ec 0c             	sub    $0xc,%esp
80104e93:	ff 75 0c             	pushl  0xc(%ebp)
80104e96:	e8 fb 04 00 00       	call   80105396 <acquire>
80104e9b:	83 c4 10             	add    $0x10,%esp
  }
}
80104e9e:	90                   	nop
80104e9f:	c9                   	leave  
80104ea0:	c3                   	ret    

80104ea1 <wakeup1>:
#ifndef CS333_P3P4
// Wake up all processes sleeping on chan.
// The ptable lock must be held.
static void
wakeup1(void *chan)
{
80104ea1:	55                   	push   %ebp
80104ea2:	89 e5                	mov    %esp,%ebp
80104ea4:	83 ec 10             	sub    $0x10,%esp
  struct proc *p;

  for(p = ptable.proc; p < &ptable.proc[NPROC]; p++)
80104ea7:	c7 45 fc b4 39 11 80 	movl   $0x801139b4,-0x4(%ebp)
80104eae:	eb 27                	jmp    80104ed7 <wakeup1+0x36>
    if(p->state == SLEEPING && p->chan == chan)
80104eb0:	8b 45 fc             	mov    -0x4(%ebp),%eax
80104eb3:	8b 40 0c             	mov    0xc(%eax),%eax
80104eb6:	83 f8 02             	cmp    $0x2,%eax
80104eb9:	75 15                	jne    80104ed0 <wakeup1+0x2f>
80104ebb:	8b 45 fc             	mov    -0x4(%ebp),%eax
80104ebe:	8b 40 20             	mov    0x20(%eax),%eax
80104ec1:	3b 45 08             	cmp    0x8(%ebp),%eax
80104ec4:	75 0a                	jne    80104ed0 <wakeup1+0x2f>
      p->state = RUNNABLE;
80104ec6:	8b 45 fc             	mov    -0x4(%ebp),%eax
80104ec9:	c7 40 0c 03 00 00 00 	movl   $0x3,0xc(%eax)
static void
wakeup1(void *chan)
{
  struct proc *p;

  for(p = ptable.proc; p < &ptable.proc[NPROC]; p++)
80104ed0:	81 45 fc 90 00 00 00 	addl   $0x90,-0x4(%ebp)
80104ed7:	81 7d fc b4 5d 11 80 	cmpl   $0x80115db4,-0x4(%ebp)
80104ede:	72 d0                	jb     80104eb0 <wakeup1+0xf>
    if(p->state == SLEEPING && p->chan == chan)
      p->state = RUNNABLE;
}
80104ee0:	90                   	nop
80104ee1:	c9                   	leave  
80104ee2:	c3                   	ret    

80104ee3 <wakeup>:
#endif

// Wake up all processes sleeping on chan.
void
wakeup(void *chan)
{
80104ee3:	55                   	push   %ebp
80104ee4:	89 e5                	mov    %esp,%ebp
80104ee6:	83 ec 08             	sub    $0x8,%esp
  acquire(&ptable.lock);
80104ee9:	83 ec 0c             	sub    $0xc,%esp
80104eec:	68 80 39 11 80       	push   $0x80113980
80104ef1:	e8 a0 04 00 00       	call   80105396 <acquire>
80104ef6:	83 c4 10             	add    $0x10,%esp
  wakeup1(chan);
80104ef9:	83 ec 0c             	sub    $0xc,%esp
80104efc:	ff 75 08             	pushl  0x8(%ebp)
80104eff:	e8 9d ff ff ff       	call   80104ea1 <wakeup1>
80104f04:	83 c4 10             	add    $0x10,%esp
  release(&ptable.lock);
80104f07:	83 ec 0c             	sub    $0xc,%esp
80104f0a:	68 80 39 11 80       	push   $0x80113980
80104f0f:	e8 e9 04 00 00       	call   801053fd <release>
80104f14:	83 c4 10             	add    $0x10,%esp
}
80104f17:	90                   	nop
80104f18:	c9                   	leave  
80104f19:	c3                   	ret    

80104f1a <kill>:
// Process won't exit until it returns
// to user space (see trap in trap.c).
#ifndef CS333_P3P4
int
kill(int pid)
{
80104f1a:	55                   	push   %ebp
80104f1b:	89 e5                	mov    %esp,%ebp
80104f1d:	83 ec 18             	sub    $0x18,%esp
  struct proc *p;

  acquire(&ptable.lock);
80104f20:	83 ec 0c             	sub    $0xc,%esp
80104f23:	68 80 39 11 80       	push   $0x80113980
80104f28:	e8 69 04 00 00       	call   80105396 <acquire>
80104f2d:	83 c4 10             	add    $0x10,%esp
  for(p = ptable.proc; p < &ptable.proc[NPROC]; p++){
80104f30:	c7 45 f4 b4 39 11 80 	movl   $0x801139b4,-0xc(%ebp)
80104f37:	eb 4a                	jmp    80104f83 <kill+0x69>
    if(p->pid == pid){
80104f39:	8b 45 f4             	mov    -0xc(%ebp),%eax
80104f3c:	8b 50 10             	mov    0x10(%eax),%edx
80104f3f:	8b 45 08             	mov    0x8(%ebp),%eax
80104f42:	39 c2                	cmp    %eax,%edx
80104f44:	75 36                	jne    80104f7c <kill+0x62>
      p->killed = 1;
80104f46:	8b 45 f4             	mov    -0xc(%ebp),%eax
80104f49:	c7 40 24 01 00 00 00 	movl   $0x1,0x24(%eax)
      // Wake process from sleep if necessary.
      if(p->state == SLEEPING)
80104f50:	8b 45 f4             	mov    -0xc(%ebp),%eax
80104f53:	8b 40 0c             	mov    0xc(%eax),%eax
80104f56:	83 f8 02             	cmp    $0x2,%eax
80104f59:	75 0a                	jne    80104f65 <kill+0x4b>
        p->state = RUNNABLE;
80104f5b:	8b 45 f4             	mov    -0xc(%ebp),%eax
80104f5e:	c7 40 0c 03 00 00 00 	movl   $0x3,0xc(%eax)
      release(&ptable.lock);
80104f65:	83 ec 0c             	sub    $0xc,%esp
80104f68:	68 80 39 11 80       	push   $0x80113980
80104f6d:	e8 8b 04 00 00       	call   801053fd <release>
80104f72:	83 c4 10             	add    $0x10,%esp
      return 0;
80104f75:	b8 00 00 00 00       	mov    $0x0,%eax
80104f7a:	eb 25                	jmp    80104fa1 <kill+0x87>
kill(int pid)
{
  struct proc *p;

  acquire(&ptable.lock);
  for(p = ptable.proc; p < &ptable.proc[NPROC]; p++){
80104f7c:	81 45 f4 90 00 00 00 	addl   $0x90,-0xc(%ebp)
80104f83:	81 7d f4 b4 5d 11 80 	cmpl   $0x80115db4,-0xc(%ebp)
80104f8a:	72 ad                	jb     80104f39 <kill+0x1f>
        p->state = RUNNABLE;
      release(&ptable.lock);
      return 0;
    }
  }
  release(&ptable.lock);
80104f8c:	83 ec 0c             	sub    $0xc,%esp
80104f8f:	68 80 39 11 80       	push   $0x80113980
80104f94:	e8 64 04 00 00       	call   801053fd <release>
80104f99:	83 c4 10             	add    $0x10,%esp
  return -1;
80104f9c:	b8 ff ff ff ff       	mov    $0xffffffff,%eax
}
80104fa1:	c9                   	leave  
80104fa2:	c3                   	ret    

80104fa3 <getprocs>:
// Populate uproc table from ptable

#ifdef CS333_P2
int
getprocs(int max, struct uproc *table)
{
80104fa3:	55                   	push   %ebp
80104fa4:	89 e5                	mov    %esp,%ebp
80104fa6:	83 ec 18             	sub    $0x18,%esp
    struct proc *p;
    int pcount;

    pcount = 0;
80104fa9:	c7 45 f0 00 00 00 00 	movl   $0x0,-0x10(%ebp)
    max = (max < NPROC) ? max : NPROC;
80104fb0:	b8 40 00 00 00       	mov    $0x40,%eax
80104fb5:	83 7d 08 40          	cmpl   $0x40,0x8(%ebp)
80104fb9:	0f 4e 45 08          	cmovle 0x8(%ebp),%eax
80104fbd:	89 45 08             	mov    %eax,0x8(%ebp)
    //acquire(&ptable.lock);
    for(p = ptable.proc; p < &ptable.proc[max]; p++) {
80104fc0:	c7 45 f4 b4 39 11 80 	movl   $0x801139b4,-0xc(%ebp)
80104fc7:	e9 b2 00 00 00       	jmp    8010507e <getprocs+0xdb>
        table->pid = p->pid;
80104fcc:	8b 45 f4             	mov    -0xc(%ebp),%eax
80104fcf:	8b 50 10             	mov    0x10(%eax),%edx
80104fd2:	8b 45 0c             	mov    0xc(%ebp),%eax
80104fd5:	89 10                	mov    %edx,(%eax)
        table->uid = p->uid;
80104fd7:	8b 45 f4             	mov    -0xc(%ebp),%eax
80104fda:	8b 90 80 00 00 00    	mov    0x80(%eax),%edx
80104fe0:	8b 45 0c             	mov    0xc(%ebp),%eax
80104fe3:	89 50 04             	mov    %edx,0x4(%eax)
        table->gid = p->gid;
80104fe6:	8b 45 f4             	mov    -0xc(%ebp),%eax
80104fe9:	8b 90 84 00 00 00    	mov    0x84(%eax),%edx
80104fef:	8b 45 0c             	mov    0xc(%ebp),%eax
80104ff2:	89 50 08             	mov    %edx,0x8(%eax)
        table->ppid = p->parent->pid;
80104ff5:	8b 45 f4             	mov    -0xc(%ebp),%eax
80104ff8:	8b 40 14             	mov    0x14(%eax),%eax
80104ffb:	8b 50 10             	mov    0x10(%eax),%edx
80104ffe:	8b 45 0c             	mov    0xc(%ebp),%eax
80105001:	89 50 0c             	mov    %edx,0xc(%eax)
        table->elapsed = ticks - p->start_ticks;
80105004:	8b 15 c0 65 11 80    	mov    0x801165c0,%edx
8010500a:	8b 45 f4             	mov    -0xc(%ebp),%eax
8010500d:	8b 40 7c             	mov    0x7c(%eax),%eax
80105010:	29 c2                	sub    %eax,%edx
80105012:	8b 45 0c             	mov    0xc(%ebp),%eax
80105015:	89 50 10             	mov    %edx,0x10(%eax)
        table->cpu_ticks_total = p->cpu_ticks_total;
80105018:	8b 45 f4             	mov    -0xc(%ebp),%eax
8010501b:	8b 90 88 00 00 00    	mov    0x88(%eax),%edx
80105021:	8b 45 0c             	mov    0xc(%ebp),%eax
80105024:	89 50 14             	mov    %edx,0x14(%eax)
        safestrcpy(table->state, states[p->state], sizeof(states[p->state]));
80105027:	8b 45 f4             	mov    -0xc(%ebp),%eax
8010502a:	8b 40 0c             	mov    0xc(%eax),%eax
8010502d:	8b 04 85 08 c0 10 80 	mov    -0x7fef3ff8(,%eax,4),%eax
80105034:	8b 55 0c             	mov    0xc(%ebp),%edx
80105037:	83 c2 18             	add    $0x18,%edx
8010503a:	83 ec 04             	sub    $0x4,%esp
8010503d:	6a 04                	push   $0x4
8010503f:	50                   	push   %eax
80105040:	52                   	push   %edx
80105041:	e8 b6 07 00 00       	call   801057fc <safestrcpy>
80105046:	83 c4 10             	add    $0x10,%esp
        table->sz = p->sz;
80105049:	8b 45 f4             	mov    -0xc(%ebp),%eax
8010504c:	8b 10                	mov    (%eax),%edx
8010504e:	8b 45 0c             	mov    0xc(%ebp),%eax
80105051:	89 50 24             	mov    %edx,0x24(%eax)
        safestrcpy(table->name, p->name, sizeof(p->name));
80105054:	8b 45 f4             	mov    -0xc(%ebp),%eax
80105057:	8d 50 6c             	lea    0x6c(%eax),%edx
8010505a:	8b 45 0c             	mov    0xc(%ebp),%eax
8010505d:	83 c0 28             	add    $0x28,%eax
80105060:	83 ec 04             	sub    $0x4,%esp
80105063:	6a 10                	push   $0x10
80105065:	52                   	push   %edx
80105066:	50                   	push   %eax
80105067:	e8 90 07 00 00       	call   801057fc <safestrcpy>
8010506c:	83 c4 10             	add    $0x10,%esp
        table += 1;
8010506f:	83 45 0c 38          	addl   $0x38,0xc(%ebp)
        pcount += 1;
80105073:	83 45 f0 01          	addl   $0x1,-0x10(%ebp)
    int pcount;

    pcount = 0;
    max = (max < NPROC) ? max : NPROC;
    //acquire(&ptable.lock);
    for(p = ptable.proc; p < &ptable.proc[max]; p++) {
80105077:	81 45 f4 90 00 00 00 	addl   $0x90,-0xc(%ebp)
8010507e:	8b 55 08             	mov    0x8(%ebp),%edx
80105081:	89 d0                	mov    %edx,%eax
80105083:	c1 e0 03             	shl    $0x3,%eax
80105086:	01 d0                	add    %edx,%eax
80105088:	c1 e0 04             	shl    $0x4,%eax
8010508b:	83 c0 30             	add    $0x30,%eax
8010508e:	05 80 39 11 80       	add    $0x80113980,%eax
80105093:	83 c0 04             	add    $0x4,%eax
80105096:	3b 45 f4             	cmp    -0xc(%ebp),%eax
80105099:	0f 87 2d ff ff ff    	ja     80104fcc <getprocs+0x29>
        table += 1;
        pcount += 1;
    }
    //release(&ptable.lock);
        
    return pcount;
8010509f:	8b 45 f0             	mov    -0x10(%ebp),%eax
}    
801050a2:	c9                   	leave  
801050a3:	c3                   	ret    

801050a4 <print_ticks_as_seconds>:
// No lock to avoid wedging a stuck machine further.

#ifdef CS333_P1
void
print_ticks_as_seconds(uint milliseconds)
{
801050a4:	55                   	push   %ebp
801050a5:	89 e5                	mov    %esp,%ebp
801050a7:	83 ec 18             	sub    $0x18,%esp
  uint integer_part = milliseconds / 1000;
801050aa:	8b 45 08             	mov    0x8(%ebp),%eax
801050ad:	ba d3 4d 62 10       	mov    $0x10624dd3,%edx
801050b2:	f7 e2                	mul    %edx
801050b4:	89 d0                	mov    %edx,%eax
801050b6:	c1 e8 06             	shr    $0x6,%eax
801050b9:	89 45 f4             	mov    %eax,-0xc(%ebp)
  uint fractional_part = milliseconds % 1000;
801050bc:	8b 4d 08             	mov    0x8(%ebp),%ecx
801050bf:	ba d3 4d 62 10       	mov    $0x10624dd3,%edx
801050c4:	89 c8                	mov    %ecx,%eax
801050c6:	f7 e2                	mul    %edx
801050c8:	89 d0                	mov    %edx,%eax
801050ca:	c1 e8 06             	shr    $0x6,%eax
801050cd:	69 c0 e8 03 00 00    	imul   $0x3e8,%eax,%eax
801050d3:	29 c1                	sub    %eax,%ecx
801050d5:	89 c8                	mov    %ecx,%eax
801050d7:	89 45 f0             	mov    %eax,-0x10(%ebp)
  cprintf("%d.", integer_part);
801050da:	83 ec 08             	sub    $0x8,%esp
801050dd:	ff 75 f4             	pushl  -0xc(%ebp)
801050e0:	68 2c 8e 10 80       	push   $0x80108e2c
801050e5:	e8 dc b2 ff ff       	call   801003c6 <cprintf>
801050ea:	83 c4 10             	add    $0x10,%esp
  if(fractional_part < 10)
801050ed:	83 7d f0 09          	cmpl   $0x9,-0x10(%ebp)
801050f1:	77 12                	ja     80105105 <print_ticks_as_seconds+0x61>
    cprintf("00");
801050f3:	83 ec 0c             	sub    $0xc,%esp
801050f6:	68 30 8e 10 80       	push   $0x80108e30
801050fb:	e8 c6 b2 ff ff       	call   801003c6 <cprintf>
80105100:	83 c4 10             	add    $0x10,%esp
80105103:	eb 16                	jmp    8010511b <print_ticks_as_seconds+0x77>
  else if(fractional_part < 100)
80105105:	83 7d f0 63          	cmpl   $0x63,-0x10(%ebp)
80105109:	77 10                	ja     8010511b <print_ticks_as_seconds+0x77>
    cprintf("0");
8010510b:	83 ec 0c             	sub    $0xc,%esp
8010510e:	68 33 8e 10 80       	push   $0x80108e33
80105113:	e8 ae b2 ff ff       	call   801003c6 <cprintf>
80105118:	83 c4 10             	add    $0x10,%esp
  cprintf("%d", fractional_part);
8010511b:	83 ec 08             	sub    $0x8,%esp
8010511e:	ff 75 f0             	pushl  -0x10(%ebp)
80105121:	68 35 8e 10 80       	push   $0x80108e35
80105126:	e8 9b b2 ff ff       	call   801003c6 <cprintf>
8010512b:	83 c4 10             	add    $0x10,%esp
}
8010512e:	90                   	nop
8010512f:	c9                   	leave  
80105130:	c3                   	ret    

80105131 <procdumpP1>:
#endif

#ifdef CS333_P1
void
procdumpP1(struct proc *p, char *state)
{
80105131:	55                   	push   %ebp
80105132:	89 e5                	mov    %esp,%ebp
80105134:	83 ec 18             	sub    $0x18,%esp
  uint elapsed = ticks - p->start_ticks;
80105137:	8b 15 c0 65 11 80    	mov    0x801165c0,%edx
8010513d:	8b 45 08             	mov    0x8(%ebp),%eax
80105140:	8b 40 7c             	mov    0x7c(%eax),%eax
80105143:	29 c2                	sub    %eax,%edx
80105145:	89 d0                	mov    %edx,%eax
80105147:	89 45 f4             	mov    %eax,-0xc(%ebp)
  cprintf("%d\t%s\t", p->pid, p->name);
8010514a:	8b 45 08             	mov    0x8(%ebp),%eax
8010514d:	8d 50 6c             	lea    0x6c(%eax),%edx
80105150:	8b 45 08             	mov    0x8(%ebp),%eax
80105153:	8b 40 10             	mov    0x10(%eax),%eax
80105156:	83 ec 04             	sub    $0x4,%esp
80105159:	52                   	push   %edx
8010515a:	50                   	push   %eax
8010515b:	68 38 8e 10 80       	push   $0x80108e38
80105160:	e8 61 b2 ff ff       	call   801003c6 <cprintf>
80105165:	83 c4 10             	add    $0x10,%esp
  print_ticks_as_seconds(elapsed);
80105168:	83 ec 0c             	sub    $0xc,%esp
8010516b:	ff 75 f4             	pushl  -0xc(%ebp)
8010516e:	e8 31 ff ff ff       	call   801050a4 <print_ticks_as_seconds>
80105173:	83 c4 10             	add    $0x10,%esp
  cprintf("\t%s\t%d\t", state, p->sz);
80105176:	8b 45 08             	mov    0x8(%ebp),%eax
80105179:	8b 00                	mov    (%eax),%eax
8010517b:	83 ec 04             	sub    $0x4,%esp
8010517e:	50                   	push   %eax
8010517f:	ff 75 0c             	pushl  0xc(%ebp)
80105182:	68 3f 8e 10 80       	push   $0x80108e3f
80105187:	e8 3a b2 ff ff       	call   801003c6 <cprintf>
8010518c:	83 c4 10             	add    $0x10,%esp
}
8010518f:	90                   	nop
80105190:	c9                   	leave  
80105191:	c3                   	ret    

80105192 <procdumpP2>:
#endif

#ifdef CS333_P2
void
procdumpP2(struct proc *p, char *state)
{
80105192:	55                   	push   %ebp
80105193:	89 e5                	mov    %esp,%ebp
80105195:	56                   	push   %esi
80105196:	53                   	push   %ebx
80105197:	83 ec 10             	sub    $0x10,%esp
  uint elapsed = ticks - p->start_ticks;
8010519a:	8b 15 c0 65 11 80    	mov    0x801165c0,%edx
801051a0:	8b 45 08             	mov    0x8(%ebp),%eax
801051a3:	8b 40 7c             	mov    0x7c(%eax),%eax
801051a6:	29 c2                	sub    %eax,%edx
801051a8:	89 d0                	mov    %edx,%eax
801051aa:	89 45 f4             	mov    %eax,-0xc(%ebp)


  cprintf("%d\t%s\t%d\t%d\t%d\t", p->pid, p->name, p->uid, p->gid, p->parent->pid);
801051ad:	8b 45 08             	mov    0x8(%ebp),%eax
801051b0:	8b 40 14             	mov    0x14(%eax),%eax
801051b3:	8b 58 10             	mov    0x10(%eax),%ebx
801051b6:	8b 45 08             	mov    0x8(%ebp),%eax
801051b9:	8b 88 84 00 00 00    	mov    0x84(%eax),%ecx
801051bf:	8b 45 08             	mov    0x8(%ebp),%eax
801051c2:	8b 90 80 00 00 00    	mov    0x80(%eax),%edx
801051c8:	8b 45 08             	mov    0x8(%ebp),%eax
801051cb:	8d 70 6c             	lea    0x6c(%eax),%esi
801051ce:	8b 45 08             	mov    0x8(%ebp),%eax
801051d1:	8b 40 10             	mov    0x10(%eax),%eax
801051d4:	83 ec 08             	sub    $0x8,%esp
801051d7:	53                   	push   %ebx
801051d8:	51                   	push   %ecx
801051d9:	52                   	push   %edx
801051da:	56                   	push   %esi
801051db:	50                   	push   %eax
801051dc:	68 47 8e 10 80       	push   $0x80108e47
801051e1:	e8 e0 b1 ff ff       	call   801003c6 <cprintf>
801051e6:	83 c4 20             	add    $0x20,%esp
  print_ticks_as_seconds(elapsed);
801051e9:	83 ec 0c             	sub    $0xc,%esp
801051ec:	ff 75 f4             	pushl  -0xc(%ebp)
801051ef:	e8 b0 fe ff ff       	call   801050a4 <print_ticks_as_seconds>
801051f4:	83 c4 10             	add    $0x10,%esp
  cprintf("\t");
801051f7:	83 ec 0c             	sub    $0xc,%esp
801051fa:	68 57 8e 10 80       	push   $0x80108e57
801051ff:	e8 c2 b1 ff ff       	call   801003c6 <cprintf>
80105204:	83 c4 10             	add    $0x10,%esp
  print_ticks_as_seconds(p->cpu_ticks_total);
80105207:	8b 45 08             	mov    0x8(%ebp),%eax
8010520a:	8b 80 88 00 00 00    	mov    0x88(%eax),%eax
80105210:	83 ec 0c             	sub    $0xc,%esp
80105213:	50                   	push   %eax
80105214:	e8 8b fe ff ff       	call   801050a4 <print_ticks_as_seconds>
80105219:	83 c4 10             	add    $0x10,%esp
  cprintf("\t%s\t%d\t", state, p->sz);
8010521c:	8b 45 08             	mov    0x8(%ebp),%eax
8010521f:	8b 00                	mov    (%eax),%eax
80105221:	83 ec 04             	sub    $0x4,%esp
80105224:	50                   	push   %eax
80105225:	ff 75 0c             	pushl  0xc(%ebp)
80105228:	68 3f 8e 10 80       	push   $0x80108e3f
8010522d:	e8 94 b1 ff ff       	call   801003c6 <cprintf>
80105232:	83 c4 10             	add    $0x10,%esp
}
80105235:	90                   	nop
80105236:	8d 65 f8             	lea    -0x8(%ebp),%esp
80105239:	5b                   	pop    %ebx
8010523a:	5e                   	pop    %esi
8010523b:	5d                   	pop    %ebp
8010523c:	c3                   	ret    

8010523d <procdump>:
#endif

void
procdump(void)
{
8010523d:	55                   	push   %ebp
8010523e:	89 e5                	mov    %esp,%ebp
80105240:	83 ec 48             	sub    $0x48,%esp
#define HEADER "\nPID\tName\tElapsed\tState\tSize\t PCs\n"
#else
#define HEADER ""
#endif

  cprintf(HEADER);
80105243:	83 ec 0c             	sub    $0xc,%esp
80105246:	68 5c 8e 10 80       	push   $0x80108e5c
8010524b:	e8 76 b1 ff ff       	call   801003c6 <cprintf>
80105250:	83 c4 10             	add    $0x10,%esp

  for(p = ptable.proc; p < &ptable.proc[NPROC]; p++){
80105253:	c7 45 f0 b4 39 11 80 	movl   $0x801139b4,-0x10(%ebp)
8010525a:	e9 cd 00 00 00       	jmp    8010532c <procdump+0xef>
    if(p->state == UNUSED)
8010525f:	8b 45 f0             	mov    -0x10(%ebp),%eax
80105262:	8b 40 0c             	mov    0xc(%eax),%eax
80105265:	85 c0                	test   %eax,%eax
80105267:	0f 84 b7 00 00 00    	je     80105324 <procdump+0xe7>
      continue;
    if(p->state >= 0 && p->state < NELEM(states) && states[p->state])
8010526d:	8b 45 f0             	mov    -0x10(%ebp),%eax
80105270:	8b 40 0c             	mov    0xc(%eax),%eax
80105273:	83 f8 05             	cmp    $0x5,%eax
80105276:	77 23                	ja     8010529b <procdump+0x5e>
80105278:	8b 45 f0             	mov    -0x10(%ebp),%eax
8010527b:	8b 40 0c             	mov    0xc(%eax),%eax
8010527e:	8b 04 85 08 c0 10 80 	mov    -0x7fef3ff8(,%eax,4),%eax
80105285:	85 c0                	test   %eax,%eax
80105287:	74 12                	je     8010529b <procdump+0x5e>
      state = states[p->state];
80105289:	8b 45 f0             	mov    -0x10(%ebp),%eax
8010528c:	8b 40 0c             	mov    0xc(%eax),%eax
8010528f:	8b 04 85 08 c0 10 80 	mov    -0x7fef3ff8(,%eax,4),%eax
80105296:	89 45 ec             	mov    %eax,-0x14(%ebp)
80105299:	eb 07                	jmp    801052a2 <procdump+0x65>
    else
      state = "???";
8010529b:	c7 45 ec 90 8e 10 80 	movl   $0x80108e90,-0x14(%ebp)
#if defined(CS333_P2)
    procdumpP2(p, state);
801052a2:	83 ec 08             	sub    $0x8,%esp
801052a5:	ff 75 ec             	pushl  -0x14(%ebp)
801052a8:	ff 75 f0             	pushl  -0x10(%ebp)
801052ab:	e8 e2 fe ff ff       	call   80105192 <procdumpP2>
801052b0:	83 c4 10             	add    $0x10,%esp
#elif defined(CS333_P1)
    procdumpP1(p, state);
#else
    cprintf("%d %s %s", p->pid, state, p->name);
#endif
    if(p->state == SLEEPING){
801052b3:	8b 45 f0             	mov    -0x10(%ebp),%eax
801052b6:	8b 40 0c             	mov    0xc(%eax),%eax
801052b9:	83 f8 02             	cmp    $0x2,%eax
801052bc:	75 54                	jne    80105312 <procdump+0xd5>
      getcallerpcs((uint*)p->context->ebp+2, pc);
801052be:	8b 45 f0             	mov    -0x10(%ebp),%eax
801052c1:	8b 40 1c             	mov    0x1c(%eax),%eax
801052c4:	8b 40 0c             	mov    0xc(%eax),%eax
801052c7:	83 c0 08             	add    $0x8,%eax
801052ca:	89 c2                	mov    %eax,%edx
801052cc:	83 ec 08             	sub    $0x8,%esp
801052cf:	8d 45 c4             	lea    -0x3c(%ebp),%eax
801052d2:	50                   	push   %eax
801052d3:	52                   	push   %edx
801052d4:	e8 76 01 00 00       	call   8010544f <getcallerpcs>
801052d9:	83 c4 10             	add    $0x10,%esp
      for(i=0; i<10 && pc[i] != 0; i++)
801052dc:	c7 45 f4 00 00 00 00 	movl   $0x0,-0xc(%ebp)
801052e3:	eb 1c                	jmp    80105301 <procdump+0xc4>
        cprintf(" %p", pc[i]);
801052e5:	8b 45 f4             	mov    -0xc(%ebp),%eax
801052e8:	8b 44 85 c4          	mov    -0x3c(%ebp,%eax,4),%eax
801052ec:	83 ec 08             	sub    $0x8,%esp
801052ef:	50                   	push   %eax
801052f0:	68 94 8e 10 80       	push   $0x80108e94
801052f5:	e8 cc b0 ff ff       	call   801003c6 <cprintf>
801052fa:	83 c4 10             	add    $0x10,%esp
#else
    cprintf("%d %s %s", p->pid, state, p->name);
#endif
    if(p->state == SLEEPING){
      getcallerpcs((uint*)p->context->ebp+2, pc);
      for(i=0; i<10 && pc[i] != 0; i++)
801052fd:	83 45 f4 01          	addl   $0x1,-0xc(%ebp)
80105301:	83 7d f4 09          	cmpl   $0x9,-0xc(%ebp)
80105305:	7f 0b                	jg     80105312 <procdump+0xd5>
80105307:	8b 45 f4             	mov    -0xc(%ebp),%eax
8010530a:	8b 44 85 c4          	mov    -0x3c(%ebp,%eax,4),%eax
8010530e:	85 c0                	test   %eax,%eax
80105310:	75 d3                	jne    801052e5 <procdump+0xa8>
        cprintf(" %p", pc[i]);
    }
    cprintf("\n");
80105312:	83 ec 0c             	sub    $0xc,%esp
80105315:	68 98 8e 10 80       	push   $0x80108e98
8010531a:	e8 a7 b0 ff ff       	call   801003c6 <cprintf>
8010531f:	83 c4 10             	add    $0x10,%esp
80105322:	eb 01                	jmp    80105325 <procdump+0xe8>

  cprintf(HEADER);

  for(p = ptable.proc; p < &ptable.proc[NPROC]; p++){
    if(p->state == UNUSED)
      continue;
80105324:	90                   	nop
#define HEADER ""
#endif

  cprintf(HEADER);

  for(p = ptable.proc; p < &ptable.proc[NPROC]; p++){
80105325:	81 45 f0 90 00 00 00 	addl   $0x90,-0x10(%ebp)
8010532c:	81 7d f0 b4 5d 11 80 	cmpl   $0x80115db4,-0x10(%ebp)
80105333:	0f 82 26 ff ff ff    	jb     8010525f <procdump+0x22>
      for(i=0; i<10 && pc[i] != 0; i++)
        cprintf(" %p", pc[i]);
    }
    cprintf("\n");
  }
}
80105339:	90                   	nop
8010533a:	c9                   	leave  
8010533b:	c3                   	ret    

8010533c <readeflags>:
  asm volatile("ltr %0" : : "r" (sel));
}

static inline uint
readeflags(void)
{
8010533c:	55                   	push   %ebp
8010533d:	89 e5                	mov    %esp,%ebp
8010533f:	83 ec 10             	sub    $0x10,%esp
  uint eflags;
  asm volatile("pushfl; popl %0" : "=r" (eflags));
80105342:	9c                   	pushf  
80105343:	58                   	pop    %eax
80105344:	89 45 fc             	mov    %eax,-0x4(%ebp)
  return eflags;
80105347:	8b 45 fc             	mov    -0x4(%ebp),%eax
}
8010534a:	c9                   	leave  
8010534b:	c3                   	ret    

8010534c <cli>:
  asm volatile("movw %0, %%gs" : : "r" (v));
}

static inline void
cli(void)
{
8010534c:	55                   	push   %ebp
8010534d:	89 e5                	mov    %esp,%ebp
  asm volatile("cli");
8010534f:	fa                   	cli    
}
80105350:	90                   	nop
80105351:	5d                   	pop    %ebp
80105352:	c3                   	ret    

80105353 <sti>:

static inline void
sti(void)
{
80105353:	55                   	push   %ebp
80105354:	89 e5                	mov    %esp,%ebp
  asm volatile("sti");
80105356:	fb                   	sti    
}
80105357:	90                   	nop
80105358:	5d                   	pop    %ebp
80105359:	c3                   	ret    

8010535a <xchg>:

static inline uint
xchg(volatile uint *addr, uint newval)
{
8010535a:	55                   	push   %ebp
8010535b:	89 e5                	mov    %esp,%ebp
8010535d:	83 ec 10             	sub    $0x10,%esp
  uint result;
  
  // The + in "+m" denotes a read-modify-write operand.
  asm volatile("lock; xchgl %0, %1" :
80105360:	8b 55 08             	mov    0x8(%ebp),%edx
80105363:	8b 45 0c             	mov    0xc(%ebp),%eax
80105366:	8b 4d 08             	mov    0x8(%ebp),%ecx
80105369:	f0 87 02             	lock xchg %eax,(%edx)
8010536c:	89 45 fc             	mov    %eax,-0x4(%ebp)
               "+m" (*addr), "=a" (result) :
               "1" (newval) :
               "cc");
  return result;
8010536f:	8b 45 fc             	mov    -0x4(%ebp),%eax
}
80105372:	c9                   	leave  
80105373:	c3                   	ret    

80105374 <initlock>:
#include "proc.h"
#include "spinlock.h"

void
initlock(struct spinlock *lk, char *name)
{
80105374:	55                   	push   %ebp
80105375:	89 e5                	mov    %esp,%ebp
  lk->name = name;
80105377:	8b 45 08             	mov    0x8(%ebp),%eax
8010537a:	8b 55 0c             	mov    0xc(%ebp),%edx
8010537d:	89 50 04             	mov    %edx,0x4(%eax)
  lk->locked = 0;
80105380:	8b 45 08             	mov    0x8(%ebp),%eax
80105383:	c7 00 00 00 00 00    	movl   $0x0,(%eax)
  lk->cpu = 0;
80105389:	8b 45 08             	mov    0x8(%ebp),%eax
8010538c:	c7 40 08 00 00 00 00 	movl   $0x0,0x8(%eax)
}
80105393:	90                   	nop
80105394:	5d                   	pop    %ebp
80105395:	c3                   	ret    

80105396 <acquire>:
// Loops (spins) until the lock is acquired.
// Holding a lock for a long time may cause
// other CPUs to waste time spinning to acquire it.
void
acquire(struct spinlock *lk)
{
80105396:	55                   	push   %ebp
80105397:	89 e5                	mov    %esp,%ebp
80105399:	83 ec 08             	sub    $0x8,%esp
  pushcli(); // disable interrupts to avoid deadlock.
8010539c:	e8 52 01 00 00       	call   801054f3 <pushcli>
  if(holding(lk))
801053a1:	8b 45 08             	mov    0x8(%ebp),%eax
801053a4:	83 ec 0c             	sub    $0xc,%esp
801053a7:	50                   	push   %eax
801053a8:	e8 1c 01 00 00       	call   801054c9 <holding>
801053ad:	83 c4 10             	add    $0x10,%esp
801053b0:	85 c0                	test   %eax,%eax
801053b2:	74 0d                	je     801053c1 <acquire+0x2b>
    panic("acquire");
801053b4:	83 ec 0c             	sub    $0xc,%esp
801053b7:	68 9a 8e 10 80       	push   $0x80108e9a
801053bc:	e8 a5 b1 ff ff       	call   80100566 <panic>

  // The xchg is atomic.
  // It also serializes, so that reads after acquire are not
  // reordered before it. 
  while(xchg(&lk->locked, 1) != 0)
801053c1:	90                   	nop
801053c2:	8b 45 08             	mov    0x8(%ebp),%eax
801053c5:	83 ec 08             	sub    $0x8,%esp
801053c8:	6a 01                	push   $0x1
801053ca:	50                   	push   %eax
801053cb:	e8 8a ff ff ff       	call   8010535a <xchg>
801053d0:	83 c4 10             	add    $0x10,%esp
801053d3:	85 c0                	test   %eax,%eax
801053d5:	75 eb                	jne    801053c2 <acquire+0x2c>
    ;

  // Record info about lock acquisition for debugging.
  lk->cpu = cpu;
801053d7:	8b 45 08             	mov    0x8(%ebp),%eax
801053da:	65 8b 15 00 00 00 00 	mov    %gs:0x0,%edx
801053e1:	89 50 08             	mov    %edx,0x8(%eax)
  getcallerpcs(&lk, lk->pcs);
801053e4:	8b 45 08             	mov    0x8(%ebp),%eax
801053e7:	83 c0 0c             	add    $0xc,%eax
801053ea:	83 ec 08             	sub    $0x8,%esp
801053ed:	50                   	push   %eax
801053ee:	8d 45 08             	lea    0x8(%ebp),%eax
801053f1:	50                   	push   %eax
801053f2:	e8 58 00 00 00       	call   8010544f <getcallerpcs>
801053f7:	83 c4 10             	add    $0x10,%esp
}
801053fa:	90                   	nop
801053fb:	c9                   	leave  
801053fc:	c3                   	ret    

801053fd <release>:

// Release the lock.
void
release(struct spinlock *lk)
{
801053fd:	55                   	push   %ebp
801053fe:	89 e5                	mov    %esp,%ebp
80105400:	83 ec 08             	sub    $0x8,%esp
  if(!holding(lk))
80105403:	83 ec 0c             	sub    $0xc,%esp
80105406:	ff 75 08             	pushl  0x8(%ebp)
80105409:	e8 bb 00 00 00       	call   801054c9 <holding>
8010540e:	83 c4 10             	add    $0x10,%esp
80105411:	85 c0                	test   %eax,%eax
80105413:	75 0d                	jne    80105422 <release+0x25>
    panic("release");
80105415:	83 ec 0c             	sub    $0xc,%esp
80105418:	68 a2 8e 10 80       	push   $0x80108ea2
8010541d:	e8 44 b1 ff ff       	call   80100566 <panic>

  lk->pcs[0] = 0;
80105422:	8b 45 08             	mov    0x8(%ebp),%eax
80105425:	c7 40 0c 00 00 00 00 	movl   $0x0,0xc(%eax)
  lk->cpu = 0;
8010542c:	8b 45 08             	mov    0x8(%ebp),%eax
8010542f:	c7 40 08 00 00 00 00 	movl   $0x0,0x8(%eax)
  // But the 2007 Intel 64 Architecture Memory Ordering White
  // Paper says that Intel 64 and IA-32 will not move a load
  // after a store. So lock->locked = 0 would work here.
  // The xchg being asm volatile ensures gcc emits it after
  // the above assignments (and after the critical section).
  xchg(&lk->locked, 0);
80105436:	8b 45 08             	mov    0x8(%ebp),%eax
80105439:	83 ec 08             	sub    $0x8,%esp
8010543c:	6a 00                	push   $0x0
8010543e:	50                   	push   %eax
8010543f:	e8 16 ff ff ff       	call   8010535a <xchg>
80105444:	83 c4 10             	add    $0x10,%esp

  popcli();
80105447:	e8 ec 00 00 00       	call   80105538 <popcli>
}
8010544c:	90                   	nop
8010544d:	c9                   	leave  
8010544e:	c3                   	ret    

8010544f <getcallerpcs>:

// Record the current call stack in pcs[] by following the %ebp chain.
void
getcallerpcs(void *v, uint pcs[])
{
8010544f:	55                   	push   %ebp
80105450:	89 e5                	mov    %esp,%ebp
80105452:	83 ec 10             	sub    $0x10,%esp
  uint *ebp;
  int i;
  
  ebp = (uint*)v - 2;
80105455:	8b 45 08             	mov    0x8(%ebp),%eax
80105458:	83 e8 08             	sub    $0x8,%eax
8010545b:	89 45 fc             	mov    %eax,-0x4(%ebp)
  for(i = 0; i < 10; i++){
8010545e:	c7 45 f8 00 00 00 00 	movl   $0x0,-0x8(%ebp)
80105465:	eb 38                	jmp    8010549f <getcallerpcs+0x50>
    if(ebp == 0 || ebp < (uint*)KERNBASE || ebp == (uint*)0xffffffff)
80105467:	83 7d fc 00          	cmpl   $0x0,-0x4(%ebp)
8010546b:	74 53                	je     801054c0 <getcallerpcs+0x71>
8010546d:	81 7d fc ff ff ff 7f 	cmpl   $0x7fffffff,-0x4(%ebp)
80105474:	76 4a                	jbe    801054c0 <getcallerpcs+0x71>
80105476:	83 7d fc ff          	cmpl   $0xffffffff,-0x4(%ebp)
8010547a:	74 44                	je     801054c0 <getcallerpcs+0x71>
      break;
    pcs[i] = ebp[1];     // saved %eip
8010547c:	8b 45 f8             	mov    -0x8(%ebp),%eax
8010547f:	8d 14 85 00 00 00 00 	lea    0x0(,%eax,4),%edx
80105486:	8b 45 0c             	mov    0xc(%ebp),%eax
80105489:	01 c2                	add    %eax,%edx
8010548b:	8b 45 fc             	mov    -0x4(%ebp),%eax
8010548e:	8b 40 04             	mov    0x4(%eax),%eax
80105491:	89 02                	mov    %eax,(%edx)
    ebp = (uint*)ebp[0]; // saved %ebp
80105493:	8b 45 fc             	mov    -0x4(%ebp),%eax
80105496:	8b 00                	mov    (%eax),%eax
80105498:	89 45 fc             	mov    %eax,-0x4(%ebp)
{
  uint *ebp;
  int i;
  
  ebp = (uint*)v - 2;
  for(i = 0; i < 10; i++){
8010549b:	83 45 f8 01          	addl   $0x1,-0x8(%ebp)
8010549f:	83 7d f8 09          	cmpl   $0x9,-0x8(%ebp)
801054a3:	7e c2                	jle    80105467 <getcallerpcs+0x18>
    if(ebp == 0 || ebp < (uint*)KERNBASE || ebp == (uint*)0xffffffff)
      break;
    pcs[i] = ebp[1];     // saved %eip
    ebp = (uint*)ebp[0]; // saved %ebp
  }
  for(; i < 10; i++)
801054a5:	eb 19                	jmp    801054c0 <getcallerpcs+0x71>
    pcs[i] = 0;
801054a7:	8b 45 f8             	mov    -0x8(%ebp),%eax
801054aa:	8d 14 85 00 00 00 00 	lea    0x0(,%eax,4),%edx
801054b1:	8b 45 0c             	mov    0xc(%ebp),%eax
801054b4:	01 d0                	add    %edx,%eax
801054b6:	c7 00 00 00 00 00    	movl   $0x0,(%eax)
    if(ebp == 0 || ebp < (uint*)KERNBASE || ebp == (uint*)0xffffffff)
      break;
    pcs[i] = ebp[1];     // saved %eip
    ebp = (uint*)ebp[0]; // saved %ebp
  }
  for(; i < 10; i++)
801054bc:	83 45 f8 01          	addl   $0x1,-0x8(%ebp)
801054c0:	83 7d f8 09          	cmpl   $0x9,-0x8(%ebp)
801054c4:	7e e1                	jle    801054a7 <getcallerpcs+0x58>
    pcs[i] = 0;
}
801054c6:	90                   	nop
801054c7:	c9                   	leave  
801054c8:	c3                   	ret    

801054c9 <holding>:

// Check whether this cpu is holding the lock.
int
holding(struct spinlock *lock)
{
801054c9:	55                   	push   %ebp
801054ca:	89 e5                	mov    %esp,%ebp
  return lock->locked && lock->cpu == cpu;
801054cc:	8b 45 08             	mov    0x8(%ebp),%eax
801054cf:	8b 00                	mov    (%eax),%eax
801054d1:	85 c0                	test   %eax,%eax
801054d3:	74 17                	je     801054ec <holding+0x23>
801054d5:	8b 45 08             	mov    0x8(%ebp),%eax
801054d8:	8b 50 08             	mov    0x8(%eax),%edx
801054db:	65 a1 00 00 00 00    	mov    %gs:0x0,%eax
801054e1:	39 c2                	cmp    %eax,%edx
801054e3:	75 07                	jne    801054ec <holding+0x23>
801054e5:	b8 01 00 00 00       	mov    $0x1,%eax
801054ea:	eb 05                	jmp    801054f1 <holding+0x28>
801054ec:	b8 00 00 00 00       	mov    $0x0,%eax
}
801054f1:	5d                   	pop    %ebp
801054f2:	c3                   	ret    

801054f3 <pushcli>:
// it takes two popcli to undo two pushcli.  Also, if interrupts
// are off, then pushcli, popcli leaves them off.

void
pushcli(void)
{
801054f3:	55                   	push   %ebp
801054f4:	89 e5                	mov    %esp,%ebp
801054f6:	83 ec 10             	sub    $0x10,%esp
  int eflags;
  
  eflags = readeflags();
801054f9:	e8 3e fe ff ff       	call   8010533c <readeflags>
801054fe:	89 45 fc             	mov    %eax,-0x4(%ebp)
  cli();
80105501:	e8 46 fe ff ff       	call   8010534c <cli>
  if(cpu->ncli++ == 0)
80105506:	65 8b 15 00 00 00 00 	mov    %gs:0x0,%edx
8010550d:	8b 82 ac 00 00 00    	mov    0xac(%edx),%eax
80105513:	8d 48 01             	lea    0x1(%eax),%ecx
80105516:	89 8a ac 00 00 00    	mov    %ecx,0xac(%edx)
8010551c:	85 c0                	test   %eax,%eax
8010551e:	75 15                	jne    80105535 <pushcli+0x42>
    cpu->intena = eflags & FL_IF;
80105520:	65 a1 00 00 00 00    	mov    %gs:0x0,%eax
80105526:	8b 55 fc             	mov    -0x4(%ebp),%edx
80105529:	81 e2 00 02 00 00    	and    $0x200,%edx
8010552f:	89 90 b0 00 00 00    	mov    %edx,0xb0(%eax)
}
80105535:	90                   	nop
80105536:	c9                   	leave  
80105537:	c3                   	ret    

80105538 <popcli>:

void
popcli(void)
{
80105538:	55                   	push   %ebp
80105539:	89 e5                	mov    %esp,%ebp
8010553b:	83 ec 08             	sub    $0x8,%esp
  if(readeflags()&FL_IF)
8010553e:	e8 f9 fd ff ff       	call   8010533c <readeflags>
80105543:	25 00 02 00 00       	and    $0x200,%eax
80105548:	85 c0                	test   %eax,%eax
8010554a:	74 0d                	je     80105559 <popcli+0x21>
    panic("popcli - interruptible");
8010554c:	83 ec 0c             	sub    $0xc,%esp
8010554f:	68 aa 8e 10 80       	push   $0x80108eaa
80105554:	e8 0d b0 ff ff       	call   80100566 <panic>
  if(--cpu->ncli < 0)
80105559:	65 a1 00 00 00 00    	mov    %gs:0x0,%eax
8010555f:	8b 90 ac 00 00 00    	mov    0xac(%eax),%edx
80105565:	83 ea 01             	sub    $0x1,%edx
80105568:	89 90 ac 00 00 00    	mov    %edx,0xac(%eax)
8010556e:	8b 80 ac 00 00 00    	mov    0xac(%eax),%eax
80105574:	85 c0                	test   %eax,%eax
80105576:	79 0d                	jns    80105585 <popcli+0x4d>
    panic("popcli");
80105578:	83 ec 0c             	sub    $0xc,%esp
8010557b:	68 c1 8e 10 80       	push   $0x80108ec1
80105580:	e8 e1 af ff ff       	call   80100566 <panic>
  if(cpu->ncli == 0 && cpu->intena)
80105585:	65 a1 00 00 00 00    	mov    %gs:0x0,%eax
8010558b:	8b 80 ac 00 00 00    	mov    0xac(%eax),%eax
80105591:	85 c0                	test   %eax,%eax
80105593:	75 15                	jne    801055aa <popcli+0x72>
80105595:	65 a1 00 00 00 00    	mov    %gs:0x0,%eax
8010559b:	8b 80 b0 00 00 00    	mov    0xb0(%eax),%eax
801055a1:	85 c0                	test   %eax,%eax
801055a3:	74 05                	je     801055aa <popcli+0x72>
    sti();
801055a5:	e8 a9 fd ff ff       	call   80105353 <sti>
}
801055aa:	90                   	nop
801055ab:	c9                   	leave  
801055ac:	c3                   	ret    

801055ad <stosb>:
               "cc");
}

static inline void
stosb(void *addr, int data, int cnt)
{
801055ad:	55                   	push   %ebp
801055ae:	89 e5                	mov    %esp,%ebp
801055b0:	57                   	push   %edi
801055b1:	53                   	push   %ebx
  asm volatile("cld; rep stosb" :
801055b2:	8b 4d 08             	mov    0x8(%ebp),%ecx
801055b5:	8b 55 10             	mov    0x10(%ebp),%edx
801055b8:	8b 45 0c             	mov    0xc(%ebp),%eax
801055bb:	89 cb                	mov    %ecx,%ebx
801055bd:	89 df                	mov    %ebx,%edi
801055bf:	89 d1                	mov    %edx,%ecx
801055c1:	fc                   	cld    
801055c2:	f3 aa                	rep stos %al,%es:(%edi)
801055c4:	89 ca                	mov    %ecx,%edx
801055c6:	89 fb                	mov    %edi,%ebx
801055c8:	89 5d 08             	mov    %ebx,0x8(%ebp)
801055cb:	89 55 10             	mov    %edx,0x10(%ebp)
               "=D" (addr), "=c" (cnt) :
               "0" (addr), "1" (cnt), "a" (data) :
               "memory", "cc");
}
801055ce:	90                   	nop
801055cf:	5b                   	pop    %ebx
801055d0:	5f                   	pop    %edi
801055d1:	5d                   	pop    %ebp
801055d2:	c3                   	ret    

801055d3 <stosl>:

static inline void
stosl(void *addr, int data, int cnt)
{
801055d3:	55                   	push   %ebp
801055d4:	89 e5                	mov    %esp,%ebp
801055d6:	57                   	push   %edi
801055d7:	53                   	push   %ebx
  asm volatile("cld; rep stosl" :
801055d8:	8b 4d 08             	mov    0x8(%ebp),%ecx
801055db:	8b 55 10             	mov    0x10(%ebp),%edx
801055de:	8b 45 0c             	mov    0xc(%ebp),%eax
801055e1:	89 cb                	mov    %ecx,%ebx
801055e3:	89 df                	mov    %ebx,%edi
801055e5:	89 d1                	mov    %edx,%ecx
801055e7:	fc                   	cld    
801055e8:	f3 ab                	rep stos %eax,%es:(%edi)
801055ea:	89 ca                	mov    %ecx,%edx
801055ec:	89 fb                	mov    %edi,%ebx
801055ee:	89 5d 08             	mov    %ebx,0x8(%ebp)
801055f1:	89 55 10             	mov    %edx,0x10(%ebp)
               "=D" (addr), "=c" (cnt) :
               "0" (addr), "1" (cnt), "a" (data) :
               "memory", "cc");
}
801055f4:	90                   	nop
801055f5:	5b                   	pop    %ebx
801055f6:	5f                   	pop    %edi
801055f7:	5d                   	pop    %ebp
801055f8:	c3                   	ret    

801055f9 <memset>:
#include "types.h"
#include "x86.h"

void*
memset(void *dst, int c, uint n)
{
801055f9:	55                   	push   %ebp
801055fa:	89 e5                	mov    %esp,%ebp
  if ((int)dst%4 == 0 && n%4 == 0){
801055fc:	8b 45 08             	mov    0x8(%ebp),%eax
801055ff:	83 e0 03             	and    $0x3,%eax
80105602:	85 c0                	test   %eax,%eax
80105604:	75 43                	jne    80105649 <memset+0x50>
80105606:	8b 45 10             	mov    0x10(%ebp),%eax
80105609:	83 e0 03             	and    $0x3,%eax
8010560c:	85 c0                	test   %eax,%eax
8010560e:	75 39                	jne    80105649 <memset+0x50>
    c &= 0xFF;
80105610:	81 65 0c ff 00 00 00 	andl   $0xff,0xc(%ebp)
    stosl(dst, (c<<24)|(c<<16)|(c<<8)|c, n/4);
80105617:	8b 45 10             	mov    0x10(%ebp),%eax
8010561a:	c1 e8 02             	shr    $0x2,%eax
8010561d:	89 c1                	mov    %eax,%ecx
8010561f:	8b 45 0c             	mov    0xc(%ebp),%eax
80105622:	c1 e0 18             	shl    $0x18,%eax
80105625:	89 c2                	mov    %eax,%edx
80105627:	8b 45 0c             	mov    0xc(%ebp),%eax
8010562a:	c1 e0 10             	shl    $0x10,%eax
8010562d:	09 c2                	or     %eax,%edx
8010562f:	8b 45 0c             	mov    0xc(%ebp),%eax
80105632:	c1 e0 08             	shl    $0x8,%eax
80105635:	09 d0                	or     %edx,%eax
80105637:	0b 45 0c             	or     0xc(%ebp),%eax
8010563a:	51                   	push   %ecx
8010563b:	50                   	push   %eax
8010563c:	ff 75 08             	pushl  0x8(%ebp)
8010563f:	e8 8f ff ff ff       	call   801055d3 <stosl>
80105644:	83 c4 0c             	add    $0xc,%esp
80105647:	eb 12                	jmp    8010565b <memset+0x62>
  } else
    stosb(dst, c, n);
80105649:	8b 45 10             	mov    0x10(%ebp),%eax
8010564c:	50                   	push   %eax
8010564d:	ff 75 0c             	pushl  0xc(%ebp)
80105650:	ff 75 08             	pushl  0x8(%ebp)
80105653:	e8 55 ff ff ff       	call   801055ad <stosb>
80105658:	83 c4 0c             	add    $0xc,%esp
  return dst;
8010565b:	8b 45 08             	mov    0x8(%ebp),%eax
}
8010565e:	c9                   	leave  
8010565f:	c3                   	ret    

80105660 <memcmp>:

int
memcmp(const void *v1, const void *v2, uint n)
{
80105660:	55                   	push   %ebp
80105661:	89 e5                	mov    %esp,%ebp
80105663:	83 ec 10             	sub    $0x10,%esp
  const uchar *s1, *s2;
  
  s1 = v1;
80105666:	8b 45 08             	mov    0x8(%ebp),%eax
80105669:	89 45 fc             	mov    %eax,-0x4(%ebp)
  s2 = v2;
8010566c:	8b 45 0c             	mov    0xc(%ebp),%eax
8010566f:	89 45 f8             	mov    %eax,-0x8(%ebp)
  while(n-- > 0){
80105672:	eb 30                	jmp    801056a4 <memcmp+0x44>
    if(*s1 != *s2)
80105674:	8b 45 fc             	mov    -0x4(%ebp),%eax
80105677:	0f b6 10             	movzbl (%eax),%edx
8010567a:	8b 45 f8             	mov    -0x8(%ebp),%eax
8010567d:	0f b6 00             	movzbl (%eax),%eax
80105680:	38 c2                	cmp    %al,%dl
80105682:	74 18                	je     8010569c <memcmp+0x3c>
      return *s1 - *s2;
80105684:	8b 45 fc             	mov    -0x4(%ebp),%eax
80105687:	0f b6 00             	movzbl (%eax),%eax
8010568a:	0f b6 d0             	movzbl %al,%edx
8010568d:	8b 45 f8             	mov    -0x8(%ebp),%eax
80105690:	0f b6 00             	movzbl (%eax),%eax
80105693:	0f b6 c0             	movzbl %al,%eax
80105696:	29 c2                	sub    %eax,%edx
80105698:	89 d0                	mov    %edx,%eax
8010569a:	eb 1a                	jmp    801056b6 <memcmp+0x56>
    s1++, s2++;
8010569c:	83 45 fc 01          	addl   $0x1,-0x4(%ebp)
801056a0:	83 45 f8 01          	addl   $0x1,-0x8(%ebp)
{
  const uchar *s1, *s2;
  
  s1 = v1;
  s2 = v2;
  while(n-- > 0){
801056a4:	8b 45 10             	mov    0x10(%ebp),%eax
801056a7:	8d 50 ff             	lea    -0x1(%eax),%edx
801056aa:	89 55 10             	mov    %edx,0x10(%ebp)
801056ad:	85 c0                	test   %eax,%eax
801056af:	75 c3                	jne    80105674 <memcmp+0x14>
    if(*s1 != *s2)
      return *s1 - *s2;
    s1++, s2++;
  }

  return 0;
801056b1:	b8 00 00 00 00       	mov    $0x0,%eax
}
801056b6:	c9                   	leave  
801056b7:	c3                   	ret    

801056b8 <memmove>:

void*
memmove(void *dst, const void *src, uint n)
{
801056b8:	55                   	push   %ebp
801056b9:	89 e5                	mov    %esp,%ebp
801056bb:	83 ec 10             	sub    $0x10,%esp
  const char *s;
  char *d;

  s = src;
801056be:	8b 45 0c             	mov    0xc(%ebp),%eax
801056c1:	89 45 fc             	mov    %eax,-0x4(%ebp)
  d = dst;
801056c4:	8b 45 08             	mov    0x8(%ebp),%eax
801056c7:	89 45 f8             	mov    %eax,-0x8(%ebp)
  if(s < d && s + n > d){
801056ca:	8b 45 fc             	mov    -0x4(%ebp),%eax
801056cd:	3b 45 f8             	cmp    -0x8(%ebp),%eax
801056d0:	73 54                	jae    80105726 <memmove+0x6e>
801056d2:	8b 55 fc             	mov    -0x4(%ebp),%edx
801056d5:	8b 45 10             	mov    0x10(%ebp),%eax
801056d8:	01 d0                	add    %edx,%eax
801056da:	3b 45 f8             	cmp    -0x8(%ebp),%eax
801056dd:	76 47                	jbe    80105726 <memmove+0x6e>
    s += n;
801056df:	8b 45 10             	mov    0x10(%ebp),%eax
801056e2:	01 45 fc             	add    %eax,-0x4(%ebp)
    d += n;
801056e5:	8b 45 10             	mov    0x10(%ebp),%eax
801056e8:	01 45 f8             	add    %eax,-0x8(%ebp)
    while(n-- > 0)
801056eb:	eb 13                	jmp    80105700 <memmove+0x48>
      *--d = *--s;
801056ed:	83 6d f8 01          	subl   $0x1,-0x8(%ebp)
801056f1:	83 6d fc 01          	subl   $0x1,-0x4(%ebp)
801056f5:	8b 45 fc             	mov    -0x4(%ebp),%eax
801056f8:	0f b6 10             	movzbl (%eax),%edx
801056fb:	8b 45 f8             	mov    -0x8(%ebp),%eax
801056fe:	88 10                	mov    %dl,(%eax)
  s = src;
  d = dst;
  if(s < d && s + n > d){
    s += n;
    d += n;
    while(n-- > 0)
80105700:	8b 45 10             	mov    0x10(%ebp),%eax
80105703:	8d 50 ff             	lea    -0x1(%eax),%edx
80105706:	89 55 10             	mov    %edx,0x10(%ebp)
80105709:	85 c0                	test   %eax,%eax
8010570b:	75 e0                	jne    801056ed <memmove+0x35>
  const char *s;
  char *d;

  s = src;
  d = dst;
  if(s < d && s + n > d){
8010570d:	eb 24                	jmp    80105733 <memmove+0x7b>
    d += n;
    while(n-- > 0)
      *--d = *--s;
  } else
    while(n-- > 0)
      *d++ = *s++;
8010570f:	8b 45 f8             	mov    -0x8(%ebp),%eax
80105712:	8d 50 01             	lea    0x1(%eax),%edx
80105715:	89 55 f8             	mov    %edx,-0x8(%ebp)
80105718:	8b 55 fc             	mov    -0x4(%ebp),%edx
8010571b:	8d 4a 01             	lea    0x1(%edx),%ecx
8010571e:	89 4d fc             	mov    %ecx,-0x4(%ebp)
80105721:	0f b6 12             	movzbl (%edx),%edx
80105724:	88 10                	mov    %dl,(%eax)
    s += n;
    d += n;
    while(n-- > 0)
      *--d = *--s;
  } else
    while(n-- > 0)
80105726:	8b 45 10             	mov    0x10(%ebp),%eax
80105729:	8d 50 ff             	lea    -0x1(%eax),%edx
8010572c:	89 55 10             	mov    %edx,0x10(%ebp)
8010572f:	85 c0                	test   %eax,%eax
80105731:	75 dc                	jne    8010570f <memmove+0x57>
      *d++ = *s++;

  return dst;
80105733:	8b 45 08             	mov    0x8(%ebp),%eax
}
80105736:	c9                   	leave  
80105737:	c3                   	ret    

80105738 <memcpy>:

// memcpy exists to placate GCC.  Use memmove.
void*
memcpy(void *dst, const void *src, uint n)
{
80105738:	55                   	push   %ebp
80105739:	89 e5                	mov    %esp,%ebp
  return memmove(dst, src, n);
8010573b:	ff 75 10             	pushl  0x10(%ebp)
8010573e:	ff 75 0c             	pushl  0xc(%ebp)
80105741:	ff 75 08             	pushl  0x8(%ebp)
80105744:	e8 6f ff ff ff       	call   801056b8 <memmove>
80105749:	83 c4 0c             	add    $0xc,%esp
}
8010574c:	c9                   	leave  
8010574d:	c3                   	ret    

8010574e <strncmp>:

int
strncmp(const char *p, const char *q, uint n)
{
8010574e:	55                   	push   %ebp
8010574f:	89 e5                	mov    %esp,%ebp
  while(n > 0 && *p && *p == *q)
80105751:	eb 0c                	jmp    8010575f <strncmp+0x11>
    n--, p++, q++;
80105753:	83 6d 10 01          	subl   $0x1,0x10(%ebp)
80105757:	83 45 08 01          	addl   $0x1,0x8(%ebp)
8010575b:	83 45 0c 01          	addl   $0x1,0xc(%ebp)
}

int
strncmp(const char *p, const char *q, uint n)
{
  while(n > 0 && *p && *p == *q)
8010575f:	83 7d 10 00          	cmpl   $0x0,0x10(%ebp)
80105763:	74 1a                	je     8010577f <strncmp+0x31>
80105765:	8b 45 08             	mov    0x8(%ebp),%eax
80105768:	0f b6 00             	movzbl (%eax),%eax
8010576b:	84 c0                	test   %al,%al
8010576d:	74 10                	je     8010577f <strncmp+0x31>
8010576f:	8b 45 08             	mov    0x8(%ebp),%eax
80105772:	0f b6 10             	movzbl (%eax),%edx
80105775:	8b 45 0c             	mov    0xc(%ebp),%eax
80105778:	0f b6 00             	movzbl (%eax),%eax
8010577b:	38 c2                	cmp    %al,%dl
8010577d:	74 d4                	je     80105753 <strncmp+0x5>
    n--, p++, q++;
  if(n == 0)
8010577f:	83 7d 10 00          	cmpl   $0x0,0x10(%ebp)
80105783:	75 07                	jne    8010578c <strncmp+0x3e>
    return 0;
80105785:	b8 00 00 00 00       	mov    $0x0,%eax
8010578a:	eb 16                	jmp    801057a2 <strncmp+0x54>
  return (uchar)*p - (uchar)*q;
8010578c:	8b 45 08             	mov    0x8(%ebp),%eax
8010578f:	0f b6 00             	movzbl (%eax),%eax
80105792:	0f b6 d0             	movzbl %al,%edx
80105795:	8b 45 0c             	mov    0xc(%ebp),%eax
80105798:	0f b6 00             	movzbl (%eax),%eax
8010579b:	0f b6 c0             	movzbl %al,%eax
8010579e:	29 c2                	sub    %eax,%edx
801057a0:	89 d0                	mov    %edx,%eax
}
801057a2:	5d                   	pop    %ebp
801057a3:	c3                   	ret    

801057a4 <strncpy>:

char*
strncpy(char *s, const char *t, int n)
{
801057a4:	55                   	push   %ebp
801057a5:	89 e5                	mov    %esp,%ebp
801057a7:	83 ec 10             	sub    $0x10,%esp
  char *os;
  
  os = s;
801057aa:	8b 45 08             	mov    0x8(%ebp),%eax
801057ad:	89 45 fc             	mov    %eax,-0x4(%ebp)
  while(n-- > 0 && (*s++ = *t++) != 0)
801057b0:	90                   	nop
801057b1:	8b 45 10             	mov    0x10(%ebp),%eax
801057b4:	8d 50 ff             	lea    -0x1(%eax),%edx
801057b7:	89 55 10             	mov    %edx,0x10(%ebp)
801057ba:	85 c0                	test   %eax,%eax
801057bc:	7e 2c                	jle    801057ea <strncpy+0x46>
801057be:	8b 45 08             	mov    0x8(%ebp),%eax
801057c1:	8d 50 01             	lea    0x1(%eax),%edx
801057c4:	89 55 08             	mov    %edx,0x8(%ebp)
801057c7:	8b 55 0c             	mov    0xc(%ebp),%edx
801057ca:	8d 4a 01             	lea    0x1(%edx),%ecx
801057cd:	89 4d 0c             	mov    %ecx,0xc(%ebp)
801057d0:	0f b6 12             	movzbl (%edx),%edx
801057d3:	88 10                	mov    %dl,(%eax)
801057d5:	0f b6 00             	movzbl (%eax),%eax
801057d8:	84 c0                	test   %al,%al
801057da:	75 d5                	jne    801057b1 <strncpy+0xd>
    ;
  while(n-- > 0)
801057dc:	eb 0c                	jmp    801057ea <strncpy+0x46>
    *s++ = 0;
801057de:	8b 45 08             	mov    0x8(%ebp),%eax
801057e1:	8d 50 01             	lea    0x1(%eax),%edx
801057e4:	89 55 08             	mov    %edx,0x8(%ebp)
801057e7:	c6 00 00             	movb   $0x0,(%eax)
  char *os;
  
  os = s;
  while(n-- > 0 && (*s++ = *t++) != 0)
    ;
  while(n-- > 0)
801057ea:	8b 45 10             	mov    0x10(%ebp),%eax
801057ed:	8d 50 ff             	lea    -0x1(%eax),%edx
801057f0:	89 55 10             	mov    %edx,0x10(%ebp)
801057f3:	85 c0                	test   %eax,%eax
801057f5:	7f e7                	jg     801057de <strncpy+0x3a>
    *s++ = 0;
  return os;
801057f7:	8b 45 fc             	mov    -0x4(%ebp),%eax
}
801057fa:	c9                   	leave  
801057fb:	c3                   	ret    

801057fc <safestrcpy>:

// Like strncpy but guaranteed to NUL-terminate.
char*
safestrcpy(char *s, const char *t, int n)
{
801057fc:	55                   	push   %ebp
801057fd:	89 e5                	mov    %esp,%ebp
801057ff:	83 ec 10             	sub    $0x10,%esp
  char *os;
  
  os = s;
80105802:	8b 45 08             	mov    0x8(%ebp),%eax
80105805:	89 45 fc             	mov    %eax,-0x4(%ebp)
  if(n <= 0)
80105808:	83 7d 10 00          	cmpl   $0x0,0x10(%ebp)
8010580c:	7f 05                	jg     80105813 <safestrcpy+0x17>
    return os;
8010580e:	8b 45 fc             	mov    -0x4(%ebp),%eax
80105811:	eb 31                	jmp    80105844 <safestrcpy+0x48>
  while(--n > 0 && (*s++ = *t++) != 0)
80105813:	83 6d 10 01          	subl   $0x1,0x10(%ebp)
80105817:	83 7d 10 00          	cmpl   $0x0,0x10(%ebp)
8010581b:	7e 1e                	jle    8010583b <safestrcpy+0x3f>
8010581d:	8b 45 08             	mov    0x8(%ebp),%eax
80105820:	8d 50 01             	lea    0x1(%eax),%edx
80105823:	89 55 08             	mov    %edx,0x8(%ebp)
80105826:	8b 55 0c             	mov    0xc(%ebp),%edx
80105829:	8d 4a 01             	lea    0x1(%edx),%ecx
8010582c:	89 4d 0c             	mov    %ecx,0xc(%ebp)
8010582f:	0f b6 12             	movzbl (%edx),%edx
80105832:	88 10                	mov    %dl,(%eax)
80105834:	0f b6 00             	movzbl (%eax),%eax
80105837:	84 c0                	test   %al,%al
80105839:	75 d8                	jne    80105813 <safestrcpy+0x17>
    ;
  *s = 0;
8010583b:	8b 45 08             	mov    0x8(%ebp),%eax
8010583e:	c6 00 00             	movb   $0x0,(%eax)
  return os;
80105841:	8b 45 fc             	mov    -0x4(%ebp),%eax
}
80105844:	c9                   	leave  
80105845:	c3                   	ret    

80105846 <strlen>:

int
strlen(const char *s)
{
80105846:	55                   	push   %ebp
80105847:	89 e5                	mov    %esp,%ebp
80105849:	83 ec 10             	sub    $0x10,%esp
  int n;

  for(n = 0; s[n]; n++)
8010584c:	c7 45 fc 00 00 00 00 	movl   $0x0,-0x4(%ebp)
80105853:	eb 04                	jmp    80105859 <strlen+0x13>
80105855:	83 45 fc 01          	addl   $0x1,-0x4(%ebp)
80105859:	8b 55 fc             	mov    -0x4(%ebp),%edx
8010585c:	8b 45 08             	mov    0x8(%ebp),%eax
8010585f:	01 d0                	add    %edx,%eax
80105861:	0f b6 00             	movzbl (%eax),%eax
80105864:	84 c0                	test   %al,%al
80105866:	75 ed                	jne    80105855 <strlen+0xf>
    ;
  return n;
80105868:	8b 45 fc             	mov    -0x4(%ebp),%eax
}
8010586b:	c9                   	leave  
8010586c:	c3                   	ret    

8010586d <swtch>:
# Save current register context in old
# and then load register context from new.

.globl swtch
swtch:
  movl 4(%esp), %eax
8010586d:	8b 44 24 04          	mov    0x4(%esp),%eax
  movl 8(%esp), %edx
80105871:	8b 54 24 08          	mov    0x8(%esp),%edx

  # Save old callee-save registers
  pushl %ebp
80105875:	55                   	push   %ebp
  pushl %ebx
80105876:	53                   	push   %ebx
  pushl %esi
80105877:	56                   	push   %esi
  pushl %edi
80105878:	57                   	push   %edi

  # Switch stacks
  movl %esp, (%eax)
80105879:	89 20                	mov    %esp,(%eax)
  movl %edx, %esp
8010587b:	89 d4                	mov    %edx,%esp

  # Load new callee-save registers
  popl %edi
8010587d:	5f                   	pop    %edi
  popl %esi
8010587e:	5e                   	pop    %esi
  popl %ebx
8010587f:	5b                   	pop    %ebx
  popl %ebp
80105880:	5d                   	pop    %ebp
  ret
80105881:	c3                   	ret    

80105882 <fetchint>:
// to a saved program counter, and then the first argument.

// Fetch the int at addr from the current process.
int
fetchint(uint addr, int *ip)
{
80105882:	55                   	push   %ebp
80105883:	89 e5                	mov    %esp,%ebp
  if(addr >= proc->sz || addr+4 > proc->sz)
80105885:	65 a1 04 00 00 00    	mov    %gs:0x4,%eax
8010588b:	8b 00                	mov    (%eax),%eax
8010588d:	3b 45 08             	cmp    0x8(%ebp),%eax
80105890:	76 12                	jbe    801058a4 <fetchint+0x22>
80105892:	8b 45 08             	mov    0x8(%ebp),%eax
80105895:	8d 50 04             	lea    0x4(%eax),%edx
80105898:	65 a1 04 00 00 00    	mov    %gs:0x4,%eax
8010589e:	8b 00                	mov    (%eax),%eax
801058a0:	39 c2                	cmp    %eax,%edx
801058a2:	76 07                	jbe    801058ab <fetchint+0x29>
    return -1;
801058a4:	b8 ff ff ff ff       	mov    $0xffffffff,%eax
801058a9:	eb 0f                	jmp    801058ba <fetchint+0x38>
  *ip = *(int*)(addr);
801058ab:	8b 45 08             	mov    0x8(%ebp),%eax
801058ae:	8b 10                	mov    (%eax),%edx
801058b0:	8b 45 0c             	mov    0xc(%ebp),%eax
801058b3:	89 10                	mov    %edx,(%eax)
  return 0;
801058b5:	b8 00 00 00 00       	mov    $0x0,%eax
}
801058ba:	5d                   	pop    %ebp
801058bb:	c3                   	ret    

801058bc <fetchstr>:
// Fetch the nul-terminated string at addr from the current process.
// Doesn't actually copy the string - just sets *pp to point at it.
// Returns length of string, not including nul.
int
fetchstr(uint addr, char **pp)
{
801058bc:	55                   	push   %ebp
801058bd:	89 e5                	mov    %esp,%ebp
801058bf:	83 ec 10             	sub    $0x10,%esp
  char *s, *ep;

  if(addr >= proc->sz)
801058c2:	65 a1 04 00 00 00    	mov    %gs:0x4,%eax
801058c8:	8b 00                	mov    (%eax),%eax
801058ca:	3b 45 08             	cmp    0x8(%ebp),%eax
801058cd:	77 07                	ja     801058d6 <fetchstr+0x1a>
    return -1;
801058cf:	b8 ff ff ff ff       	mov    $0xffffffff,%eax
801058d4:	eb 46                	jmp    8010591c <fetchstr+0x60>
  *pp = (char*)addr;
801058d6:	8b 55 08             	mov    0x8(%ebp),%edx
801058d9:	8b 45 0c             	mov    0xc(%ebp),%eax
801058dc:	89 10                	mov    %edx,(%eax)
  ep = (char*)proc->sz;
801058de:	65 a1 04 00 00 00    	mov    %gs:0x4,%eax
801058e4:	8b 00                	mov    (%eax),%eax
801058e6:	89 45 f8             	mov    %eax,-0x8(%ebp)
  for(s = *pp; s < ep; s++)
801058e9:	8b 45 0c             	mov    0xc(%ebp),%eax
801058ec:	8b 00                	mov    (%eax),%eax
801058ee:	89 45 fc             	mov    %eax,-0x4(%ebp)
801058f1:	eb 1c                	jmp    8010590f <fetchstr+0x53>
    if(*s == 0)
801058f3:	8b 45 fc             	mov    -0x4(%ebp),%eax
801058f6:	0f b6 00             	movzbl (%eax),%eax
801058f9:	84 c0                	test   %al,%al
801058fb:	75 0e                	jne    8010590b <fetchstr+0x4f>
      return s - *pp;
801058fd:	8b 55 fc             	mov    -0x4(%ebp),%edx
80105900:	8b 45 0c             	mov    0xc(%ebp),%eax
80105903:	8b 00                	mov    (%eax),%eax
80105905:	29 c2                	sub    %eax,%edx
80105907:	89 d0                	mov    %edx,%eax
80105909:	eb 11                	jmp    8010591c <fetchstr+0x60>

  if(addr >= proc->sz)
    return -1;
  *pp = (char*)addr;
  ep = (char*)proc->sz;
  for(s = *pp; s < ep; s++)
8010590b:	83 45 fc 01          	addl   $0x1,-0x4(%ebp)
8010590f:	8b 45 fc             	mov    -0x4(%ebp),%eax
80105912:	3b 45 f8             	cmp    -0x8(%ebp),%eax
80105915:	72 dc                	jb     801058f3 <fetchstr+0x37>
    if(*s == 0)
      return s - *pp;
  return -1;
80105917:	b8 ff ff ff ff       	mov    $0xffffffff,%eax
}
8010591c:	c9                   	leave  
8010591d:	c3                   	ret    

8010591e <argint>:

// Fetch the nth 32-bit system call argument.
int
argint(int n, int *ip)
{
8010591e:	55                   	push   %ebp
8010591f:	89 e5                	mov    %esp,%ebp
  return fetchint(proc->tf->esp + 4 + 4*n, ip);
80105921:	65 a1 04 00 00 00    	mov    %gs:0x4,%eax
80105927:	8b 40 18             	mov    0x18(%eax),%eax
8010592a:	8b 40 44             	mov    0x44(%eax),%eax
8010592d:	8b 55 08             	mov    0x8(%ebp),%edx
80105930:	c1 e2 02             	shl    $0x2,%edx
80105933:	01 d0                	add    %edx,%eax
80105935:	83 c0 04             	add    $0x4,%eax
80105938:	ff 75 0c             	pushl  0xc(%ebp)
8010593b:	50                   	push   %eax
8010593c:	e8 41 ff ff ff       	call   80105882 <fetchint>
80105941:	83 c4 08             	add    $0x8,%esp
}
80105944:	c9                   	leave  
80105945:	c3                   	ret    

80105946 <argptr>:
// Fetch the nth word-sized system call argument as a pointer
// to a block of memory of size n bytes.  Check that the pointer
// lies within the process address space.
int
argptr(int n, char **pp, int size)
{
80105946:	55                   	push   %ebp
80105947:	89 e5                	mov    %esp,%ebp
80105949:	83 ec 10             	sub    $0x10,%esp
  int i;
  
  if(argint(n, &i) < 0)
8010594c:	8d 45 fc             	lea    -0x4(%ebp),%eax
8010594f:	50                   	push   %eax
80105950:	ff 75 08             	pushl  0x8(%ebp)
80105953:	e8 c6 ff ff ff       	call   8010591e <argint>
80105958:	83 c4 08             	add    $0x8,%esp
8010595b:	85 c0                	test   %eax,%eax
8010595d:	79 07                	jns    80105966 <argptr+0x20>
    return -1;
8010595f:	b8 ff ff ff ff       	mov    $0xffffffff,%eax
80105964:	eb 3b                	jmp    801059a1 <argptr+0x5b>
  if((uint)i >= proc->sz || (uint)i+size > proc->sz)
80105966:	65 a1 04 00 00 00    	mov    %gs:0x4,%eax
8010596c:	8b 00                	mov    (%eax),%eax
8010596e:	8b 55 fc             	mov    -0x4(%ebp),%edx
80105971:	39 d0                	cmp    %edx,%eax
80105973:	76 16                	jbe    8010598b <argptr+0x45>
80105975:	8b 45 fc             	mov    -0x4(%ebp),%eax
80105978:	89 c2                	mov    %eax,%edx
8010597a:	8b 45 10             	mov    0x10(%ebp),%eax
8010597d:	01 c2                	add    %eax,%edx
8010597f:	65 a1 04 00 00 00    	mov    %gs:0x4,%eax
80105985:	8b 00                	mov    (%eax),%eax
80105987:	39 c2                	cmp    %eax,%edx
80105989:	76 07                	jbe    80105992 <argptr+0x4c>
    return -1;
8010598b:	b8 ff ff ff ff       	mov    $0xffffffff,%eax
80105990:	eb 0f                	jmp    801059a1 <argptr+0x5b>
  *pp = (char*)i;
80105992:	8b 45 fc             	mov    -0x4(%ebp),%eax
80105995:	89 c2                	mov    %eax,%edx
80105997:	8b 45 0c             	mov    0xc(%ebp),%eax
8010599a:	89 10                	mov    %edx,(%eax)
  return 0;
8010599c:	b8 00 00 00 00       	mov    $0x0,%eax
}
801059a1:	c9                   	leave  
801059a2:	c3                   	ret    

801059a3 <argstr>:
// Check that the pointer is valid and the string is nul-terminated.
// (There is no shared writable memory, so the string can't change
// between this check and being used by the kernel.)
int
argstr(int n, char **pp)
{
801059a3:	55                   	push   %ebp
801059a4:	89 e5                	mov    %esp,%ebp
801059a6:	83 ec 10             	sub    $0x10,%esp
  int addr;
  if(argint(n, &addr) < 0)
801059a9:	8d 45 fc             	lea    -0x4(%ebp),%eax
801059ac:	50                   	push   %eax
801059ad:	ff 75 08             	pushl  0x8(%ebp)
801059b0:	e8 69 ff ff ff       	call   8010591e <argint>
801059b5:	83 c4 08             	add    $0x8,%esp
801059b8:	85 c0                	test   %eax,%eax
801059ba:	79 07                	jns    801059c3 <argstr+0x20>
    return -1;
801059bc:	b8 ff ff ff ff       	mov    $0xffffffff,%eax
801059c1:	eb 0f                	jmp    801059d2 <argstr+0x2f>
  return fetchstr(addr, pp);
801059c3:	8b 45 fc             	mov    -0x4(%ebp),%eax
801059c6:	ff 75 0c             	pushl  0xc(%ebp)
801059c9:	50                   	push   %eax
801059ca:	e8 ed fe ff ff       	call   801058bc <fetchstr>
801059cf:	83 c4 08             	add    $0x8,%esp
}
801059d2:	c9                   	leave  
801059d3:	c3                   	ret    

801059d4 <syscall>:
};
#endif

void
syscall(void)
{
801059d4:	55                   	push   %ebp
801059d5:	89 e5                	mov    %esp,%ebp
801059d7:	53                   	push   %ebx
801059d8:	83 ec 14             	sub    $0x14,%esp
  int num;

  num = proc->tf->eax;
801059db:	65 a1 04 00 00 00    	mov    %gs:0x4,%eax
801059e1:	8b 40 18             	mov    0x18(%eax),%eax
801059e4:	8b 40 1c             	mov    0x1c(%eax),%eax
801059e7:	89 45 f4             	mov    %eax,-0xc(%ebp)
  if(num > 0 && num < NELEM(syscalls) && syscalls[num]) {
801059ea:	83 7d f4 00          	cmpl   $0x0,-0xc(%ebp)
801059ee:	7e 30                	jle    80105a20 <syscall+0x4c>
801059f0:	8b 45 f4             	mov    -0xc(%ebp),%eax
801059f3:	83 f8 1d             	cmp    $0x1d,%eax
801059f6:	77 28                	ja     80105a20 <syscall+0x4c>
801059f8:	8b 45 f4             	mov    -0xc(%ebp),%eax
801059fb:	8b 04 85 40 c0 10 80 	mov    -0x7fef3fc0(,%eax,4),%eax
80105a02:	85 c0                	test   %eax,%eax
80105a04:	74 1a                	je     80105a20 <syscall+0x4c>
    proc->tf->eax = syscalls[num]();
80105a06:	65 a1 04 00 00 00    	mov    %gs:0x4,%eax
80105a0c:	8b 58 18             	mov    0x18(%eax),%ebx
80105a0f:	8b 45 f4             	mov    -0xc(%ebp),%eax
80105a12:	8b 04 85 40 c0 10 80 	mov    -0x7fef3fc0(,%eax,4),%eax
80105a19:	ff d0                	call   *%eax
80105a1b:	89 43 1c             	mov    %eax,0x1c(%ebx)
80105a1e:	eb 34                	jmp    80105a54 <syscall+0x80>
    #ifdef PRINT_SYSCALLS
    cprintf("%s -> %d\n", syscallnames[num], proc->tf->eax);
    #endif
  } else {
    cprintf("%d %s: unknown sys call %d\n",
            proc->pid, proc->name, num);
80105a20:	65 a1 04 00 00 00    	mov    %gs:0x4,%eax
80105a26:	8d 50 6c             	lea    0x6c(%eax),%edx
80105a29:	65 a1 04 00 00 00    	mov    %gs:0x4,%eax
// some code goes here
    #ifdef PRINT_SYSCALLS
    cprintf("%s -> %d\n", syscallnames[num], proc->tf->eax);
    #endif
  } else {
    cprintf("%d %s: unknown sys call %d\n",
80105a2f:	8b 40 10             	mov    0x10(%eax),%eax
80105a32:	ff 75 f4             	pushl  -0xc(%ebp)
80105a35:	52                   	push   %edx
80105a36:	50                   	push   %eax
80105a37:	68 c8 8e 10 80       	push   $0x80108ec8
80105a3c:	e8 85 a9 ff ff       	call   801003c6 <cprintf>
80105a41:	83 c4 10             	add    $0x10,%esp
            proc->pid, proc->name, num);
    proc->tf->eax = -1;
80105a44:	65 a1 04 00 00 00    	mov    %gs:0x4,%eax
80105a4a:	8b 40 18             	mov    0x18(%eax),%eax
80105a4d:	c7 40 1c ff ff ff ff 	movl   $0xffffffff,0x1c(%eax)
  }
}
80105a54:	90                   	nop
80105a55:	8b 5d fc             	mov    -0x4(%ebp),%ebx
80105a58:	c9                   	leave  
80105a59:	c3                   	ret    

80105a5a <argfd>:

// Fetch the nth word-sized system call argument as a file descriptor
// and return both the descriptor and the corresponding struct file.
static int
argfd(int n, int *pfd, struct file **pf)
{
80105a5a:	55                   	push   %ebp
80105a5b:	89 e5                	mov    %esp,%ebp
80105a5d:	83 ec 18             	sub    $0x18,%esp
  int fd;
  struct file *f;

  if(argint(n, &fd) < 0)
80105a60:	83 ec 08             	sub    $0x8,%esp
80105a63:	8d 45 f0             	lea    -0x10(%ebp),%eax
80105a66:	50                   	push   %eax
80105a67:	ff 75 08             	pushl  0x8(%ebp)
80105a6a:	e8 af fe ff ff       	call   8010591e <argint>
80105a6f:	83 c4 10             	add    $0x10,%esp
80105a72:	85 c0                	test   %eax,%eax
80105a74:	79 07                	jns    80105a7d <argfd+0x23>
    return -1;
80105a76:	b8 ff ff ff ff       	mov    $0xffffffff,%eax
80105a7b:	eb 50                	jmp    80105acd <argfd+0x73>
  if(fd < 0 || fd >= NOFILE || (f=proc->ofile[fd]) == 0)
80105a7d:	8b 45 f0             	mov    -0x10(%ebp),%eax
80105a80:	85 c0                	test   %eax,%eax
80105a82:	78 21                	js     80105aa5 <argfd+0x4b>
80105a84:	8b 45 f0             	mov    -0x10(%ebp),%eax
80105a87:	83 f8 0f             	cmp    $0xf,%eax
80105a8a:	7f 19                	jg     80105aa5 <argfd+0x4b>
80105a8c:	65 a1 04 00 00 00    	mov    %gs:0x4,%eax
80105a92:	8b 55 f0             	mov    -0x10(%ebp),%edx
80105a95:	83 c2 08             	add    $0x8,%edx
80105a98:	8b 44 90 08          	mov    0x8(%eax,%edx,4),%eax
80105a9c:	89 45 f4             	mov    %eax,-0xc(%ebp)
80105a9f:	83 7d f4 00          	cmpl   $0x0,-0xc(%ebp)
80105aa3:	75 07                	jne    80105aac <argfd+0x52>
    return -1;
80105aa5:	b8 ff ff ff ff       	mov    $0xffffffff,%eax
80105aaa:	eb 21                	jmp    80105acd <argfd+0x73>
  if(pfd)
80105aac:	83 7d 0c 00          	cmpl   $0x0,0xc(%ebp)
80105ab0:	74 08                	je     80105aba <argfd+0x60>
    *pfd = fd;
80105ab2:	8b 55 f0             	mov    -0x10(%ebp),%edx
80105ab5:	8b 45 0c             	mov    0xc(%ebp),%eax
80105ab8:	89 10                	mov    %edx,(%eax)
  if(pf)
80105aba:	83 7d 10 00          	cmpl   $0x0,0x10(%ebp)
80105abe:	74 08                	je     80105ac8 <argfd+0x6e>
    *pf = f;
80105ac0:	8b 45 10             	mov    0x10(%ebp),%eax
80105ac3:	8b 55 f4             	mov    -0xc(%ebp),%edx
80105ac6:	89 10                	mov    %edx,(%eax)
  return 0;
80105ac8:	b8 00 00 00 00       	mov    $0x0,%eax
}
80105acd:	c9                   	leave  
80105ace:	c3                   	ret    

80105acf <fdalloc>:

// Allocate a file descriptor for the given file.
// Takes over file reference from caller on success.
static int
fdalloc(struct file *f)
{
80105acf:	55                   	push   %ebp
80105ad0:	89 e5                	mov    %esp,%ebp
80105ad2:	83 ec 10             	sub    $0x10,%esp
  int fd;

  for(fd = 0; fd < NOFILE; fd++){
80105ad5:	c7 45 fc 00 00 00 00 	movl   $0x0,-0x4(%ebp)
80105adc:	eb 30                	jmp    80105b0e <fdalloc+0x3f>
    if(proc->ofile[fd] == 0){
80105ade:	65 a1 04 00 00 00    	mov    %gs:0x4,%eax
80105ae4:	8b 55 fc             	mov    -0x4(%ebp),%edx
80105ae7:	83 c2 08             	add    $0x8,%edx
80105aea:	8b 44 90 08          	mov    0x8(%eax,%edx,4),%eax
80105aee:	85 c0                	test   %eax,%eax
80105af0:	75 18                	jne    80105b0a <fdalloc+0x3b>
      proc->ofile[fd] = f;
80105af2:	65 a1 04 00 00 00    	mov    %gs:0x4,%eax
80105af8:	8b 55 fc             	mov    -0x4(%ebp),%edx
80105afb:	8d 4a 08             	lea    0x8(%edx),%ecx
80105afe:	8b 55 08             	mov    0x8(%ebp),%edx
80105b01:	89 54 88 08          	mov    %edx,0x8(%eax,%ecx,4)
      return fd;
80105b05:	8b 45 fc             	mov    -0x4(%ebp),%eax
80105b08:	eb 0f                	jmp    80105b19 <fdalloc+0x4a>
static int
fdalloc(struct file *f)
{
  int fd;

  for(fd = 0; fd < NOFILE; fd++){
80105b0a:	83 45 fc 01          	addl   $0x1,-0x4(%ebp)
80105b0e:	83 7d fc 0f          	cmpl   $0xf,-0x4(%ebp)
80105b12:	7e ca                	jle    80105ade <fdalloc+0xf>
    if(proc->ofile[fd] == 0){
      proc->ofile[fd] = f;
      return fd;
    }
  }
  return -1;
80105b14:	b8 ff ff ff ff       	mov    $0xffffffff,%eax
}
80105b19:	c9                   	leave  
80105b1a:	c3                   	ret    

80105b1b <sys_dup>:

int
sys_dup(void)
{
80105b1b:	55                   	push   %ebp
80105b1c:	89 e5                	mov    %esp,%ebp
80105b1e:	83 ec 18             	sub    $0x18,%esp
  struct file *f;
  int fd;
  
  if(argfd(0, 0, &f) < 0)
80105b21:	83 ec 04             	sub    $0x4,%esp
80105b24:	8d 45 f0             	lea    -0x10(%ebp),%eax
80105b27:	50                   	push   %eax
80105b28:	6a 00                	push   $0x0
80105b2a:	6a 00                	push   $0x0
80105b2c:	e8 29 ff ff ff       	call   80105a5a <argfd>
80105b31:	83 c4 10             	add    $0x10,%esp
80105b34:	85 c0                	test   %eax,%eax
80105b36:	79 07                	jns    80105b3f <sys_dup+0x24>
    return -1;
80105b38:	b8 ff ff ff ff       	mov    $0xffffffff,%eax
80105b3d:	eb 31                	jmp    80105b70 <sys_dup+0x55>
  if((fd=fdalloc(f)) < 0)
80105b3f:	8b 45 f0             	mov    -0x10(%ebp),%eax
80105b42:	83 ec 0c             	sub    $0xc,%esp
80105b45:	50                   	push   %eax
80105b46:	e8 84 ff ff ff       	call   80105acf <fdalloc>
80105b4b:	83 c4 10             	add    $0x10,%esp
80105b4e:	89 45 f4             	mov    %eax,-0xc(%ebp)
80105b51:	83 7d f4 00          	cmpl   $0x0,-0xc(%ebp)
80105b55:	79 07                	jns    80105b5e <sys_dup+0x43>
    return -1;
80105b57:	b8 ff ff ff ff       	mov    $0xffffffff,%eax
80105b5c:	eb 12                	jmp    80105b70 <sys_dup+0x55>
  filedup(f);
80105b5e:	8b 45 f0             	mov    -0x10(%ebp),%eax
80105b61:	83 ec 0c             	sub    $0xc,%esp
80105b64:	50                   	push   %eax
80105b65:	e8 96 b4 ff ff       	call   80101000 <filedup>
80105b6a:	83 c4 10             	add    $0x10,%esp
  return fd;
80105b6d:	8b 45 f4             	mov    -0xc(%ebp),%eax
}
80105b70:	c9                   	leave  
80105b71:	c3                   	ret    

80105b72 <sys_read>:

int
sys_read(void)
{
80105b72:	55                   	push   %ebp
80105b73:	89 e5                	mov    %esp,%ebp
80105b75:	83 ec 18             	sub    $0x18,%esp
  struct file *f;
  int n;
  char *p;

  if(argfd(0, 0, &f) < 0 || argint(2, &n) < 0 || argptr(1, &p, n) < 0)
80105b78:	83 ec 04             	sub    $0x4,%esp
80105b7b:	8d 45 f4             	lea    -0xc(%ebp),%eax
80105b7e:	50                   	push   %eax
80105b7f:	6a 00                	push   $0x0
80105b81:	6a 00                	push   $0x0
80105b83:	e8 d2 fe ff ff       	call   80105a5a <argfd>
80105b88:	83 c4 10             	add    $0x10,%esp
80105b8b:	85 c0                	test   %eax,%eax
80105b8d:	78 2e                	js     80105bbd <sys_read+0x4b>
80105b8f:	83 ec 08             	sub    $0x8,%esp
80105b92:	8d 45 f0             	lea    -0x10(%ebp),%eax
80105b95:	50                   	push   %eax
80105b96:	6a 02                	push   $0x2
80105b98:	e8 81 fd ff ff       	call   8010591e <argint>
80105b9d:	83 c4 10             	add    $0x10,%esp
80105ba0:	85 c0                	test   %eax,%eax
80105ba2:	78 19                	js     80105bbd <sys_read+0x4b>
80105ba4:	8b 45 f0             	mov    -0x10(%ebp),%eax
80105ba7:	83 ec 04             	sub    $0x4,%esp
80105baa:	50                   	push   %eax
80105bab:	8d 45 ec             	lea    -0x14(%ebp),%eax
80105bae:	50                   	push   %eax
80105baf:	6a 01                	push   $0x1
80105bb1:	e8 90 fd ff ff       	call   80105946 <argptr>
80105bb6:	83 c4 10             	add    $0x10,%esp
80105bb9:	85 c0                	test   %eax,%eax
80105bbb:	79 07                	jns    80105bc4 <sys_read+0x52>
    return -1;
80105bbd:	b8 ff ff ff ff       	mov    $0xffffffff,%eax
80105bc2:	eb 17                	jmp    80105bdb <sys_read+0x69>
  return fileread(f, p, n);
80105bc4:	8b 4d f0             	mov    -0x10(%ebp),%ecx
80105bc7:	8b 55 ec             	mov    -0x14(%ebp),%edx
80105bca:	8b 45 f4             	mov    -0xc(%ebp),%eax
80105bcd:	83 ec 04             	sub    $0x4,%esp
80105bd0:	51                   	push   %ecx
80105bd1:	52                   	push   %edx
80105bd2:	50                   	push   %eax
80105bd3:	e8 b8 b5 ff ff       	call   80101190 <fileread>
80105bd8:	83 c4 10             	add    $0x10,%esp
}
80105bdb:	c9                   	leave  
80105bdc:	c3                   	ret    

80105bdd <sys_write>:

int
sys_write(void)
{
80105bdd:	55                   	push   %ebp
80105bde:	89 e5                	mov    %esp,%ebp
80105be0:	83 ec 18             	sub    $0x18,%esp
  struct file *f;
  int n;
  char *p;

  if(argfd(0, 0, &f) < 0 || argint(2, &n) < 0 || argptr(1, &p, n) < 0)
80105be3:	83 ec 04             	sub    $0x4,%esp
80105be6:	8d 45 f4             	lea    -0xc(%ebp),%eax
80105be9:	50                   	push   %eax
80105bea:	6a 00                	push   $0x0
80105bec:	6a 00                	push   $0x0
80105bee:	e8 67 fe ff ff       	call   80105a5a <argfd>
80105bf3:	83 c4 10             	add    $0x10,%esp
80105bf6:	85 c0                	test   %eax,%eax
80105bf8:	78 2e                	js     80105c28 <sys_write+0x4b>
80105bfa:	83 ec 08             	sub    $0x8,%esp
80105bfd:	8d 45 f0             	lea    -0x10(%ebp),%eax
80105c00:	50                   	push   %eax
80105c01:	6a 02                	push   $0x2
80105c03:	e8 16 fd ff ff       	call   8010591e <argint>
80105c08:	83 c4 10             	add    $0x10,%esp
80105c0b:	85 c0                	test   %eax,%eax
80105c0d:	78 19                	js     80105c28 <sys_write+0x4b>
80105c0f:	8b 45 f0             	mov    -0x10(%ebp),%eax
80105c12:	83 ec 04             	sub    $0x4,%esp
80105c15:	50                   	push   %eax
80105c16:	8d 45 ec             	lea    -0x14(%ebp),%eax
80105c19:	50                   	push   %eax
80105c1a:	6a 01                	push   $0x1
80105c1c:	e8 25 fd ff ff       	call   80105946 <argptr>
80105c21:	83 c4 10             	add    $0x10,%esp
80105c24:	85 c0                	test   %eax,%eax
80105c26:	79 07                	jns    80105c2f <sys_write+0x52>
    return -1;
80105c28:	b8 ff ff ff ff       	mov    $0xffffffff,%eax
80105c2d:	eb 17                	jmp    80105c46 <sys_write+0x69>
  return filewrite(f, p, n);
80105c2f:	8b 4d f0             	mov    -0x10(%ebp),%ecx
80105c32:	8b 55 ec             	mov    -0x14(%ebp),%edx
80105c35:	8b 45 f4             	mov    -0xc(%ebp),%eax
80105c38:	83 ec 04             	sub    $0x4,%esp
80105c3b:	51                   	push   %ecx
80105c3c:	52                   	push   %edx
80105c3d:	50                   	push   %eax
80105c3e:	e8 05 b6 ff ff       	call   80101248 <filewrite>
80105c43:	83 c4 10             	add    $0x10,%esp
}
80105c46:	c9                   	leave  
80105c47:	c3                   	ret    

80105c48 <sys_close>:

int
sys_close(void)
{
80105c48:	55                   	push   %ebp
80105c49:	89 e5                	mov    %esp,%ebp
80105c4b:	83 ec 18             	sub    $0x18,%esp
  int fd;
  struct file *f;
  
  if(argfd(0, &fd, &f) < 0)
80105c4e:	83 ec 04             	sub    $0x4,%esp
80105c51:	8d 45 f0             	lea    -0x10(%ebp),%eax
80105c54:	50                   	push   %eax
80105c55:	8d 45 f4             	lea    -0xc(%ebp),%eax
80105c58:	50                   	push   %eax
80105c59:	6a 00                	push   $0x0
80105c5b:	e8 fa fd ff ff       	call   80105a5a <argfd>
80105c60:	83 c4 10             	add    $0x10,%esp
80105c63:	85 c0                	test   %eax,%eax
80105c65:	79 07                	jns    80105c6e <sys_close+0x26>
    return -1;
80105c67:	b8 ff ff ff ff       	mov    $0xffffffff,%eax
80105c6c:	eb 28                	jmp    80105c96 <sys_close+0x4e>
  proc->ofile[fd] = 0;
80105c6e:	65 a1 04 00 00 00    	mov    %gs:0x4,%eax
80105c74:	8b 55 f4             	mov    -0xc(%ebp),%edx
80105c77:	83 c2 08             	add    $0x8,%edx
80105c7a:	c7 44 90 08 00 00 00 	movl   $0x0,0x8(%eax,%edx,4)
80105c81:	00 
  fileclose(f);
80105c82:	8b 45 f0             	mov    -0x10(%ebp),%eax
80105c85:	83 ec 0c             	sub    $0xc,%esp
80105c88:	50                   	push   %eax
80105c89:	e8 c3 b3 ff ff       	call   80101051 <fileclose>
80105c8e:	83 c4 10             	add    $0x10,%esp
  return 0;
80105c91:	b8 00 00 00 00       	mov    $0x0,%eax
}
80105c96:	c9                   	leave  
80105c97:	c3                   	ret    

80105c98 <sys_fstat>:

int
sys_fstat(void)
{
80105c98:	55                   	push   %ebp
80105c99:	89 e5                	mov    %esp,%ebp
80105c9b:	83 ec 18             	sub    $0x18,%esp
  struct file *f;
  struct stat *st;
  
  if(argfd(0, 0, &f) < 0 || argptr(1, (void*)&st, sizeof(*st)) < 0)
80105c9e:	83 ec 04             	sub    $0x4,%esp
80105ca1:	8d 45 f4             	lea    -0xc(%ebp),%eax
80105ca4:	50                   	push   %eax
80105ca5:	6a 00                	push   $0x0
80105ca7:	6a 00                	push   $0x0
80105ca9:	e8 ac fd ff ff       	call   80105a5a <argfd>
80105cae:	83 c4 10             	add    $0x10,%esp
80105cb1:	85 c0                	test   %eax,%eax
80105cb3:	78 17                	js     80105ccc <sys_fstat+0x34>
80105cb5:	83 ec 04             	sub    $0x4,%esp
80105cb8:	6a 14                	push   $0x14
80105cba:	8d 45 f0             	lea    -0x10(%ebp),%eax
80105cbd:	50                   	push   %eax
80105cbe:	6a 01                	push   $0x1
80105cc0:	e8 81 fc ff ff       	call   80105946 <argptr>
80105cc5:	83 c4 10             	add    $0x10,%esp
80105cc8:	85 c0                	test   %eax,%eax
80105cca:	79 07                	jns    80105cd3 <sys_fstat+0x3b>
    return -1;
80105ccc:	b8 ff ff ff ff       	mov    $0xffffffff,%eax
80105cd1:	eb 13                	jmp    80105ce6 <sys_fstat+0x4e>
  return filestat(f, st);
80105cd3:	8b 55 f0             	mov    -0x10(%ebp),%edx
80105cd6:	8b 45 f4             	mov    -0xc(%ebp),%eax
80105cd9:	83 ec 08             	sub    $0x8,%esp
80105cdc:	52                   	push   %edx
80105cdd:	50                   	push   %eax
80105cde:	e8 56 b4 ff ff       	call   80101139 <filestat>
80105ce3:	83 c4 10             	add    $0x10,%esp
}
80105ce6:	c9                   	leave  
80105ce7:	c3                   	ret    

80105ce8 <sys_link>:

// Create the path new as a link to the same inode as old.
int
sys_link(void)
{
80105ce8:	55                   	push   %ebp
80105ce9:	89 e5                	mov    %esp,%ebp
80105ceb:	83 ec 28             	sub    $0x28,%esp
  char name[DIRSIZ], *new, *old;
  struct inode *dp, *ip;

  if(argstr(0, &old) < 0 || argstr(1, &new) < 0)
80105cee:	83 ec 08             	sub    $0x8,%esp
80105cf1:	8d 45 d8             	lea    -0x28(%ebp),%eax
80105cf4:	50                   	push   %eax
80105cf5:	6a 00                	push   $0x0
80105cf7:	e8 a7 fc ff ff       	call   801059a3 <argstr>
80105cfc:	83 c4 10             	add    $0x10,%esp
80105cff:	85 c0                	test   %eax,%eax
80105d01:	78 15                	js     80105d18 <sys_link+0x30>
80105d03:	83 ec 08             	sub    $0x8,%esp
80105d06:	8d 45 dc             	lea    -0x24(%ebp),%eax
80105d09:	50                   	push   %eax
80105d0a:	6a 01                	push   $0x1
80105d0c:	e8 92 fc ff ff       	call   801059a3 <argstr>
80105d11:	83 c4 10             	add    $0x10,%esp
80105d14:	85 c0                	test   %eax,%eax
80105d16:	79 0a                	jns    80105d22 <sys_link+0x3a>
    return -1;
80105d18:	b8 ff ff ff ff       	mov    $0xffffffff,%eax
80105d1d:	e9 68 01 00 00       	jmp    80105e8a <sys_link+0x1a2>

  begin_op();
80105d22:	e8 26 d8 ff ff       	call   8010354d <begin_op>
  if((ip = namei(old)) == 0){
80105d27:	8b 45 d8             	mov    -0x28(%ebp),%eax
80105d2a:	83 ec 0c             	sub    $0xc,%esp
80105d2d:	50                   	push   %eax
80105d2e:	e8 f5 c7 ff ff       	call   80102528 <namei>
80105d33:	83 c4 10             	add    $0x10,%esp
80105d36:	89 45 f4             	mov    %eax,-0xc(%ebp)
80105d39:	83 7d f4 00          	cmpl   $0x0,-0xc(%ebp)
80105d3d:	75 0f                	jne    80105d4e <sys_link+0x66>
    end_op();
80105d3f:	e8 95 d8 ff ff       	call   801035d9 <end_op>
    return -1;
80105d44:	b8 ff ff ff ff       	mov    $0xffffffff,%eax
80105d49:	e9 3c 01 00 00       	jmp    80105e8a <sys_link+0x1a2>
  }

  ilock(ip);
80105d4e:	83 ec 0c             	sub    $0xc,%esp
80105d51:	ff 75 f4             	pushl  -0xc(%ebp)
80105d54:	e8 11 bc ff ff       	call   8010196a <ilock>
80105d59:	83 c4 10             	add    $0x10,%esp
  if(ip->type == T_DIR){
80105d5c:	8b 45 f4             	mov    -0xc(%ebp),%eax
80105d5f:	0f b7 40 10          	movzwl 0x10(%eax),%eax
80105d63:	66 83 f8 01          	cmp    $0x1,%ax
80105d67:	75 1d                	jne    80105d86 <sys_link+0x9e>
    iunlockput(ip);
80105d69:	83 ec 0c             	sub    $0xc,%esp
80105d6c:	ff 75 f4             	pushl  -0xc(%ebp)
80105d6f:	e8 b6 be ff ff       	call   80101c2a <iunlockput>
80105d74:	83 c4 10             	add    $0x10,%esp
    end_op();
80105d77:	e8 5d d8 ff ff       	call   801035d9 <end_op>
    return -1;
80105d7c:	b8 ff ff ff ff       	mov    $0xffffffff,%eax
80105d81:	e9 04 01 00 00       	jmp    80105e8a <sys_link+0x1a2>
  }

  ip->nlink++;
80105d86:	8b 45 f4             	mov    -0xc(%ebp),%eax
80105d89:	0f b7 40 16          	movzwl 0x16(%eax),%eax
80105d8d:	83 c0 01             	add    $0x1,%eax
80105d90:	89 c2                	mov    %eax,%edx
80105d92:	8b 45 f4             	mov    -0xc(%ebp),%eax
80105d95:	66 89 50 16          	mov    %dx,0x16(%eax)
  iupdate(ip);
80105d99:	83 ec 0c             	sub    $0xc,%esp
80105d9c:	ff 75 f4             	pushl  -0xc(%ebp)
80105d9f:	e8 ec b9 ff ff       	call   80101790 <iupdate>
80105da4:	83 c4 10             	add    $0x10,%esp
  iunlock(ip);
80105da7:	83 ec 0c             	sub    $0xc,%esp
80105daa:	ff 75 f4             	pushl  -0xc(%ebp)
80105dad:	e8 16 bd ff ff       	call   80101ac8 <iunlock>
80105db2:	83 c4 10             	add    $0x10,%esp

  if((dp = nameiparent(new, name)) == 0)
80105db5:	8b 45 dc             	mov    -0x24(%ebp),%eax
80105db8:	83 ec 08             	sub    $0x8,%esp
80105dbb:	8d 55 e2             	lea    -0x1e(%ebp),%edx
80105dbe:	52                   	push   %edx
80105dbf:	50                   	push   %eax
80105dc0:	e8 7f c7 ff ff       	call   80102544 <nameiparent>
80105dc5:	83 c4 10             	add    $0x10,%esp
80105dc8:	89 45 f0             	mov    %eax,-0x10(%ebp)
80105dcb:	83 7d f0 00          	cmpl   $0x0,-0x10(%ebp)
80105dcf:	74 71                	je     80105e42 <sys_link+0x15a>
    goto bad;
  ilock(dp);
80105dd1:	83 ec 0c             	sub    $0xc,%esp
80105dd4:	ff 75 f0             	pushl  -0x10(%ebp)
80105dd7:	e8 8e bb ff ff       	call   8010196a <ilock>
80105ddc:	83 c4 10             	add    $0x10,%esp
  if(dp->dev != ip->dev || dirlink(dp, name, ip->inum) < 0){
80105ddf:	8b 45 f0             	mov    -0x10(%ebp),%eax
80105de2:	8b 10                	mov    (%eax),%edx
80105de4:	8b 45 f4             	mov    -0xc(%ebp),%eax
80105de7:	8b 00                	mov    (%eax),%eax
80105de9:	39 c2                	cmp    %eax,%edx
80105deb:	75 1d                	jne    80105e0a <sys_link+0x122>
80105ded:	8b 45 f4             	mov    -0xc(%ebp),%eax
80105df0:	8b 40 04             	mov    0x4(%eax),%eax
80105df3:	83 ec 04             	sub    $0x4,%esp
80105df6:	50                   	push   %eax
80105df7:	8d 45 e2             	lea    -0x1e(%ebp),%eax
80105dfa:	50                   	push   %eax
80105dfb:	ff 75 f0             	pushl  -0x10(%ebp)
80105dfe:	e8 89 c4 ff ff       	call   8010228c <dirlink>
80105e03:	83 c4 10             	add    $0x10,%esp
80105e06:	85 c0                	test   %eax,%eax
80105e08:	79 10                	jns    80105e1a <sys_link+0x132>
    iunlockput(dp);
80105e0a:	83 ec 0c             	sub    $0xc,%esp
80105e0d:	ff 75 f0             	pushl  -0x10(%ebp)
80105e10:	e8 15 be ff ff       	call   80101c2a <iunlockput>
80105e15:	83 c4 10             	add    $0x10,%esp
    goto bad;
80105e18:	eb 29                	jmp    80105e43 <sys_link+0x15b>
  }
  iunlockput(dp);
80105e1a:	83 ec 0c             	sub    $0xc,%esp
80105e1d:	ff 75 f0             	pushl  -0x10(%ebp)
80105e20:	e8 05 be ff ff       	call   80101c2a <iunlockput>
80105e25:	83 c4 10             	add    $0x10,%esp
  iput(ip);
80105e28:	83 ec 0c             	sub    $0xc,%esp
80105e2b:	ff 75 f4             	pushl  -0xc(%ebp)
80105e2e:	e8 07 bd ff ff       	call   80101b3a <iput>
80105e33:	83 c4 10             	add    $0x10,%esp

  end_op();
80105e36:	e8 9e d7 ff ff       	call   801035d9 <end_op>

  return 0;
80105e3b:	b8 00 00 00 00       	mov    $0x0,%eax
80105e40:	eb 48                	jmp    80105e8a <sys_link+0x1a2>
  ip->nlink++;
  iupdate(ip);
  iunlock(ip);

  if((dp = nameiparent(new, name)) == 0)
    goto bad;
80105e42:	90                   	nop
  end_op();

  return 0;

bad:
  ilock(ip);
80105e43:	83 ec 0c             	sub    $0xc,%esp
80105e46:	ff 75 f4             	pushl  -0xc(%ebp)
80105e49:	e8 1c bb ff ff       	call   8010196a <ilock>
80105e4e:	83 c4 10             	add    $0x10,%esp
  ip->nlink--;
80105e51:	8b 45 f4             	mov    -0xc(%ebp),%eax
80105e54:	0f b7 40 16          	movzwl 0x16(%eax),%eax
80105e58:	83 e8 01             	sub    $0x1,%eax
80105e5b:	89 c2                	mov    %eax,%edx
80105e5d:	8b 45 f4             	mov    -0xc(%ebp),%eax
80105e60:	66 89 50 16          	mov    %dx,0x16(%eax)
  iupdate(ip);
80105e64:	83 ec 0c             	sub    $0xc,%esp
80105e67:	ff 75 f4             	pushl  -0xc(%ebp)
80105e6a:	e8 21 b9 ff ff       	call   80101790 <iupdate>
80105e6f:	83 c4 10             	add    $0x10,%esp
  iunlockput(ip);
80105e72:	83 ec 0c             	sub    $0xc,%esp
80105e75:	ff 75 f4             	pushl  -0xc(%ebp)
80105e78:	e8 ad bd ff ff       	call   80101c2a <iunlockput>
80105e7d:	83 c4 10             	add    $0x10,%esp
  end_op();
80105e80:	e8 54 d7 ff ff       	call   801035d9 <end_op>
  return -1;
80105e85:	b8 ff ff ff ff       	mov    $0xffffffff,%eax
}
80105e8a:	c9                   	leave  
80105e8b:	c3                   	ret    

80105e8c <isdirempty>:

// Is the directory dp empty except for "." and ".." ?
static int
isdirempty(struct inode *dp)
{
80105e8c:	55                   	push   %ebp
80105e8d:	89 e5                	mov    %esp,%ebp
80105e8f:	83 ec 28             	sub    $0x28,%esp
  int off;
  struct dirent de;

  for(off=2*sizeof(de); off<dp->size; off+=sizeof(de)){
80105e92:	c7 45 f4 20 00 00 00 	movl   $0x20,-0xc(%ebp)
80105e99:	eb 40                	jmp    80105edb <isdirempty+0x4f>
    if(readi(dp, (char*)&de, off, sizeof(de)) != sizeof(de))
80105e9b:	8b 45 f4             	mov    -0xc(%ebp),%eax
80105e9e:	6a 10                	push   $0x10
80105ea0:	50                   	push   %eax
80105ea1:	8d 45 e4             	lea    -0x1c(%ebp),%eax
80105ea4:	50                   	push   %eax
80105ea5:	ff 75 08             	pushl  0x8(%ebp)
80105ea8:	e8 2b c0 ff ff       	call   80101ed8 <readi>
80105ead:	83 c4 10             	add    $0x10,%esp
80105eb0:	83 f8 10             	cmp    $0x10,%eax
80105eb3:	74 0d                	je     80105ec2 <isdirempty+0x36>
      panic("isdirempty: readi");
80105eb5:	83 ec 0c             	sub    $0xc,%esp
80105eb8:	68 e4 8e 10 80       	push   $0x80108ee4
80105ebd:	e8 a4 a6 ff ff       	call   80100566 <panic>
    if(de.inum != 0)
80105ec2:	0f b7 45 e4          	movzwl -0x1c(%ebp),%eax
80105ec6:	66 85 c0             	test   %ax,%ax
80105ec9:	74 07                	je     80105ed2 <isdirempty+0x46>
      return 0;
80105ecb:	b8 00 00 00 00       	mov    $0x0,%eax
80105ed0:	eb 1b                	jmp    80105eed <isdirempty+0x61>
isdirempty(struct inode *dp)
{
  int off;
  struct dirent de;

  for(off=2*sizeof(de); off<dp->size; off+=sizeof(de)){
80105ed2:	8b 45 f4             	mov    -0xc(%ebp),%eax
80105ed5:	83 c0 10             	add    $0x10,%eax
80105ed8:	89 45 f4             	mov    %eax,-0xc(%ebp)
80105edb:	8b 45 08             	mov    0x8(%ebp),%eax
80105ede:	8b 50 18             	mov    0x18(%eax),%edx
80105ee1:	8b 45 f4             	mov    -0xc(%ebp),%eax
80105ee4:	39 c2                	cmp    %eax,%edx
80105ee6:	77 b3                	ja     80105e9b <isdirempty+0xf>
    if(readi(dp, (char*)&de, off, sizeof(de)) != sizeof(de))
      panic("isdirempty: readi");
    if(de.inum != 0)
      return 0;
  }
  return 1;
80105ee8:	b8 01 00 00 00       	mov    $0x1,%eax
}
80105eed:	c9                   	leave  
80105eee:	c3                   	ret    

80105eef <sys_unlink>:

//PAGEBREAK!
int
sys_unlink(void)
{
80105eef:	55                   	push   %ebp
80105ef0:	89 e5                	mov    %esp,%ebp
80105ef2:	83 ec 38             	sub    $0x38,%esp
  struct inode *ip, *dp;
  struct dirent de;
  char name[DIRSIZ], *path;
  uint off;

  if(argstr(0, &path) < 0)
80105ef5:	83 ec 08             	sub    $0x8,%esp
80105ef8:	8d 45 cc             	lea    -0x34(%ebp),%eax
80105efb:	50                   	push   %eax
80105efc:	6a 00                	push   $0x0
80105efe:	e8 a0 fa ff ff       	call   801059a3 <argstr>
80105f03:	83 c4 10             	add    $0x10,%esp
80105f06:	85 c0                	test   %eax,%eax
80105f08:	79 0a                	jns    80105f14 <sys_unlink+0x25>
    return -1;
80105f0a:	b8 ff ff ff ff       	mov    $0xffffffff,%eax
80105f0f:	e9 bc 01 00 00       	jmp    801060d0 <sys_unlink+0x1e1>

  begin_op();
80105f14:	e8 34 d6 ff ff       	call   8010354d <begin_op>
  if((dp = nameiparent(path, name)) == 0){
80105f19:	8b 45 cc             	mov    -0x34(%ebp),%eax
80105f1c:	83 ec 08             	sub    $0x8,%esp
80105f1f:	8d 55 d2             	lea    -0x2e(%ebp),%edx
80105f22:	52                   	push   %edx
80105f23:	50                   	push   %eax
80105f24:	e8 1b c6 ff ff       	call   80102544 <nameiparent>
80105f29:	83 c4 10             	add    $0x10,%esp
80105f2c:	89 45 f4             	mov    %eax,-0xc(%ebp)
80105f2f:	83 7d f4 00          	cmpl   $0x0,-0xc(%ebp)
80105f33:	75 0f                	jne    80105f44 <sys_unlink+0x55>
    end_op();
80105f35:	e8 9f d6 ff ff       	call   801035d9 <end_op>
    return -1;
80105f3a:	b8 ff ff ff ff       	mov    $0xffffffff,%eax
80105f3f:	e9 8c 01 00 00       	jmp    801060d0 <sys_unlink+0x1e1>
  }

  ilock(dp);
80105f44:	83 ec 0c             	sub    $0xc,%esp
80105f47:	ff 75 f4             	pushl  -0xc(%ebp)
80105f4a:	e8 1b ba ff ff       	call   8010196a <ilock>
80105f4f:	83 c4 10             	add    $0x10,%esp

  // Cannot unlink "." or "..".
  if(namecmp(name, ".") == 0 || namecmp(name, "..") == 0)
80105f52:	83 ec 08             	sub    $0x8,%esp
80105f55:	68 f6 8e 10 80       	push   $0x80108ef6
80105f5a:	8d 45 d2             	lea    -0x2e(%ebp),%eax
80105f5d:	50                   	push   %eax
80105f5e:	e8 54 c2 ff ff       	call   801021b7 <namecmp>
80105f63:	83 c4 10             	add    $0x10,%esp
80105f66:	85 c0                	test   %eax,%eax
80105f68:	0f 84 4a 01 00 00    	je     801060b8 <sys_unlink+0x1c9>
80105f6e:	83 ec 08             	sub    $0x8,%esp
80105f71:	68 f8 8e 10 80       	push   $0x80108ef8
80105f76:	8d 45 d2             	lea    -0x2e(%ebp),%eax
80105f79:	50                   	push   %eax
80105f7a:	e8 38 c2 ff ff       	call   801021b7 <namecmp>
80105f7f:	83 c4 10             	add    $0x10,%esp
80105f82:	85 c0                	test   %eax,%eax
80105f84:	0f 84 2e 01 00 00    	je     801060b8 <sys_unlink+0x1c9>
    goto bad;

  if((ip = dirlookup(dp, name, &off)) == 0)
80105f8a:	83 ec 04             	sub    $0x4,%esp
80105f8d:	8d 45 c8             	lea    -0x38(%ebp),%eax
80105f90:	50                   	push   %eax
80105f91:	8d 45 d2             	lea    -0x2e(%ebp),%eax
80105f94:	50                   	push   %eax
80105f95:	ff 75 f4             	pushl  -0xc(%ebp)
80105f98:	e8 35 c2 ff ff       	call   801021d2 <dirlookup>
80105f9d:	83 c4 10             	add    $0x10,%esp
80105fa0:	89 45 f0             	mov    %eax,-0x10(%ebp)
80105fa3:	83 7d f0 00          	cmpl   $0x0,-0x10(%ebp)
80105fa7:	0f 84 0a 01 00 00    	je     801060b7 <sys_unlink+0x1c8>
    goto bad;
  ilock(ip);
80105fad:	83 ec 0c             	sub    $0xc,%esp
80105fb0:	ff 75 f0             	pushl  -0x10(%ebp)
80105fb3:	e8 b2 b9 ff ff       	call   8010196a <ilock>
80105fb8:	83 c4 10             	add    $0x10,%esp

  if(ip->nlink < 1)
80105fbb:	8b 45 f0             	mov    -0x10(%ebp),%eax
80105fbe:	0f b7 40 16          	movzwl 0x16(%eax),%eax
80105fc2:	66 85 c0             	test   %ax,%ax
80105fc5:	7f 0d                	jg     80105fd4 <sys_unlink+0xe5>
    panic("unlink: nlink < 1");
80105fc7:	83 ec 0c             	sub    $0xc,%esp
80105fca:	68 fb 8e 10 80       	push   $0x80108efb
80105fcf:	e8 92 a5 ff ff       	call   80100566 <panic>
  if(ip->type == T_DIR && !isdirempty(ip)){
80105fd4:	8b 45 f0             	mov    -0x10(%ebp),%eax
80105fd7:	0f b7 40 10          	movzwl 0x10(%eax),%eax
80105fdb:	66 83 f8 01          	cmp    $0x1,%ax
80105fdf:	75 25                	jne    80106006 <sys_unlink+0x117>
80105fe1:	83 ec 0c             	sub    $0xc,%esp
80105fe4:	ff 75 f0             	pushl  -0x10(%ebp)
80105fe7:	e8 a0 fe ff ff       	call   80105e8c <isdirempty>
80105fec:	83 c4 10             	add    $0x10,%esp
80105fef:	85 c0                	test   %eax,%eax
80105ff1:	75 13                	jne    80106006 <sys_unlink+0x117>
    iunlockput(ip);
80105ff3:	83 ec 0c             	sub    $0xc,%esp
80105ff6:	ff 75 f0             	pushl  -0x10(%ebp)
80105ff9:	e8 2c bc ff ff       	call   80101c2a <iunlockput>
80105ffe:	83 c4 10             	add    $0x10,%esp
    goto bad;
80106001:	e9 b2 00 00 00       	jmp    801060b8 <sys_unlink+0x1c9>
  }

  memset(&de, 0, sizeof(de));
80106006:	83 ec 04             	sub    $0x4,%esp
80106009:	6a 10                	push   $0x10
8010600b:	6a 00                	push   $0x0
8010600d:	8d 45 e0             	lea    -0x20(%ebp),%eax
80106010:	50                   	push   %eax
80106011:	e8 e3 f5 ff ff       	call   801055f9 <memset>
80106016:	83 c4 10             	add    $0x10,%esp
  if(writei(dp, (char*)&de, off, sizeof(de)) != sizeof(de))
80106019:	8b 45 c8             	mov    -0x38(%ebp),%eax
8010601c:	6a 10                	push   $0x10
8010601e:	50                   	push   %eax
8010601f:	8d 45 e0             	lea    -0x20(%ebp),%eax
80106022:	50                   	push   %eax
80106023:	ff 75 f4             	pushl  -0xc(%ebp)
80106026:	e8 04 c0 ff ff       	call   8010202f <writei>
8010602b:	83 c4 10             	add    $0x10,%esp
8010602e:	83 f8 10             	cmp    $0x10,%eax
80106031:	74 0d                	je     80106040 <sys_unlink+0x151>
    panic("unlink: writei");
80106033:	83 ec 0c             	sub    $0xc,%esp
80106036:	68 0d 8f 10 80       	push   $0x80108f0d
8010603b:	e8 26 a5 ff ff       	call   80100566 <panic>
  if(ip->type == T_DIR){
80106040:	8b 45 f0             	mov    -0x10(%ebp),%eax
80106043:	0f b7 40 10          	movzwl 0x10(%eax),%eax
80106047:	66 83 f8 01          	cmp    $0x1,%ax
8010604b:	75 21                	jne    8010606e <sys_unlink+0x17f>
    dp->nlink--;
8010604d:	8b 45 f4             	mov    -0xc(%ebp),%eax
80106050:	0f b7 40 16          	movzwl 0x16(%eax),%eax
80106054:	83 e8 01             	sub    $0x1,%eax
80106057:	89 c2                	mov    %eax,%edx
80106059:	8b 45 f4             	mov    -0xc(%ebp),%eax
8010605c:	66 89 50 16          	mov    %dx,0x16(%eax)
    iupdate(dp);
80106060:	83 ec 0c             	sub    $0xc,%esp
80106063:	ff 75 f4             	pushl  -0xc(%ebp)
80106066:	e8 25 b7 ff ff       	call   80101790 <iupdate>
8010606b:	83 c4 10             	add    $0x10,%esp
  }
  iunlockput(dp);
8010606e:	83 ec 0c             	sub    $0xc,%esp
80106071:	ff 75 f4             	pushl  -0xc(%ebp)
80106074:	e8 b1 bb ff ff       	call   80101c2a <iunlockput>
80106079:	83 c4 10             	add    $0x10,%esp

  ip->nlink--;
8010607c:	8b 45 f0             	mov    -0x10(%ebp),%eax
8010607f:	0f b7 40 16          	movzwl 0x16(%eax),%eax
80106083:	83 e8 01             	sub    $0x1,%eax
80106086:	89 c2                	mov    %eax,%edx
80106088:	8b 45 f0             	mov    -0x10(%ebp),%eax
8010608b:	66 89 50 16          	mov    %dx,0x16(%eax)
  iupdate(ip);
8010608f:	83 ec 0c             	sub    $0xc,%esp
80106092:	ff 75 f0             	pushl  -0x10(%ebp)
80106095:	e8 f6 b6 ff ff       	call   80101790 <iupdate>
8010609a:	83 c4 10             	add    $0x10,%esp
  iunlockput(ip);
8010609d:	83 ec 0c             	sub    $0xc,%esp
801060a0:	ff 75 f0             	pushl  -0x10(%ebp)
801060a3:	e8 82 bb ff ff       	call   80101c2a <iunlockput>
801060a8:	83 c4 10             	add    $0x10,%esp

  end_op();
801060ab:	e8 29 d5 ff ff       	call   801035d9 <end_op>

  return 0;
801060b0:	b8 00 00 00 00       	mov    $0x0,%eax
801060b5:	eb 19                	jmp    801060d0 <sys_unlink+0x1e1>
  // Cannot unlink "." or "..".
  if(namecmp(name, ".") == 0 || namecmp(name, "..") == 0)
    goto bad;

  if((ip = dirlookup(dp, name, &off)) == 0)
    goto bad;
801060b7:	90                   	nop
  end_op();

  return 0;

bad:
  iunlockput(dp);
801060b8:	83 ec 0c             	sub    $0xc,%esp
801060bb:	ff 75 f4             	pushl  -0xc(%ebp)
801060be:	e8 67 bb ff ff       	call   80101c2a <iunlockput>
801060c3:	83 c4 10             	add    $0x10,%esp
  end_op();
801060c6:	e8 0e d5 ff ff       	call   801035d9 <end_op>
  return -1;
801060cb:	b8 ff ff ff ff       	mov    $0xffffffff,%eax
}
801060d0:	c9                   	leave  
801060d1:	c3                   	ret    

801060d2 <create>:

static struct inode*
create(char *path, short type, short major, short minor)
{
801060d2:	55                   	push   %ebp
801060d3:	89 e5                	mov    %esp,%ebp
801060d5:	83 ec 38             	sub    $0x38,%esp
801060d8:	8b 4d 0c             	mov    0xc(%ebp),%ecx
801060db:	8b 55 10             	mov    0x10(%ebp),%edx
801060de:	8b 45 14             	mov    0x14(%ebp),%eax
801060e1:	66 89 4d d4          	mov    %cx,-0x2c(%ebp)
801060e5:	66 89 55 d0          	mov    %dx,-0x30(%ebp)
801060e9:	66 89 45 cc          	mov    %ax,-0x34(%ebp)
  uint off;
  struct inode *ip, *dp;
  char name[DIRSIZ];

  if((dp = nameiparent(path, name)) == 0)
801060ed:	83 ec 08             	sub    $0x8,%esp
801060f0:	8d 45 de             	lea    -0x22(%ebp),%eax
801060f3:	50                   	push   %eax
801060f4:	ff 75 08             	pushl  0x8(%ebp)
801060f7:	e8 48 c4 ff ff       	call   80102544 <nameiparent>
801060fc:	83 c4 10             	add    $0x10,%esp
801060ff:	89 45 f4             	mov    %eax,-0xc(%ebp)
80106102:	83 7d f4 00          	cmpl   $0x0,-0xc(%ebp)
80106106:	75 0a                	jne    80106112 <create+0x40>
    return 0;
80106108:	b8 00 00 00 00       	mov    $0x0,%eax
8010610d:	e9 90 01 00 00       	jmp    801062a2 <create+0x1d0>
  ilock(dp);
80106112:	83 ec 0c             	sub    $0xc,%esp
80106115:	ff 75 f4             	pushl  -0xc(%ebp)
80106118:	e8 4d b8 ff ff       	call   8010196a <ilock>
8010611d:	83 c4 10             	add    $0x10,%esp

  if((ip = dirlookup(dp, name, &off)) != 0){
80106120:	83 ec 04             	sub    $0x4,%esp
80106123:	8d 45 ec             	lea    -0x14(%ebp),%eax
80106126:	50                   	push   %eax
80106127:	8d 45 de             	lea    -0x22(%ebp),%eax
8010612a:	50                   	push   %eax
8010612b:	ff 75 f4             	pushl  -0xc(%ebp)
8010612e:	e8 9f c0 ff ff       	call   801021d2 <dirlookup>
80106133:	83 c4 10             	add    $0x10,%esp
80106136:	89 45 f0             	mov    %eax,-0x10(%ebp)
80106139:	83 7d f0 00          	cmpl   $0x0,-0x10(%ebp)
8010613d:	74 50                	je     8010618f <create+0xbd>
    iunlockput(dp);
8010613f:	83 ec 0c             	sub    $0xc,%esp
80106142:	ff 75 f4             	pushl  -0xc(%ebp)
80106145:	e8 e0 ba ff ff       	call   80101c2a <iunlockput>
8010614a:	83 c4 10             	add    $0x10,%esp
    ilock(ip);
8010614d:	83 ec 0c             	sub    $0xc,%esp
80106150:	ff 75 f0             	pushl  -0x10(%ebp)
80106153:	e8 12 b8 ff ff       	call   8010196a <ilock>
80106158:	83 c4 10             	add    $0x10,%esp
    if(type == T_FILE && ip->type == T_FILE)
8010615b:	66 83 7d d4 02       	cmpw   $0x2,-0x2c(%ebp)
80106160:	75 15                	jne    80106177 <create+0xa5>
80106162:	8b 45 f0             	mov    -0x10(%ebp),%eax
80106165:	0f b7 40 10          	movzwl 0x10(%eax),%eax
80106169:	66 83 f8 02          	cmp    $0x2,%ax
8010616d:	75 08                	jne    80106177 <create+0xa5>
      return ip;
8010616f:	8b 45 f0             	mov    -0x10(%ebp),%eax
80106172:	e9 2b 01 00 00       	jmp    801062a2 <create+0x1d0>
    iunlockput(ip);
80106177:	83 ec 0c             	sub    $0xc,%esp
8010617a:	ff 75 f0             	pushl  -0x10(%ebp)
8010617d:	e8 a8 ba ff ff       	call   80101c2a <iunlockput>
80106182:	83 c4 10             	add    $0x10,%esp
    return 0;
80106185:	b8 00 00 00 00       	mov    $0x0,%eax
8010618a:	e9 13 01 00 00       	jmp    801062a2 <create+0x1d0>
  }

  if((ip = ialloc(dp->dev, type)) == 0)
8010618f:	0f bf 55 d4          	movswl -0x2c(%ebp),%edx
80106193:	8b 45 f4             	mov    -0xc(%ebp),%eax
80106196:	8b 00                	mov    (%eax),%eax
80106198:	83 ec 08             	sub    $0x8,%esp
8010619b:	52                   	push   %edx
8010619c:	50                   	push   %eax
8010619d:	e8 17 b5 ff ff       	call   801016b9 <ialloc>
801061a2:	83 c4 10             	add    $0x10,%esp
801061a5:	89 45 f0             	mov    %eax,-0x10(%ebp)
801061a8:	83 7d f0 00          	cmpl   $0x0,-0x10(%ebp)
801061ac:	75 0d                	jne    801061bb <create+0xe9>
    panic("create: ialloc");
801061ae:	83 ec 0c             	sub    $0xc,%esp
801061b1:	68 1c 8f 10 80       	push   $0x80108f1c
801061b6:	e8 ab a3 ff ff       	call   80100566 <panic>

  ilock(ip);
801061bb:	83 ec 0c             	sub    $0xc,%esp
801061be:	ff 75 f0             	pushl  -0x10(%ebp)
801061c1:	e8 a4 b7 ff ff       	call   8010196a <ilock>
801061c6:	83 c4 10             	add    $0x10,%esp
  ip->major = major;
801061c9:	8b 45 f0             	mov    -0x10(%ebp),%eax
801061cc:	0f b7 55 d0          	movzwl -0x30(%ebp),%edx
801061d0:	66 89 50 12          	mov    %dx,0x12(%eax)
  ip->minor = minor;
801061d4:	8b 45 f0             	mov    -0x10(%ebp),%eax
801061d7:	0f b7 55 cc          	movzwl -0x34(%ebp),%edx
801061db:	66 89 50 14          	mov    %dx,0x14(%eax)
  ip->nlink = 1;
801061df:	8b 45 f0             	mov    -0x10(%ebp),%eax
801061e2:	66 c7 40 16 01 00    	movw   $0x1,0x16(%eax)
  iupdate(ip);
801061e8:	83 ec 0c             	sub    $0xc,%esp
801061eb:	ff 75 f0             	pushl  -0x10(%ebp)
801061ee:	e8 9d b5 ff ff       	call   80101790 <iupdate>
801061f3:	83 c4 10             	add    $0x10,%esp

  if(type == T_DIR){  // Create . and .. entries.
801061f6:	66 83 7d d4 01       	cmpw   $0x1,-0x2c(%ebp)
801061fb:	75 6a                	jne    80106267 <create+0x195>
    dp->nlink++;  // for ".."
801061fd:	8b 45 f4             	mov    -0xc(%ebp),%eax
80106200:	0f b7 40 16          	movzwl 0x16(%eax),%eax
80106204:	83 c0 01             	add    $0x1,%eax
80106207:	89 c2                	mov    %eax,%edx
80106209:	8b 45 f4             	mov    -0xc(%ebp),%eax
8010620c:	66 89 50 16          	mov    %dx,0x16(%eax)
    iupdate(dp);
80106210:	83 ec 0c             	sub    $0xc,%esp
80106213:	ff 75 f4             	pushl  -0xc(%ebp)
80106216:	e8 75 b5 ff ff       	call   80101790 <iupdate>
8010621b:	83 c4 10             	add    $0x10,%esp
    // No ip->nlink++ for ".": avoid cyclic ref count.
    if(dirlink(ip, ".", ip->inum) < 0 || dirlink(ip, "..", dp->inum) < 0)
8010621e:	8b 45 f0             	mov    -0x10(%ebp),%eax
80106221:	8b 40 04             	mov    0x4(%eax),%eax
80106224:	83 ec 04             	sub    $0x4,%esp
80106227:	50                   	push   %eax
80106228:	68 f6 8e 10 80       	push   $0x80108ef6
8010622d:	ff 75 f0             	pushl  -0x10(%ebp)
80106230:	e8 57 c0 ff ff       	call   8010228c <dirlink>
80106235:	83 c4 10             	add    $0x10,%esp
80106238:	85 c0                	test   %eax,%eax
8010623a:	78 1e                	js     8010625a <create+0x188>
8010623c:	8b 45 f4             	mov    -0xc(%ebp),%eax
8010623f:	8b 40 04             	mov    0x4(%eax),%eax
80106242:	83 ec 04             	sub    $0x4,%esp
80106245:	50                   	push   %eax
80106246:	68 f8 8e 10 80       	push   $0x80108ef8
8010624b:	ff 75 f0             	pushl  -0x10(%ebp)
8010624e:	e8 39 c0 ff ff       	call   8010228c <dirlink>
80106253:	83 c4 10             	add    $0x10,%esp
80106256:	85 c0                	test   %eax,%eax
80106258:	79 0d                	jns    80106267 <create+0x195>
      panic("create dots");
8010625a:	83 ec 0c             	sub    $0xc,%esp
8010625d:	68 2b 8f 10 80       	push   $0x80108f2b
80106262:	e8 ff a2 ff ff       	call   80100566 <panic>
  }

  if(dirlink(dp, name, ip->inum) < 0)
80106267:	8b 45 f0             	mov    -0x10(%ebp),%eax
8010626a:	8b 40 04             	mov    0x4(%eax),%eax
8010626d:	83 ec 04             	sub    $0x4,%esp
80106270:	50                   	push   %eax
80106271:	8d 45 de             	lea    -0x22(%ebp),%eax
80106274:	50                   	push   %eax
80106275:	ff 75 f4             	pushl  -0xc(%ebp)
80106278:	e8 0f c0 ff ff       	call   8010228c <dirlink>
8010627d:	83 c4 10             	add    $0x10,%esp
80106280:	85 c0                	test   %eax,%eax
80106282:	79 0d                	jns    80106291 <create+0x1bf>
    panic("create: dirlink");
80106284:	83 ec 0c             	sub    $0xc,%esp
80106287:	68 37 8f 10 80       	push   $0x80108f37
8010628c:	e8 d5 a2 ff ff       	call   80100566 <panic>

  iunlockput(dp);
80106291:	83 ec 0c             	sub    $0xc,%esp
80106294:	ff 75 f4             	pushl  -0xc(%ebp)
80106297:	e8 8e b9 ff ff       	call   80101c2a <iunlockput>
8010629c:	83 c4 10             	add    $0x10,%esp

  return ip;
8010629f:	8b 45 f0             	mov    -0x10(%ebp),%eax
}
801062a2:	c9                   	leave  
801062a3:	c3                   	ret    

801062a4 <sys_open>:

int
sys_open(void)
{
801062a4:	55                   	push   %ebp
801062a5:	89 e5                	mov    %esp,%ebp
801062a7:	83 ec 28             	sub    $0x28,%esp
  char *path;
  int fd, omode;
  struct file *f;
  struct inode *ip;

  if(argstr(0, &path) < 0 || argint(1, &omode) < 0)
801062aa:	83 ec 08             	sub    $0x8,%esp
801062ad:	8d 45 e8             	lea    -0x18(%ebp),%eax
801062b0:	50                   	push   %eax
801062b1:	6a 00                	push   $0x0
801062b3:	e8 eb f6 ff ff       	call   801059a3 <argstr>
801062b8:	83 c4 10             	add    $0x10,%esp
801062bb:	85 c0                	test   %eax,%eax
801062bd:	78 15                	js     801062d4 <sys_open+0x30>
801062bf:	83 ec 08             	sub    $0x8,%esp
801062c2:	8d 45 e4             	lea    -0x1c(%ebp),%eax
801062c5:	50                   	push   %eax
801062c6:	6a 01                	push   $0x1
801062c8:	e8 51 f6 ff ff       	call   8010591e <argint>
801062cd:	83 c4 10             	add    $0x10,%esp
801062d0:	85 c0                	test   %eax,%eax
801062d2:	79 0a                	jns    801062de <sys_open+0x3a>
    return -1;
801062d4:	b8 ff ff ff ff       	mov    $0xffffffff,%eax
801062d9:	e9 61 01 00 00       	jmp    8010643f <sys_open+0x19b>

  begin_op();
801062de:	e8 6a d2 ff ff       	call   8010354d <begin_op>

  if(omode & O_CREATE){
801062e3:	8b 45 e4             	mov    -0x1c(%ebp),%eax
801062e6:	25 00 02 00 00       	and    $0x200,%eax
801062eb:	85 c0                	test   %eax,%eax
801062ed:	74 2a                	je     80106319 <sys_open+0x75>
    ip = create(path, T_FILE, 0, 0);
801062ef:	8b 45 e8             	mov    -0x18(%ebp),%eax
801062f2:	6a 00                	push   $0x0
801062f4:	6a 00                	push   $0x0
801062f6:	6a 02                	push   $0x2
801062f8:	50                   	push   %eax
801062f9:	e8 d4 fd ff ff       	call   801060d2 <create>
801062fe:	83 c4 10             	add    $0x10,%esp
80106301:	89 45 f4             	mov    %eax,-0xc(%ebp)
    if(ip == 0){
80106304:	83 7d f4 00          	cmpl   $0x0,-0xc(%ebp)
80106308:	75 75                	jne    8010637f <sys_open+0xdb>
      end_op();
8010630a:	e8 ca d2 ff ff       	call   801035d9 <end_op>
      return -1;
8010630f:	b8 ff ff ff ff       	mov    $0xffffffff,%eax
80106314:	e9 26 01 00 00       	jmp    8010643f <sys_open+0x19b>
    }
  } else {
    if((ip = namei(path)) == 0){
80106319:	8b 45 e8             	mov    -0x18(%ebp),%eax
8010631c:	83 ec 0c             	sub    $0xc,%esp
8010631f:	50                   	push   %eax
80106320:	e8 03 c2 ff ff       	call   80102528 <namei>
80106325:	83 c4 10             	add    $0x10,%esp
80106328:	89 45 f4             	mov    %eax,-0xc(%ebp)
8010632b:	83 7d f4 00          	cmpl   $0x0,-0xc(%ebp)
8010632f:	75 0f                	jne    80106340 <sys_open+0x9c>
      end_op();
80106331:	e8 a3 d2 ff ff       	call   801035d9 <end_op>
      return -1;
80106336:	b8 ff ff ff ff       	mov    $0xffffffff,%eax
8010633b:	e9 ff 00 00 00       	jmp    8010643f <sys_open+0x19b>
    }
    ilock(ip);
80106340:	83 ec 0c             	sub    $0xc,%esp
80106343:	ff 75 f4             	pushl  -0xc(%ebp)
80106346:	e8 1f b6 ff ff       	call   8010196a <ilock>
8010634b:	83 c4 10             	add    $0x10,%esp
    if(ip->type == T_DIR && omode != O_RDONLY){
8010634e:	8b 45 f4             	mov    -0xc(%ebp),%eax
80106351:	0f b7 40 10          	movzwl 0x10(%eax),%eax
80106355:	66 83 f8 01          	cmp    $0x1,%ax
80106359:	75 24                	jne    8010637f <sys_open+0xdb>
8010635b:	8b 45 e4             	mov    -0x1c(%ebp),%eax
8010635e:	85 c0                	test   %eax,%eax
80106360:	74 1d                	je     8010637f <sys_open+0xdb>
      iunlockput(ip);
80106362:	83 ec 0c             	sub    $0xc,%esp
80106365:	ff 75 f4             	pushl  -0xc(%ebp)
80106368:	e8 bd b8 ff ff       	call   80101c2a <iunlockput>
8010636d:	83 c4 10             	add    $0x10,%esp
      end_op();
80106370:	e8 64 d2 ff ff       	call   801035d9 <end_op>
      return -1;
80106375:	b8 ff ff ff ff       	mov    $0xffffffff,%eax
8010637a:	e9 c0 00 00 00       	jmp    8010643f <sys_open+0x19b>
    }
  }

  if((f = filealloc()) == 0 || (fd = fdalloc(f)) < 0){
8010637f:	e8 0f ac ff ff       	call   80100f93 <filealloc>
80106384:	89 45 f0             	mov    %eax,-0x10(%ebp)
80106387:	83 7d f0 00          	cmpl   $0x0,-0x10(%ebp)
8010638b:	74 17                	je     801063a4 <sys_open+0x100>
8010638d:	83 ec 0c             	sub    $0xc,%esp
80106390:	ff 75 f0             	pushl  -0x10(%ebp)
80106393:	e8 37 f7 ff ff       	call   80105acf <fdalloc>
80106398:	83 c4 10             	add    $0x10,%esp
8010639b:	89 45 ec             	mov    %eax,-0x14(%ebp)
8010639e:	83 7d ec 00          	cmpl   $0x0,-0x14(%ebp)
801063a2:	79 2e                	jns    801063d2 <sys_open+0x12e>
    if(f)
801063a4:	83 7d f0 00          	cmpl   $0x0,-0x10(%ebp)
801063a8:	74 0e                	je     801063b8 <sys_open+0x114>
      fileclose(f);
801063aa:	83 ec 0c             	sub    $0xc,%esp
801063ad:	ff 75 f0             	pushl  -0x10(%ebp)
801063b0:	e8 9c ac ff ff       	call   80101051 <fileclose>
801063b5:	83 c4 10             	add    $0x10,%esp
    iunlockput(ip);
801063b8:	83 ec 0c             	sub    $0xc,%esp
801063bb:	ff 75 f4             	pushl  -0xc(%ebp)
801063be:	e8 67 b8 ff ff       	call   80101c2a <iunlockput>
801063c3:	83 c4 10             	add    $0x10,%esp
    end_op();
801063c6:	e8 0e d2 ff ff       	call   801035d9 <end_op>
    return -1;
801063cb:	b8 ff ff ff ff       	mov    $0xffffffff,%eax
801063d0:	eb 6d                	jmp    8010643f <sys_open+0x19b>
  }
  iunlock(ip);
801063d2:	83 ec 0c             	sub    $0xc,%esp
801063d5:	ff 75 f4             	pushl  -0xc(%ebp)
801063d8:	e8 eb b6 ff ff       	call   80101ac8 <iunlock>
801063dd:	83 c4 10             	add    $0x10,%esp
  end_op();
801063e0:	e8 f4 d1 ff ff       	call   801035d9 <end_op>

  f->type = FD_INODE;
801063e5:	8b 45 f0             	mov    -0x10(%ebp),%eax
801063e8:	c7 00 02 00 00 00    	movl   $0x2,(%eax)
  f->ip = ip;
801063ee:	8b 45 f0             	mov    -0x10(%ebp),%eax
801063f1:	8b 55 f4             	mov    -0xc(%ebp),%edx
801063f4:	89 50 10             	mov    %edx,0x10(%eax)
  f->off = 0;
801063f7:	8b 45 f0             	mov    -0x10(%ebp),%eax
801063fa:	c7 40 14 00 00 00 00 	movl   $0x0,0x14(%eax)
  f->readable = !(omode & O_WRONLY);
80106401:	8b 45 e4             	mov    -0x1c(%ebp),%eax
80106404:	83 e0 01             	and    $0x1,%eax
80106407:	85 c0                	test   %eax,%eax
80106409:	0f 94 c0             	sete   %al
8010640c:	89 c2                	mov    %eax,%edx
8010640e:	8b 45 f0             	mov    -0x10(%ebp),%eax
80106411:	88 50 08             	mov    %dl,0x8(%eax)
  f->writable = (omode & O_WRONLY) || (omode & O_RDWR);
80106414:	8b 45 e4             	mov    -0x1c(%ebp),%eax
80106417:	83 e0 01             	and    $0x1,%eax
8010641a:	85 c0                	test   %eax,%eax
8010641c:	75 0a                	jne    80106428 <sys_open+0x184>
8010641e:	8b 45 e4             	mov    -0x1c(%ebp),%eax
80106421:	83 e0 02             	and    $0x2,%eax
80106424:	85 c0                	test   %eax,%eax
80106426:	74 07                	je     8010642f <sys_open+0x18b>
80106428:	b8 01 00 00 00       	mov    $0x1,%eax
8010642d:	eb 05                	jmp    80106434 <sys_open+0x190>
8010642f:	b8 00 00 00 00       	mov    $0x0,%eax
80106434:	89 c2                	mov    %eax,%edx
80106436:	8b 45 f0             	mov    -0x10(%ebp),%eax
80106439:	88 50 09             	mov    %dl,0x9(%eax)
  return fd;
8010643c:	8b 45 ec             	mov    -0x14(%ebp),%eax
}
8010643f:	c9                   	leave  
80106440:	c3                   	ret    

80106441 <sys_mkdir>:

int
sys_mkdir(void)
{
80106441:	55                   	push   %ebp
80106442:	89 e5                	mov    %esp,%ebp
80106444:	83 ec 18             	sub    $0x18,%esp
  char *path;
  struct inode *ip;

  begin_op();
80106447:	e8 01 d1 ff ff       	call   8010354d <begin_op>
  if(argstr(0, &path) < 0 || (ip = create(path, T_DIR, 0, 0)) == 0){
8010644c:	83 ec 08             	sub    $0x8,%esp
8010644f:	8d 45 f0             	lea    -0x10(%ebp),%eax
80106452:	50                   	push   %eax
80106453:	6a 00                	push   $0x0
80106455:	e8 49 f5 ff ff       	call   801059a3 <argstr>
8010645a:	83 c4 10             	add    $0x10,%esp
8010645d:	85 c0                	test   %eax,%eax
8010645f:	78 1b                	js     8010647c <sys_mkdir+0x3b>
80106461:	8b 45 f0             	mov    -0x10(%ebp),%eax
80106464:	6a 00                	push   $0x0
80106466:	6a 00                	push   $0x0
80106468:	6a 01                	push   $0x1
8010646a:	50                   	push   %eax
8010646b:	e8 62 fc ff ff       	call   801060d2 <create>
80106470:	83 c4 10             	add    $0x10,%esp
80106473:	89 45 f4             	mov    %eax,-0xc(%ebp)
80106476:	83 7d f4 00          	cmpl   $0x0,-0xc(%ebp)
8010647a:	75 0c                	jne    80106488 <sys_mkdir+0x47>
    end_op();
8010647c:	e8 58 d1 ff ff       	call   801035d9 <end_op>
    return -1;
80106481:	b8 ff ff ff ff       	mov    $0xffffffff,%eax
80106486:	eb 18                	jmp    801064a0 <sys_mkdir+0x5f>
  }
  iunlockput(ip);
80106488:	83 ec 0c             	sub    $0xc,%esp
8010648b:	ff 75 f4             	pushl  -0xc(%ebp)
8010648e:	e8 97 b7 ff ff       	call   80101c2a <iunlockput>
80106493:	83 c4 10             	add    $0x10,%esp
  end_op();
80106496:	e8 3e d1 ff ff       	call   801035d9 <end_op>
  return 0;
8010649b:	b8 00 00 00 00       	mov    $0x0,%eax
}
801064a0:	c9                   	leave  
801064a1:	c3                   	ret    

801064a2 <sys_mknod>:

int
sys_mknod(void)
{
801064a2:	55                   	push   %ebp
801064a3:	89 e5                	mov    %esp,%ebp
801064a5:	83 ec 28             	sub    $0x28,%esp
  struct inode *ip;
  char *path;
  int len;
  int major, minor;
  
  begin_op();
801064a8:	e8 a0 d0 ff ff       	call   8010354d <begin_op>
  if((len=argstr(0, &path)) < 0 ||
801064ad:	83 ec 08             	sub    $0x8,%esp
801064b0:	8d 45 ec             	lea    -0x14(%ebp),%eax
801064b3:	50                   	push   %eax
801064b4:	6a 00                	push   $0x0
801064b6:	e8 e8 f4 ff ff       	call   801059a3 <argstr>
801064bb:	83 c4 10             	add    $0x10,%esp
801064be:	89 45 f4             	mov    %eax,-0xc(%ebp)
801064c1:	83 7d f4 00          	cmpl   $0x0,-0xc(%ebp)
801064c5:	78 4f                	js     80106516 <sys_mknod+0x74>
     argint(1, &major) < 0 ||
801064c7:	83 ec 08             	sub    $0x8,%esp
801064ca:	8d 45 e8             	lea    -0x18(%ebp),%eax
801064cd:	50                   	push   %eax
801064ce:	6a 01                	push   $0x1
801064d0:	e8 49 f4 ff ff       	call   8010591e <argint>
801064d5:	83 c4 10             	add    $0x10,%esp
  char *path;
  int len;
  int major, minor;
  
  begin_op();
  if((len=argstr(0, &path)) < 0 ||
801064d8:	85 c0                	test   %eax,%eax
801064da:	78 3a                	js     80106516 <sys_mknod+0x74>
     argint(1, &major) < 0 ||
     argint(2, &minor) < 0 ||
801064dc:	83 ec 08             	sub    $0x8,%esp
801064df:	8d 45 e4             	lea    -0x1c(%ebp),%eax
801064e2:	50                   	push   %eax
801064e3:	6a 02                	push   $0x2
801064e5:	e8 34 f4 ff ff       	call   8010591e <argint>
801064ea:	83 c4 10             	add    $0x10,%esp
  int len;
  int major, minor;
  
  begin_op();
  if((len=argstr(0, &path)) < 0 ||
     argint(1, &major) < 0 ||
801064ed:	85 c0                	test   %eax,%eax
801064ef:	78 25                	js     80106516 <sys_mknod+0x74>
     argint(2, &minor) < 0 ||
     (ip = create(path, T_DEV, major, minor)) == 0){
801064f1:	8b 45 e4             	mov    -0x1c(%ebp),%eax
801064f4:	0f bf c8             	movswl %ax,%ecx
801064f7:	8b 45 e8             	mov    -0x18(%ebp),%eax
801064fa:	0f bf d0             	movswl %ax,%edx
801064fd:	8b 45 ec             	mov    -0x14(%ebp),%eax
  int major, minor;
  
  begin_op();
  if((len=argstr(0, &path)) < 0 ||
     argint(1, &major) < 0 ||
     argint(2, &minor) < 0 ||
80106500:	51                   	push   %ecx
80106501:	52                   	push   %edx
80106502:	6a 03                	push   $0x3
80106504:	50                   	push   %eax
80106505:	e8 c8 fb ff ff       	call   801060d2 <create>
8010650a:	83 c4 10             	add    $0x10,%esp
8010650d:	89 45 f0             	mov    %eax,-0x10(%ebp)
80106510:	83 7d f0 00          	cmpl   $0x0,-0x10(%ebp)
80106514:	75 0c                	jne    80106522 <sys_mknod+0x80>
     (ip = create(path, T_DEV, major, minor)) == 0){
    end_op();
80106516:	e8 be d0 ff ff       	call   801035d9 <end_op>
    return -1;
8010651b:	b8 ff ff ff ff       	mov    $0xffffffff,%eax
80106520:	eb 18                	jmp    8010653a <sys_mknod+0x98>
  }
  iunlockput(ip);
80106522:	83 ec 0c             	sub    $0xc,%esp
80106525:	ff 75 f0             	pushl  -0x10(%ebp)
80106528:	e8 fd b6 ff ff       	call   80101c2a <iunlockput>
8010652d:	83 c4 10             	add    $0x10,%esp
  end_op();
80106530:	e8 a4 d0 ff ff       	call   801035d9 <end_op>
  return 0;
80106535:	b8 00 00 00 00       	mov    $0x0,%eax
}
8010653a:	c9                   	leave  
8010653b:	c3                   	ret    

8010653c <sys_chdir>:

int
sys_chdir(void)
{
8010653c:	55                   	push   %ebp
8010653d:	89 e5                	mov    %esp,%ebp
8010653f:	83 ec 18             	sub    $0x18,%esp
  char *path;
  struct inode *ip;

  begin_op();
80106542:	e8 06 d0 ff ff       	call   8010354d <begin_op>
  if(argstr(0, &path) < 0 || (ip = namei(path)) == 0){
80106547:	83 ec 08             	sub    $0x8,%esp
8010654a:	8d 45 f0             	lea    -0x10(%ebp),%eax
8010654d:	50                   	push   %eax
8010654e:	6a 00                	push   $0x0
80106550:	e8 4e f4 ff ff       	call   801059a3 <argstr>
80106555:	83 c4 10             	add    $0x10,%esp
80106558:	85 c0                	test   %eax,%eax
8010655a:	78 18                	js     80106574 <sys_chdir+0x38>
8010655c:	8b 45 f0             	mov    -0x10(%ebp),%eax
8010655f:	83 ec 0c             	sub    $0xc,%esp
80106562:	50                   	push   %eax
80106563:	e8 c0 bf ff ff       	call   80102528 <namei>
80106568:	83 c4 10             	add    $0x10,%esp
8010656b:	89 45 f4             	mov    %eax,-0xc(%ebp)
8010656e:	83 7d f4 00          	cmpl   $0x0,-0xc(%ebp)
80106572:	75 0c                	jne    80106580 <sys_chdir+0x44>
    end_op();
80106574:	e8 60 d0 ff ff       	call   801035d9 <end_op>
    return -1;
80106579:	b8 ff ff ff ff       	mov    $0xffffffff,%eax
8010657e:	eb 6e                	jmp    801065ee <sys_chdir+0xb2>
  }
  ilock(ip);
80106580:	83 ec 0c             	sub    $0xc,%esp
80106583:	ff 75 f4             	pushl  -0xc(%ebp)
80106586:	e8 df b3 ff ff       	call   8010196a <ilock>
8010658b:	83 c4 10             	add    $0x10,%esp
  if(ip->type != T_DIR){
8010658e:	8b 45 f4             	mov    -0xc(%ebp),%eax
80106591:	0f b7 40 10          	movzwl 0x10(%eax),%eax
80106595:	66 83 f8 01          	cmp    $0x1,%ax
80106599:	74 1a                	je     801065b5 <sys_chdir+0x79>
    iunlockput(ip);
8010659b:	83 ec 0c             	sub    $0xc,%esp
8010659e:	ff 75 f4             	pushl  -0xc(%ebp)
801065a1:	e8 84 b6 ff ff       	call   80101c2a <iunlockput>
801065a6:	83 c4 10             	add    $0x10,%esp
    end_op();
801065a9:	e8 2b d0 ff ff       	call   801035d9 <end_op>
    return -1;
801065ae:	b8 ff ff ff ff       	mov    $0xffffffff,%eax
801065b3:	eb 39                	jmp    801065ee <sys_chdir+0xb2>
  }
  iunlock(ip);
801065b5:	83 ec 0c             	sub    $0xc,%esp
801065b8:	ff 75 f4             	pushl  -0xc(%ebp)
801065bb:	e8 08 b5 ff ff       	call   80101ac8 <iunlock>
801065c0:	83 c4 10             	add    $0x10,%esp
  iput(proc->cwd);
801065c3:	65 a1 04 00 00 00    	mov    %gs:0x4,%eax
801065c9:	8b 40 68             	mov    0x68(%eax),%eax
801065cc:	83 ec 0c             	sub    $0xc,%esp
801065cf:	50                   	push   %eax
801065d0:	e8 65 b5 ff ff       	call   80101b3a <iput>
801065d5:	83 c4 10             	add    $0x10,%esp
  end_op();
801065d8:	e8 fc cf ff ff       	call   801035d9 <end_op>
  proc->cwd = ip;
801065dd:	65 a1 04 00 00 00    	mov    %gs:0x4,%eax
801065e3:	8b 55 f4             	mov    -0xc(%ebp),%edx
801065e6:	89 50 68             	mov    %edx,0x68(%eax)
  return 0;
801065e9:	b8 00 00 00 00       	mov    $0x0,%eax
}
801065ee:	c9                   	leave  
801065ef:	c3                   	ret    

801065f0 <sys_exec>:

int
sys_exec(void)
{
801065f0:	55                   	push   %ebp
801065f1:	89 e5                	mov    %esp,%ebp
801065f3:	81 ec 98 00 00 00    	sub    $0x98,%esp
  char *path, *argv[MAXARG];
  int i;
  uint uargv, uarg;

  if(argstr(0, &path) < 0 || argint(1, (int*)&uargv) < 0){
801065f9:	83 ec 08             	sub    $0x8,%esp
801065fc:	8d 45 f0             	lea    -0x10(%ebp),%eax
801065ff:	50                   	push   %eax
80106600:	6a 00                	push   $0x0
80106602:	e8 9c f3 ff ff       	call   801059a3 <argstr>
80106607:	83 c4 10             	add    $0x10,%esp
8010660a:	85 c0                	test   %eax,%eax
8010660c:	78 18                	js     80106626 <sys_exec+0x36>
8010660e:	83 ec 08             	sub    $0x8,%esp
80106611:	8d 85 6c ff ff ff    	lea    -0x94(%ebp),%eax
80106617:	50                   	push   %eax
80106618:	6a 01                	push   $0x1
8010661a:	e8 ff f2 ff ff       	call   8010591e <argint>
8010661f:	83 c4 10             	add    $0x10,%esp
80106622:	85 c0                	test   %eax,%eax
80106624:	79 0a                	jns    80106630 <sys_exec+0x40>
    return -1;
80106626:	b8 ff ff ff ff       	mov    $0xffffffff,%eax
8010662b:	e9 c6 00 00 00       	jmp    801066f6 <sys_exec+0x106>
  }
  memset(argv, 0, sizeof(argv));
80106630:	83 ec 04             	sub    $0x4,%esp
80106633:	68 80 00 00 00       	push   $0x80
80106638:	6a 00                	push   $0x0
8010663a:	8d 85 70 ff ff ff    	lea    -0x90(%ebp),%eax
80106640:	50                   	push   %eax
80106641:	e8 b3 ef ff ff       	call   801055f9 <memset>
80106646:	83 c4 10             	add    $0x10,%esp
  for(i=0;; i++){
80106649:	c7 45 f4 00 00 00 00 	movl   $0x0,-0xc(%ebp)
    if(i >= NELEM(argv))
80106650:	8b 45 f4             	mov    -0xc(%ebp),%eax
80106653:	83 f8 1f             	cmp    $0x1f,%eax
80106656:	76 0a                	jbe    80106662 <sys_exec+0x72>
      return -1;
80106658:	b8 ff ff ff ff       	mov    $0xffffffff,%eax
8010665d:	e9 94 00 00 00       	jmp    801066f6 <sys_exec+0x106>
    if(fetchint(uargv+4*i, (int*)&uarg) < 0)
80106662:	8b 45 f4             	mov    -0xc(%ebp),%eax
80106665:	c1 e0 02             	shl    $0x2,%eax
80106668:	89 c2                	mov    %eax,%edx
8010666a:	8b 85 6c ff ff ff    	mov    -0x94(%ebp),%eax
80106670:	01 c2                	add    %eax,%edx
80106672:	83 ec 08             	sub    $0x8,%esp
80106675:	8d 85 68 ff ff ff    	lea    -0x98(%ebp),%eax
8010667b:	50                   	push   %eax
8010667c:	52                   	push   %edx
8010667d:	e8 00 f2 ff ff       	call   80105882 <fetchint>
80106682:	83 c4 10             	add    $0x10,%esp
80106685:	85 c0                	test   %eax,%eax
80106687:	79 07                	jns    80106690 <sys_exec+0xa0>
      return -1;
80106689:	b8 ff ff ff ff       	mov    $0xffffffff,%eax
8010668e:	eb 66                	jmp    801066f6 <sys_exec+0x106>
    if(uarg == 0){
80106690:	8b 85 68 ff ff ff    	mov    -0x98(%ebp),%eax
80106696:	85 c0                	test   %eax,%eax
80106698:	75 27                	jne    801066c1 <sys_exec+0xd1>
      argv[i] = 0;
8010669a:	8b 45 f4             	mov    -0xc(%ebp),%eax
8010669d:	c7 84 85 70 ff ff ff 	movl   $0x0,-0x90(%ebp,%eax,4)
801066a4:	00 00 00 00 
      break;
801066a8:	90                   	nop
    }
    if(fetchstr(uarg, &argv[i]) < 0)
      return -1;
  }
  return exec(path, argv);
801066a9:	8b 45 f0             	mov    -0x10(%ebp),%eax
801066ac:	83 ec 08             	sub    $0x8,%esp
801066af:	8d 95 70 ff ff ff    	lea    -0x90(%ebp),%edx
801066b5:	52                   	push   %edx
801066b6:	50                   	push   %eax
801066b7:	e8 b5 a4 ff ff       	call   80100b71 <exec>
801066bc:	83 c4 10             	add    $0x10,%esp
801066bf:	eb 35                	jmp    801066f6 <sys_exec+0x106>
      return -1;
    if(uarg == 0){
      argv[i] = 0;
      break;
    }
    if(fetchstr(uarg, &argv[i]) < 0)
801066c1:	8d 85 70 ff ff ff    	lea    -0x90(%ebp),%eax
801066c7:	8b 55 f4             	mov    -0xc(%ebp),%edx
801066ca:	c1 e2 02             	shl    $0x2,%edx
801066cd:	01 c2                	add    %eax,%edx
801066cf:	8b 85 68 ff ff ff    	mov    -0x98(%ebp),%eax
801066d5:	83 ec 08             	sub    $0x8,%esp
801066d8:	52                   	push   %edx
801066d9:	50                   	push   %eax
801066da:	e8 dd f1 ff ff       	call   801058bc <fetchstr>
801066df:	83 c4 10             	add    $0x10,%esp
801066e2:	85 c0                	test   %eax,%eax
801066e4:	79 07                	jns    801066ed <sys_exec+0xfd>
      return -1;
801066e6:	b8 ff ff ff ff       	mov    $0xffffffff,%eax
801066eb:	eb 09                	jmp    801066f6 <sys_exec+0x106>

  if(argstr(0, &path) < 0 || argint(1, (int*)&uargv) < 0){
    return -1;
  }
  memset(argv, 0, sizeof(argv));
  for(i=0;; i++){
801066ed:	83 45 f4 01          	addl   $0x1,-0xc(%ebp)
      argv[i] = 0;
      break;
    }
    if(fetchstr(uarg, &argv[i]) < 0)
      return -1;
  }
801066f1:	e9 5a ff ff ff       	jmp    80106650 <sys_exec+0x60>
  return exec(path, argv);
}
801066f6:	c9                   	leave  
801066f7:	c3                   	ret    

801066f8 <sys_pipe>:

int
sys_pipe(void)
{
801066f8:	55                   	push   %ebp
801066f9:	89 e5                	mov    %esp,%ebp
801066fb:	83 ec 28             	sub    $0x28,%esp
  int *fd;
  struct file *rf, *wf;
  int fd0, fd1;

  if(argptr(0, (void*)&fd, 2*sizeof(fd[0])) < 0)
801066fe:	83 ec 04             	sub    $0x4,%esp
80106701:	6a 08                	push   $0x8
80106703:	8d 45 ec             	lea    -0x14(%ebp),%eax
80106706:	50                   	push   %eax
80106707:	6a 00                	push   $0x0
80106709:	e8 38 f2 ff ff       	call   80105946 <argptr>
8010670e:	83 c4 10             	add    $0x10,%esp
80106711:	85 c0                	test   %eax,%eax
80106713:	79 0a                	jns    8010671f <sys_pipe+0x27>
    return -1;
80106715:	b8 ff ff ff ff       	mov    $0xffffffff,%eax
8010671a:	e9 af 00 00 00       	jmp    801067ce <sys_pipe+0xd6>
  if(pipealloc(&rf, &wf) < 0)
8010671f:	83 ec 08             	sub    $0x8,%esp
80106722:	8d 45 e4             	lea    -0x1c(%ebp),%eax
80106725:	50                   	push   %eax
80106726:	8d 45 e8             	lea    -0x18(%ebp),%eax
80106729:	50                   	push   %eax
8010672a:	e8 12 d9 ff ff       	call   80104041 <pipealloc>
8010672f:	83 c4 10             	add    $0x10,%esp
80106732:	85 c0                	test   %eax,%eax
80106734:	79 0a                	jns    80106740 <sys_pipe+0x48>
    return -1;
80106736:	b8 ff ff ff ff       	mov    $0xffffffff,%eax
8010673b:	e9 8e 00 00 00       	jmp    801067ce <sys_pipe+0xd6>
  fd0 = -1;
80106740:	c7 45 f4 ff ff ff ff 	movl   $0xffffffff,-0xc(%ebp)
  if((fd0 = fdalloc(rf)) < 0 || (fd1 = fdalloc(wf)) < 0){
80106747:	8b 45 e8             	mov    -0x18(%ebp),%eax
8010674a:	83 ec 0c             	sub    $0xc,%esp
8010674d:	50                   	push   %eax
8010674e:	e8 7c f3 ff ff       	call   80105acf <fdalloc>
80106753:	83 c4 10             	add    $0x10,%esp
80106756:	89 45 f4             	mov    %eax,-0xc(%ebp)
80106759:	83 7d f4 00          	cmpl   $0x0,-0xc(%ebp)
8010675d:	78 18                	js     80106777 <sys_pipe+0x7f>
8010675f:	8b 45 e4             	mov    -0x1c(%ebp),%eax
80106762:	83 ec 0c             	sub    $0xc,%esp
80106765:	50                   	push   %eax
80106766:	e8 64 f3 ff ff       	call   80105acf <fdalloc>
8010676b:	83 c4 10             	add    $0x10,%esp
8010676e:	89 45 f0             	mov    %eax,-0x10(%ebp)
80106771:	83 7d f0 00          	cmpl   $0x0,-0x10(%ebp)
80106775:	79 3f                	jns    801067b6 <sys_pipe+0xbe>
    if(fd0 >= 0)
80106777:	83 7d f4 00          	cmpl   $0x0,-0xc(%ebp)
8010677b:	78 14                	js     80106791 <sys_pipe+0x99>
      proc->ofile[fd0] = 0;
8010677d:	65 a1 04 00 00 00    	mov    %gs:0x4,%eax
80106783:	8b 55 f4             	mov    -0xc(%ebp),%edx
80106786:	83 c2 08             	add    $0x8,%edx
80106789:	c7 44 90 08 00 00 00 	movl   $0x0,0x8(%eax,%edx,4)
80106790:	00 
    fileclose(rf);
80106791:	8b 45 e8             	mov    -0x18(%ebp),%eax
80106794:	83 ec 0c             	sub    $0xc,%esp
80106797:	50                   	push   %eax
80106798:	e8 b4 a8 ff ff       	call   80101051 <fileclose>
8010679d:	83 c4 10             	add    $0x10,%esp
    fileclose(wf);
801067a0:	8b 45 e4             	mov    -0x1c(%ebp),%eax
801067a3:	83 ec 0c             	sub    $0xc,%esp
801067a6:	50                   	push   %eax
801067a7:	e8 a5 a8 ff ff       	call   80101051 <fileclose>
801067ac:	83 c4 10             	add    $0x10,%esp
    return -1;
801067af:	b8 ff ff ff ff       	mov    $0xffffffff,%eax
801067b4:	eb 18                	jmp    801067ce <sys_pipe+0xd6>
  }
  fd[0] = fd0;
801067b6:	8b 45 ec             	mov    -0x14(%ebp),%eax
801067b9:	8b 55 f4             	mov    -0xc(%ebp),%edx
801067bc:	89 10                	mov    %edx,(%eax)
  fd[1] = fd1;
801067be:	8b 45 ec             	mov    -0x14(%ebp),%eax
801067c1:	8d 50 04             	lea    0x4(%eax),%edx
801067c4:	8b 45 f0             	mov    -0x10(%ebp),%eax
801067c7:	89 02                	mov    %eax,(%edx)
  return 0;
801067c9:	b8 00 00 00 00       	mov    $0x0,%eax
}
801067ce:	c9                   	leave  
801067cf:	c3                   	ret    

801067d0 <outw>:
  asm volatile("out %0,%1" : : "a" (data), "d" (port));
}

static inline void
outw(ushort port, ushort data)
{
801067d0:	55                   	push   %ebp
801067d1:	89 e5                	mov    %esp,%ebp
801067d3:	83 ec 08             	sub    $0x8,%esp
801067d6:	8b 55 08             	mov    0x8(%ebp),%edx
801067d9:	8b 45 0c             	mov    0xc(%ebp),%eax
801067dc:	66 89 55 fc          	mov    %dx,-0x4(%ebp)
801067e0:	66 89 45 f8          	mov    %ax,-0x8(%ebp)
  asm volatile("out %0,%1" : : "a" (data), "d" (port));
801067e4:	0f b7 45 f8          	movzwl -0x8(%ebp),%eax
801067e8:	0f b7 55 fc          	movzwl -0x4(%ebp),%edx
801067ec:	66 ef                	out    %ax,(%dx)
}
801067ee:	90                   	nop
801067ef:	c9                   	leave  
801067f0:	c3                   	ret    

801067f1 <sys_fork>:
#include "proc.h"
#include "uproc.h"

int
sys_fork(void)
{
801067f1:	55                   	push   %ebp
801067f2:	89 e5                	mov    %esp,%ebp
801067f4:	83 ec 08             	sub    $0x8,%esp
  return fork();
801067f7:	e8 93 df ff ff       	call   8010478f <fork>
}
801067fc:	c9                   	leave  
801067fd:	c3                   	ret    

801067fe <sys_exit>:

int
sys_exit(void)
{
801067fe:	55                   	push   %ebp
801067ff:	89 e5                	mov    %esp,%ebp
80106801:	83 ec 08             	sub    $0x8,%esp
  exit();
80106804:	e8 41 e1 ff ff       	call   8010494a <exit>
  return 0;  // not reached
80106809:	b8 00 00 00 00       	mov    $0x0,%eax
}
8010680e:	c9                   	leave  
8010680f:	c3                   	ret    

80106810 <sys_wait>:

int
sys_wait(void)
{
80106810:	55                   	push   %ebp
80106811:	89 e5                	mov    %esp,%ebp
80106813:	83 ec 08             	sub    $0x8,%esp
  return wait();
80106816:	e8 6a e2 ff ff       	call   80104a85 <wait>
}
8010681b:	c9                   	leave  
8010681c:	c3                   	ret    

8010681d <sys_kill>:

int
sys_kill(void)
{
8010681d:	55                   	push   %ebp
8010681e:	89 e5                	mov    %esp,%ebp
80106820:	83 ec 18             	sub    $0x18,%esp
  int pid;

  if(argint(0, &pid) < 0)
80106823:	83 ec 08             	sub    $0x8,%esp
80106826:	8d 45 f4             	lea    -0xc(%ebp),%eax
80106829:	50                   	push   %eax
8010682a:	6a 00                	push   $0x0
8010682c:	e8 ed f0 ff ff       	call   8010591e <argint>
80106831:	83 c4 10             	add    $0x10,%esp
80106834:	85 c0                	test   %eax,%eax
80106836:	79 07                	jns    8010683f <sys_kill+0x22>
    return -1;
80106838:	b8 ff ff ff ff       	mov    $0xffffffff,%eax
8010683d:	eb 0f                	jmp    8010684e <sys_kill+0x31>
  return kill(pid);
8010683f:	8b 45 f4             	mov    -0xc(%ebp),%eax
80106842:	83 ec 0c             	sub    $0xc,%esp
80106845:	50                   	push   %eax
80106846:	e8 cf e6 ff ff       	call   80104f1a <kill>
8010684b:	83 c4 10             	add    $0x10,%esp
}
8010684e:	c9                   	leave  
8010684f:	c3                   	ret    

80106850 <sys_getpid>:

int
sys_getpid(void)
{
80106850:	55                   	push   %ebp
80106851:	89 e5                	mov    %esp,%ebp
  return proc->pid;
80106853:	65 a1 04 00 00 00    	mov    %gs:0x4,%eax
80106859:	8b 40 10             	mov    0x10(%eax),%eax
}
8010685c:	5d                   	pop    %ebp
8010685d:	c3                   	ret    

8010685e <sys_sbrk>:

int
sys_sbrk(void)
{
8010685e:	55                   	push   %ebp
8010685f:	89 e5                	mov    %esp,%ebp
80106861:	83 ec 18             	sub    $0x18,%esp
  int addr;
  int n;

  if(argint(0, &n) < 0)
80106864:	83 ec 08             	sub    $0x8,%esp
80106867:	8d 45 f0             	lea    -0x10(%ebp),%eax
8010686a:	50                   	push   %eax
8010686b:	6a 00                	push   $0x0
8010686d:	e8 ac f0 ff ff       	call   8010591e <argint>
80106872:	83 c4 10             	add    $0x10,%esp
80106875:	85 c0                	test   %eax,%eax
80106877:	79 07                	jns    80106880 <sys_sbrk+0x22>
    return -1;
80106879:	b8 ff ff ff ff       	mov    $0xffffffff,%eax
8010687e:	eb 28                	jmp    801068a8 <sys_sbrk+0x4a>
  addr = proc->sz;
80106880:	65 a1 04 00 00 00    	mov    %gs:0x4,%eax
80106886:	8b 00                	mov    (%eax),%eax
80106888:	89 45 f4             	mov    %eax,-0xc(%ebp)
  if(growproc(n) < 0)
8010688b:	8b 45 f0             	mov    -0x10(%ebp),%eax
8010688e:	83 ec 0c             	sub    $0xc,%esp
80106891:	50                   	push   %eax
80106892:	e8 55 de ff ff       	call   801046ec <growproc>
80106897:	83 c4 10             	add    $0x10,%esp
8010689a:	85 c0                	test   %eax,%eax
8010689c:	79 07                	jns    801068a5 <sys_sbrk+0x47>
    return -1;
8010689e:	b8 ff ff ff ff       	mov    $0xffffffff,%eax
801068a3:	eb 03                	jmp    801068a8 <sys_sbrk+0x4a>
  return addr;
801068a5:	8b 45 f4             	mov    -0xc(%ebp),%eax
}
801068a8:	c9                   	leave  
801068a9:	c3                   	ret    

801068aa <sys_sleep>:

int
sys_sleep(void)
{
801068aa:	55                   	push   %ebp
801068ab:	89 e5                	mov    %esp,%ebp
801068ad:	83 ec 18             	sub    $0x18,%esp
  int n;
  uint ticks0;
  
  if(argint(0, &n) < 0)
801068b0:	83 ec 08             	sub    $0x8,%esp
801068b3:	8d 45 f0             	lea    -0x10(%ebp),%eax
801068b6:	50                   	push   %eax
801068b7:	6a 00                	push   $0x0
801068b9:	e8 60 f0 ff ff       	call   8010591e <argint>
801068be:	83 c4 10             	add    $0x10,%esp
801068c1:	85 c0                	test   %eax,%eax
801068c3:	79 07                	jns    801068cc <sys_sleep+0x22>
    return -1;
801068c5:	b8 ff ff ff ff       	mov    $0xffffffff,%eax
801068ca:	eb 44                	jmp    80106910 <sys_sleep+0x66>
  ticks0 = ticks;
801068cc:	a1 c0 65 11 80       	mov    0x801165c0,%eax
801068d1:	89 45 f4             	mov    %eax,-0xc(%ebp)
  while(ticks - ticks0 < n){
801068d4:	eb 26                	jmp    801068fc <sys_sleep+0x52>
    if(proc->killed){
801068d6:	65 a1 04 00 00 00    	mov    %gs:0x4,%eax
801068dc:	8b 40 24             	mov    0x24(%eax),%eax
801068df:	85 c0                	test   %eax,%eax
801068e1:	74 07                	je     801068ea <sys_sleep+0x40>
      return -1;
801068e3:	b8 ff ff ff ff       	mov    $0xffffffff,%eax
801068e8:	eb 26                	jmp    80106910 <sys_sleep+0x66>
    }
    sleep(&ticks, (struct spinlock *)0);
801068ea:	83 ec 08             	sub    $0x8,%esp
801068ed:	6a 00                	push   $0x0
801068ef:	68 c0 65 11 80       	push   $0x801165c0
801068f4:	e8 03 e5 ff ff       	call   80104dfc <sleep>
801068f9:	83 c4 10             	add    $0x10,%esp
  uint ticks0;
  
  if(argint(0, &n) < 0)
    return -1;
  ticks0 = ticks;
  while(ticks - ticks0 < n){
801068fc:	a1 c0 65 11 80       	mov    0x801165c0,%eax
80106901:	2b 45 f4             	sub    -0xc(%ebp),%eax
80106904:	8b 55 f0             	mov    -0x10(%ebp),%edx
80106907:	39 d0                	cmp    %edx,%eax
80106909:	72 cb                	jb     801068d6 <sys_sleep+0x2c>
    if(proc->killed){
      return -1;
    }
    sleep(&ticks, (struct spinlock *)0);
  }
  return 0;
8010690b:	b8 00 00 00 00       	mov    $0x0,%eax
}
80106910:	c9                   	leave  
80106911:	c3                   	ret    

80106912 <sys_uptime>:

// return how many clock tick interrupts have occurred
// since start. 
int
sys_uptime(void)
{
80106912:	55                   	push   %ebp
80106913:	89 e5                	mov    %esp,%ebp
80106915:	83 ec 10             	sub    $0x10,%esp
  uint xticks;
  
  xticks = ticks;
80106918:	a1 c0 65 11 80       	mov    0x801165c0,%eax
8010691d:	89 45 fc             	mov    %eax,-0x4(%ebp)
  return xticks;
80106920:	8b 45 fc             	mov    -0x4(%ebp),%eax
}
80106923:	c9                   	leave  
80106924:	c3                   	ret    

80106925 <sys_halt>:

//Turn of the computer
int
sys_halt(void){
80106925:	55                   	push   %ebp
80106926:	89 e5                	mov    %esp,%ebp
80106928:	83 ec 08             	sub    $0x8,%esp
  cprintf("Shutting down ...\n");
8010692b:	83 ec 0c             	sub    $0xc,%esp
8010692e:	68 47 8f 10 80       	push   $0x80108f47
80106933:	e8 8e 9a ff ff       	call   801003c6 <cprintf>
80106938:	83 c4 10             	add    $0x10,%esp
  outw( 0x604, 0x0 | 0x2000);
8010693b:	83 ec 08             	sub    $0x8,%esp
8010693e:	68 00 20 00 00       	push   $0x2000
80106943:	68 04 06 00 00       	push   $0x604
80106948:	e8 83 fe ff ff       	call   801067d0 <outw>
8010694d:	83 c4 10             	add    $0x10,%esp
  return 0;
80106950:	b8 00 00 00 00       	mov    $0x0,%eax
}
80106955:	c9                   	leave  
80106956:	c3                   	ret    

80106957 <sys_date>:

#ifdef CS333_P1
int
sys_date(void)
{
80106957:	55                   	push   %ebp
80106958:	89 e5                	mov    %esp,%ebp
8010695a:	83 ec 18             	sub    $0x18,%esp
    struct rtcdate *d;
    if(argptr(0, (void*)&d, sizeof(struct rtcdate)) < 0)
8010695d:	83 ec 04             	sub    $0x4,%esp
80106960:	6a 18                	push   $0x18
80106962:	8d 45 f4             	lea    -0xc(%ebp),%eax
80106965:	50                   	push   %eax
80106966:	6a 00                	push   $0x0
80106968:	e8 d9 ef ff ff       	call   80105946 <argptr>
8010696d:	83 c4 10             	add    $0x10,%esp
80106970:	85 c0                	test   %eax,%eax
80106972:	79 07                	jns    8010697b <sys_date+0x24>
        return -1;
80106974:	b8 ff ff ff ff       	mov    $0xffffffff,%eax
80106979:	eb 14                	jmp    8010698f <sys_date+0x38>
    else {
        cmostime(d);
8010697b:	8b 45 f4             	mov    -0xc(%ebp),%eax
8010697e:	83 ec 0c             	sub    $0xc,%esp
80106981:	50                   	push   %eax
80106982:	e8 41 c8 ff ff       	call   801031c8 <cmostime>
80106987:	83 c4 10             	add    $0x10,%esp
        return 0;
8010698a:	b8 00 00 00 00       	mov    $0x0,%eax
    }
}
8010698f:	c9                   	leave  
80106990:	c3                   	ret    

80106991 <sys_getuid>:
#endif

#ifdef CS333_P2
int
sys_getuid(void)
{
80106991:	55                   	push   %ebp
80106992:	89 e5                	mov    %esp,%ebp
    return proc->uid;
80106994:	65 a1 04 00 00 00    	mov    %gs:0x4,%eax
8010699a:	8b 80 80 00 00 00    	mov    0x80(%eax),%eax
}
801069a0:	5d                   	pop    %ebp
801069a1:	c3                   	ret    

801069a2 <sys_getgid>:

int
sys_getgid(void)
{
801069a2:	55                   	push   %ebp
801069a3:	89 e5                	mov    %esp,%ebp
    return proc->gid;
801069a5:	65 a1 04 00 00 00    	mov    %gs:0x4,%eax
801069ab:	8b 80 84 00 00 00    	mov    0x84(%eax),%eax
}
801069b1:	5d                   	pop    %ebp
801069b2:	c3                   	ret    

801069b3 <sys_getppid>:

int
sys_getppid(void)
{
801069b3:	55                   	push   %ebp
801069b4:	89 e5                	mov    %esp,%ebp
    return proc->parent->pid;
801069b6:	65 a1 04 00 00 00    	mov    %gs:0x4,%eax
801069bc:	8b 40 14             	mov    0x14(%eax),%eax
801069bf:	8b 40 10             	mov    0x10(%eax),%eax
}
801069c2:	5d                   	pop    %ebp
801069c3:	c3                   	ret    

801069c4 <sys_setuid>:

int
sys_setuid(void)
{
801069c4:	55                   	push   %ebp
801069c5:	89 e5                	mov    %esp,%ebp
801069c7:	83 ec 18             	sub    $0x18,%esp
    int uid;

    if(argint(0, &uid) < 0)
801069ca:	83 ec 08             	sub    $0x8,%esp
801069cd:	8d 45 f4             	lea    -0xc(%ebp),%eax
801069d0:	50                   	push   %eax
801069d1:	6a 00                	push   $0x0
801069d3:	e8 46 ef ff ff       	call   8010591e <argint>
801069d8:	83 c4 10             	add    $0x10,%esp
801069db:	85 c0                	test   %eax,%eax
801069dd:	79 07                	jns    801069e6 <sys_setuid+0x22>
        return -1;
801069df:	b8 ff ff ff ff       	mov    $0xffffffff,%eax
801069e4:	eb 2c                	jmp    80106a12 <sys_setuid+0x4e>

    else if(uid < 0 || uid > 32767)
801069e6:	8b 45 f4             	mov    -0xc(%ebp),%eax
801069e9:	85 c0                	test   %eax,%eax
801069eb:	78 0a                	js     801069f7 <sys_setuid+0x33>
801069ed:	8b 45 f4             	mov    -0xc(%ebp),%eax
801069f0:	3d ff 7f 00 00       	cmp    $0x7fff,%eax
801069f5:	7e 07                	jle    801069fe <sys_setuid+0x3a>
        return -1;
801069f7:	b8 ff ff ff ff       	mov    $0xffffffff,%eax
801069fc:	eb 14                	jmp    80106a12 <sys_setuid+0x4e>
    else {
        proc->uid = uid;
801069fe:	65 a1 04 00 00 00    	mov    %gs:0x4,%eax
80106a04:	8b 55 f4             	mov    -0xc(%ebp),%edx
80106a07:	89 90 80 00 00 00    	mov    %edx,0x80(%eax)
        return 0;
80106a0d:	b8 00 00 00 00       	mov    $0x0,%eax
    }

}
80106a12:	c9                   	leave  
80106a13:	c3                   	ret    

80106a14 <sys_setgid>:

int
sys_setgid(void)
{
80106a14:	55                   	push   %ebp
80106a15:	89 e5                	mov    %esp,%ebp
80106a17:	83 ec 18             	sub    $0x18,%esp
    int gid;

    if(argint(0, &gid) < 0)
80106a1a:	83 ec 08             	sub    $0x8,%esp
80106a1d:	8d 45 f4             	lea    -0xc(%ebp),%eax
80106a20:	50                   	push   %eax
80106a21:	6a 00                	push   $0x0
80106a23:	e8 f6 ee ff ff       	call   8010591e <argint>
80106a28:	83 c4 10             	add    $0x10,%esp
80106a2b:	85 c0                	test   %eax,%eax
80106a2d:	79 07                	jns    80106a36 <sys_setgid+0x22>
        return -1;
80106a2f:	b8 ff ff ff ff       	mov    $0xffffffff,%eax
80106a34:	eb 2c                	jmp    80106a62 <sys_setgid+0x4e>

    else if(gid < 0 || gid > 32767)
80106a36:	8b 45 f4             	mov    -0xc(%ebp),%eax
80106a39:	85 c0                	test   %eax,%eax
80106a3b:	78 0a                	js     80106a47 <sys_setgid+0x33>
80106a3d:	8b 45 f4             	mov    -0xc(%ebp),%eax
80106a40:	3d ff 7f 00 00       	cmp    $0x7fff,%eax
80106a45:	7e 07                	jle    80106a4e <sys_setgid+0x3a>
        return -1;
80106a47:	b8 ff ff ff ff       	mov    $0xffffffff,%eax
80106a4c:	eb 14                	jmp    80106a62 <sys_setgid+0x4e>
    else {
        proc->gid = gid;
80106a4e:	65 a1 04 00 00 00    	mov    %gs:0x4,%eax
80106a54:	8b 55 f4             	mov    -0xc(%ebp),%edx
80106a57:	89 90 84 00 00 00    	mov    %edx,0x84(%eax)
        return 0;
80106a5d:	b8 00 00 00 00       	mov    $0x0,%eax
    }
}
80106a62:	c9                   	leave  
80106a63:	c3                   	ret    

80106a64 <sys_getprocs>:

int
sys_getprocs(void)
{
80106a64:	55                   	push   %ebp
80106a65:	89 e5                	mov    %esp,%ebp
80106a67:	83 ec 18             	sub    $0x18,%esp
    int max;
    struct uproc *table;

    if(argint(0, &max) < 0)
80106a6a:	83 ec 08             	sub    $0x8,%esp
80106a6d:	8d 45 f4             	lea    -0xc(%ebp),%eax
80106a70:	50                   	push   %eax
80106a71:	6a 00                	push   $0x0
80106a73:	e8 a6 ee ff ff       	call   8010591e <argint>
80106a78:	83 c4 10             	add    $0x10,%esp
80106a7b:	85 c0                	test   %eax,%eax
80106a7d:	79 07                	jns    80106a86 <sys_getprocs+0x22>
        return -1;
80106a7f:	b8 ff ff ff ff       	mov    $0xffffffff,%eax
80106a84:	eb 41                	jmp    80106ac7 <sys_getprocs+0x63>
    if(argptr(1, (void*)&table, max*sizeof(struct uproc)) < 0)
80106a86:	8b 45 f4             	mov    -0xc(%ebp),%eax
80106a89:	c1 e0 03             	shl    $0x3,%eax
80106a8c:	8d 14 c5 00 00 00 00 	lea    0x0(,%eax,8),%edx
80106a93:	29 c2                	sub    %eax,%edx
80106a95:	89 d0                	mov    %edx,%eax
80106a97:	83 ec 04             	sub    $0x4,%esp
80106a9a:	50                   	push   %eax
80106a9b:	8d 45 f0             	lea    -0x10(%ebp),%eax
80106a9e:	50                   	push   %eax
80106a9f:	6a 01                	push   $0x1
80106aa1:	e8 a0 ee ff ff       	call   80105946 <argptr>
80106aa6:	83 c4 10             	add    $0x10,%esp
80106aa9:	85 c0                	test   %eax,%eax
80106aab:	79 07                	jns    80106ab4 <sys_getprocs+0x50>
        return -1;
80106aad:	b8 ff ff ff ff       	mov    $0xffffffff,%eax
80106ab2:	eb 13                	jmp    80106ac7 <sys_getprocs+0x63>

    return getprocs(max, table);
80106ab4:	8b 55 f0             	mov    -0x10(%ebp),%edx
80106ab7:	8b 45 f4             	mov    -0xc(%ebp),%eax
80106aba:	83 ec 08             	sub    $0x8,%esp
80106abd:	52                   	push   %edx
80106abe:	50                   	push   %eax
80106abf:	e8 df e4 ff ff       	call   80104fa3 <getprocs>
80106ac4:	83 c4 10             	add    $0x10,%esp
}
80106ac7:	c9                   	leave  
80106ac8:	c3                   	ret    

80106ac9 <outb>:
               "memory", "cc");
}

static inline void
outb(ushort port, uchar data)
{
80106ac9:	55                   	push   %ebp
80106aca:	89 e5                	mov    %esp,%ebp
80106acc:	83 ec 08             	sub    $0x8,%esp
80106acf:	8b 55 08             	mov    0x8(%ebp),%edx
80106ad2:	8b 45 0c             	mov    0xc(%ebp),%eax
80106ad5:	66 89 55 fc          	mov    %dx,-0x4(%ebp)
80106ad9:	88 45 f8             	mov    %al,-0x8(%ebp)
  asm volatile("out %0,%1" : : "a" (data), "d" (port));
80106adc:	0f b6 45 f8          	movzbl -0x8(%ebp),%eax
80106ae0:	0f b7 55 fc          	movzwl -0x4(%ebp),%edx
80106ae4:	ee                   	out    %al,(%dx)
}
80106ae5:	90                   	nop
80106ae6:	c9                   	leave  
80106ae7:	c3                   	ret    

80106ae8 <timerinit>:
#define TIMER_RATEGEN   0x04    // mode 2, rate generator
#define TIMER_16BIT     0x30    // r/w counter 16 bits, LSB first

void
timerinit(void)
{
80106ae8:	55                   	push   %ebp
80106ae9:	89 e5                	mov    %esp,%ebp
80106aeb:	83 ec 08             	sub    $0x8,%esp
  // Interrupt TPS times/sec.
  outb(TIMER_MODE, TIMER_SEL0 | TIMER_RATEGEN | TIMER_16BIT);
80106aee:	6a 34                	push   $0x34
80106af0:	6a 43                	push   $0x43
80106af2:	e8 d2 ff ff ff       	call   80106ac9 <outb>
80106af7:	83 c4 08             	add    $0x8,%esp
  outb(IO_TIMER1, TIMER_DIV(TPS) % 256);
80106afa:	68 a9 00 00 00       	push   $0xa9
80106aff:	6a 40                	push   $0x40
80106b01:	e8 c3 ff ff ff       	call   80106ac9 <outb>
80106b06:	83 c4 08             	add    $0x8,%esp
  outb(IO_TIMER1, TIMER_DIV(TPS) / 256);
80106b09:	6a 04                	push   $0x4
80106b0b:	6a 40                	push   $0x40
80106b0d:	e8 b7 ff ff ff       	call   80106ac9 <outb>
80106b12:	83 c4 08             	add    $0x8,%esp
  picenable(IRQ_TIMER);
80106b15:	83 ec 0c             	sub    $0xc,%esp
80106b18:	6a 00                	push   $0x0
80106b1a:	e8 0c d4 ff ff       	call   80103f2b <picenable>
80106b1f:	83 c4 10             	add    $0x10,%esp
}
80106b22:	90                   	nop
80106b23:	c9                   	leave  
80106b24:	c3                   	ret    

80106b25 <alltraps>:

  # vectors.S sends all traps here.
.globl alltraps
alltraps:
  # Build trap frame.
  pushl %ds
80106b25:	1e                   	push   %ds
  pushl %es
80106b26:	06                   	push   %es
  pushl %fs
80106b27:	0f a0                	push   %fs
  pushl %gs
80106b29:	0f a8                	push   %gs
  pushal
80106b2b:	60                   	pusha  
  
  # Set up data and per-cpu segments.
  movw $(SEG_KDATA<<3), %ax
80106b2c:	66 b8 10 00          	mov    $0x10,%ax
  movw %ax, %ds
80106b30:	8e d8                	mov    %eax,%ds
  movw %ax, %es
80106b32:	8e c0                	mov    %eax,%es
  movw $(SEG_KCPU<<3), %ax
80106b34:	66 b8 18 00          	mov    $0x18,%ax
  movw %ax, %fs
80106b38:	8e e0                	mov    %eax,%fs
  movw %ax, %gs
80106b3a:	8e e8                	mov    %eax,%gs

  # Call trap(tf), where tf=%esp
  pushl %esp
80106b3c:	54                   	push   %esp
  call trap
80106b3d:	e8 ce 01 00 00       	call   80106d10 <trap>
  addl $4, %esp
80106b42:	83 c4 04             	add    $0x4,%esp

80106b45 <trapret>:

  # Return falls through to trapret...
.globl trapret
trapret:
  popal
80106b45:	61                   	popa   
  popl %gs
80106b46:	0f a9                	pop    %gs
  popl %fs
80106b48:	0f a1                	pop    %fs
  popl %es
80106b4a:	07                   	pop    %es
  popl %ds
80106b4b:	1f                   	pop    %ds
  addl $0x8, %esp  # trapno and errcode
80106b4c:	83 c4 08             	add    $0x8,%esp
  iret
80106b4f:	cf                   	iret   

80106b50 <atom_inc>:

// Routines added for CS333
// atom_inc() added to simplify handling of ticks global
static inline void
atom_inc(volatile int *num)
{
80106b50:	55                   	push   %ebp
80106b51:	89 e5                	mov    %esp,%ebp
  asm volatile ( "lock incl %0" : "=m" (*num));
80106b53:	8b 45 08             	mov    0x8(%ebp),%eax
80106b56:	f0 ff 00             	lock incl (%eax)
}
80106b59:	90                   	nop
80106b5a:	5d                   	pop    %ebp
80106b5b:	c3                   	ret    

80106b5c <lidt>:

struct gatedesc;

static inline void
lidt(struct gatedesc *p, int size)
{
80106b5c:	55                   	push   %ebp
80106b5d:	89 e5                	mov    %esp,%ebp
80106b5f:	83 ec 10             	sub    $0x10,%esp
  volatile ushort pd[3];

  pd[0] = size-1;
80106b62:	8b 45 0c             	mov    0xc(%ebp),%eax
80106b65:	83 e8 01             	sub    $0x1,%eax
80106b68:	66 89 45 fa          	mov    %ax,-0x6(%ebp)
  pd[1] = (uint)p;
80106b6c:	8b 45 08             	mov    0x8(%ebp),%eax
80106b6f:	66 89 45 fc          	mov    %ax,-0x4(%ebp)
  pd[2] = (uint)p >> 16;
80106b73:	8b 45 08             	mov    0x8(%ebp),%eax
80106b76:	c1 e8 10             	shr    $0x10,%eax
80106b79:	66 89 45 fe          	mov    %ax,-0x2(%ebp)

  asm volatile("lidt (%0)" : : "r" (pd));
80106b7d:	8d 45 fa             	lea    -0x6(%ebp),%eax
80106b80:	0f 01 18             	lidtl  (%eax)
}
80106b83:	90                   	nop
80106b84:	c9                   	leave  
80106b85:	c3                   	ret    

80106b86 <rcr2>:
  return result;
}

static inline uint
rcr2(void)
{
80106b86:	55                   	push   %ebp
80106b87:	89 e5                	mov    %esp,%ebp
80106b89:	83 ec 10             	sub    $0x10,%esp
  uint val;
  asm volatile("movl %%cr2,%0" : "=r" (val));
80106b8c:	0f 20 d0             	mov    %cr2,%eax
80106b8f:	89 45 fc             	mov    %eax,-0x4(%ebp)
  return val;
80106b92:	8b 45 fc             	mov    -0x4(%ebp),%eax
}
80106b95:	c9                   	leave  
80106b96:	c3                   	ret    

80106b97 <tvinit>:
// Software Developers Manual, Vol 3A, 8.1.1 Guaranteed Atomic Operations.
uint ticks __attribute__ ((aligned (4)));

void
tvinit(void)
{
80106b97:	55                   	push   %ebp
80106b98:	89 e5                	mov    %esp,%ebp
80106b9a:	83 ec 10             	sub    $0x10,%esp
  int i;

  for(i = 0; i < 256; i++)
80106b9d:	c7 45 fc 00 00 00 00 	movl   $0x0,-0x4(%ebp)
80106ba4:	e9 c3 00 00 00       	jmp    80106c6c <tvinit+0xd5>
    SETGATE(idt[i], 0, SEG_KCODE<<3, vectors[i], 0);
80106ba9:	8b 45 fc             	mov    -0x4(%ebp),%eax
80106bac:	8b 04 85 b8 c0 10 80 	mov    -0x7fef3f48(,%eax,4),%eax
80106bb3:	89 c2                	mov    %eax,%edx
80106bb5:	8b 45 fc             	mov    -0x4(%ebp),%eax
80106bb8:	66 89 14 c5 c0 5d 11 	mov    %dx,-0x7feea240(,%eax,8)
80106bbf:	80 
80106bc0:	8b 45 fc             	mov    -0x4(%ebp),%eax
80106bc3:	66 c7 04 c5 c2 5d 11 	movw   $0x8,-0x7feea23e(,%eax,8)
80106bca:	80 08 00 
80106bcd:	8b 45 fc             	mov    -0x4(%ebp),%eax
80106bd0:	0f b6 14 c5 c4 5d 11 	movzbl -0x7feea23c(,%eax,8),%edx
80106bd7:	80 
80106bd8:	83 e2 e0             	and    $0xffffffe0,%edx
80106bdb:	88 14 c5 c4 5d 11 80 	mov    %dl,-0x7feea23c(,%eax,8)
80106be2:	8b 45 fc             	mov    -0x4(%ebp),%eax
80106be5:	0f b6 14 c5 c4 5d 11 	movzbl -0x7feea23c(,%eax,8),%edx
80106bec:	80 
80106bed:	83 e2 1f             	and    $0x1f,%edx
80106bf0:	88 14 c5 c4 5d 11 80 	mov    %dl,-0x7feea23c(,%eax,8)
80106bf7:	8b 45 fc             	mov    -0x4(%ebp),%eax
80106bfa:	0f b6 14 c5 c5 5d 11 	movzbl -0x7feea23b(,%eax,8),%edx
80106c01:	80 
80106c02:	83 e2 f0             	and    $0xfffffff0,%edx
80106c05:	83 ca 0e             	or     $0xe,%edx
80106c08:	88 14 c5 c5 5d 11 80 	mov    %dl,-0x7feea23b(,%eax,8)
80106c0f:	8b 45 fc             	mov    -0x4(%ebp),%eax
80106c12:	0f b6 14 c5 c5 5d 11 	movzbl -0x7feea23b(,%eax,8),%edx
80106c19:	80 
80106c1a:	83 e2 ef             	and    $0xffffffef,%edx
80106c1d:	88 14 c5 c5 5d 11 80 	mov    %dl,-0x7feea23b(,%eax,8)
80106c24:	8b 45 fc             	mov    -0x4(%ebp),%eax
80106c27:	0f b6 14 c5 c5 5d 11 	movzbl -0x7feea23b(,%eax,8),%edx
80106c2e:	80 
80106c2f:	83 e2 9f             	and    $0xffffff9f,%edx
80106c32:	88 14 c5 c5 5d 11 80 	mov    %dl,-0x7feea23b(,%eax,8)
80106c39:	8b 45 fc             	mov    -0x4(%ebp),%eax
80106c3c:	0f b6 14 c5 c5 5d 11 	movzbl -0x7feea23b(,%eax,8),%edx
80106c43:	80 
80106c44:	83 ca 80             	or     $0xffffff80,%edx
80106c47:	88 14 c5 c5 5d 11 80 	mov    %dl,-0x7feea23b(,%eax,8)
80106c4e:	8b 45 fc             	mov    -0x4(%ebp),%eax
80106c51:	8b 04 85 b8 c0 10 80 	mov    -0x7fef3f48(,%eax,4),%eax
80106c58:	c1 e8 10             	shr    $0x10,%eax
80106c5b:	89 c2                	mov    %eax,%edx
80106c5d:	8b 45 fc             	mov    -0x4(%ebp),%eax
80106c60:	66 89 14 c5 c6 5d 11 	mov    %dx,-0x7feea23a(,%eax,8)
80106c67:	80 
void
tvinit(void)
{
  int i;

  for(i = 0; i < 256; i++)
80106c68:	83 45 fc 01          	addl   $0x1,-0x4(%ebp)
80106c6c:	81 7d fc ff 00 00 00 	cmpl   $0xff,-0x4(%ebp)
80106c73:	0f 8e 30 ff ff ff    	jle    80106ba9 <tvinit+0x12>
    SETGATE(idt[i], 0, SEG_KCODE<<3, vectors[i], 0);
  SETGATE(idt[T_SYSCALL], 1, SEG_KCODE<<3, vectors[T_SYSCALL], DPL_USER);
80106c79:	a1 b8 c1 10 80       	mov    0x8010c1b8,%eax
80106c7e:	66 a3 c0 5f 11 80    	mov    %ax,0x80115fc0
80106c84:	66 c7 05 c2 5f 11 80 	movw   $0x8,0x80115fc2
80106c8b:	08 00 
80106c8d:	0f b6 05 c4 5f 11 80 	movzbl 0x80115fc4,%eax
80106c94:	83 e0 e0             	and    $0xffffffe0,%eax
80106c97:	a2 c4 5f 11 80       	mov    %al,0x80115fc4
80106c9c:	0f b6 05 c4 5f 11 80 	movzbl 0x80115fc4,%eax
80106ca3:	83 e0 1f             	and    $0x1f,%eax
80106ca6:	a2 c4 5f 11 80       	mov    %al,0x80115fc4
80106cab:	0f b6 05 c5 5f 11 80 	movzbl 0x80115fc5,%eax
80106cb2:	83 c8 0f             	or     $0xf,%eax
80106cb5:	a2 c5 5f 11 80       	mov    %al,0x80115fc5
80106cba:	0f b6 05 c5 5f 11 80 	movzbl 0x80115fc5,%eax
80106cc1:	83 e0 ef             	and    $0xffffffef,%eax
80106cc4:	a2 c5 5f 11 80       	mov    %al,0x80115fc5
80106cc9:	0f b6 05 c5 5f 11 80 	movzbl 0x80115fc5,%eax
80106cd0:	83 c8 60             	or     $0x60,%eax
80106cd3:	a2 c5 5f 11 80       	mov    %al,0x80115fc5
80106cd8:	0f b6 05 c5 5f 11 80 	movzbl 0x80115fc5,%eax
80106cdf:	83 c8 80             	or     $0xffffff80,%eax
80106ce2:	a2 c5 5f 11 80       	mov    %al,0x80115fc5
80106ce7:	a1 b8 c1 10 80       	mov    0x8010c1b8,%eax
80106cec:	c1 e8 10             	shr    $0x10,%eax
80106cef:	66 a3 c6 5f 11 80    	mov    %ax,0x80115fc6
  
}
80106cf5:	90                   	nop
80106cf6:	c9                   	leave  
80106cf7:	c3                   	ret    

80106cf8 <idtinit>:

void
idtinit(void)
{
80106cf8:	55                   	push   %ebp
80106cf9:	89 e5                	mov    %esp,%ebp
  lidt(idt, sizeof(idt));
80106cfb:	68 00 08 00 00       	push   $0x800
80106d00:	68 c0 5d 11 80       	push   $0x80115dc0
80106d05:	e8 52 fe ff ff       	call   80106b5c <lidt>
80106d0a:	83 c4 08             	add    $0x8,%esp
}
80106d0d:	90                   	nop
80106d0e:	c9                   	leave  
80106d0f:	c3                   	ret    

80106d10 <trap>:

//PAGEBREAK: 41
void
trap(struct trapframe *tf)
{
80106d10:	55                   	push   %ebp
80106d11:	89 e5                	mov    %esp,%ebp
80106d13:	57                   	push   %edi
80106d14:	56                   	push   %esi
80106d15:	53                   	push   %ebx
80106d16:	83 ec 1c             	sub    $0x1c,%esp
  if(tf->trapno == T_SYSCALL){
80106d19:	8b 45 08             	mov    0x8(%ebp),%eax
80106d1c:	8b 40 30             	mov    0x30(%eax),%eax
80106d1f:	83 f8 40             	cmp    $0x40,%eax
80106d22:	75 3e                	jne    80106d62 <trap+0x52>
    if(proc->killed)
80106d24:	65 a1 04 00 00 00    	mov    %gs:0x4,%eax
80106d2a:	8b 40 24             	mov    0x24(%eax),%eax
80106d2d:	85 c0                	test   %eax,%eax
80106d2f:	74 05                	je     80106d36 <trap+0x26>
      exit();
80106d31:	e8 14 dc ff ff       	call   8010494a <exit>
    proc->tf = tf;
80106d36:	65 a1 04 00 00 00    	mov    %gs:0x4,%eax
80106d3c:	8b 55 08             	mov    0x8(%ebp),%edx
80106d3f:	89 50 18             	mov    %edx,0x18(%eax)
    syscall();
80106d42:	e8 8d ec ff ff       	call   801059d4 <syscall>
    if(proc->killed)
80106d47:	65 a1 04 00 00 00    	mov    %gs:0x4,%eax
80106d4d:	8b 40 24             	mov    0x24(%eax),%eax
80106d50:	85 c0                	test   %eax,%eax
80106d52:	0f 84 21 02 00 00    	je     80106f79 <trap+0x269>
      exit();
80106d58:	e8 ed db ff ff       	call   8010494a <exit>
    return;
80106d5d:	e9 17 02 00 00       	jmp    80106f79 <trap+0x269>
  }

  switch(tf->trapno){
80106d62:	8b 45 08             	mov    0x8(%ebp),%eax
80106d65:	8b 40 30             	mov    0x30(%eax),%eax
80106d68:	83 e8 20             	sub    $0x20,%eax
80106d6b:	83 f8 1f             	cmp    $0x1f,%eax
80106d6e:	0f 87 a3 00 00 00    	ja     80106e17 <trap+0x107>
80106d74:	8b 04 85 fc 8f 10 80 	mov    -0x7fef7004(,%eax,4),%eax
80106d7b:	ff e0                	jmp    *%eax
  case T_IRQ0 + IRQ_TIMER:
   if(cpu->id == 0){
80106d7d:	65 a1 00 00 00 00    	mov    %gs:0x0,%eax
80106d83:	0f b6 00             	movzbl (%eax),%eax
80106d86:	84 c0                	test   %al,%al
80106d88:	75 20                	jne    80106daa <trap+0x9a>
      atom_inc((int *)&ticks);   // guaranteed atomic so no lock necessary
80106d8a:	83 ec 0c             	sub    $0xc,%esp
80106d8d:	68 c0 65 11 80       	push   $0x801165c0
80106d92:	e8 b9 fd ff ff       	call   80106b50 <atom_inc>
80106d97:	83 c4 10             	add    $0x10,%esp
      wakeup(&ticks);
80106d9a:	83 ec 0c             	sub    $0xc,%esp
80106d9d:	68 c0 65 11 80       	push   $0x801165c0
80106da2:	e8 3c e1 ff ff       	call   80104ee3 <wakeup>
80106da7:	83 c4 10             	add    $0x10,%esp
    }
    lapiceoi();
80106daa:	e8 76 c2 ff ff       	call   80103025 <lapiceoi>
    break;
80106daf:	e9 1c 01 00 00       	jmp    80106ed0 <trap+0x1c0>
  case T_IRQ0 + IRQ_IDE:
    ideintr();
80106db4:	e8 7f ba ff ff       	call   80102838 <ideintr>
    lapiceoi();
80106db9:	e8 67 c2 ff ff       	call   80103025 <lapiceoi>
    break;
80106dbe:	e9 0d 01 00 00       	jmp    80106ed0 <trap+0x1c0>
  case T_IRQ0 + IRQ_IDE+1:
    // Bochs generates spurious IDE1 interrupts.
    break;
  case T_IRQ0 + IRQ_KBD:
    kbdintr();
80106dc3:	e8 5f c0 ff ff       	call   80102e27 <kbdintr>
    lapiceoi();
80106dc8:	e8 58 c2 ff ff       	call   80103025 <lapiceoi>
    break;
80106dcd:	e9 fe 00 00 00       	jmp    80106ed0 <trap+0x1c0>
  case T_IRQ0 + IRQ_COM1:
    uartintr();
80106dd2:	e8 83 03 00 00       	call   8010715a <uartintr>
    lapiceoi();
80106dd7:	e8 49 c2 ff ff       	call   80103025 <lapiceoi>
    break;
80106ddc:	e9 ef 00 00 00       	jmp    80106ed0 <trap+0x1c0>
  case T_IRQ0 + 7:
  case T_IRQ0 + IRQ_SPURIOUS:
    cprintf("cpu%d: spurious interrupt at %x:%x\n",
80106de1:	8b 45 08             	mov    0x8(%ebp),%eax
80106de4:	8b 48 38             	mov    0x38(%eax),%ecx
            cpu->id, tf->cs, tf->eip);
80106de7:	8b 45 08             	mov    0x8(%ebp),%eax
80106dea:	0f b7 40 3c          	movzwl 0x3c(%eax),%eax
    uartintr();
    lapiceoi();
    break;
  case T_IRQ0 + 7:
  case T_IRQ0 + IRQ_SPURIOUS:
    cprintf("cpu%d: spurious interrupt at %x:%x\n",
80106dee:	0f b7 d0             	movzwl %ax,%edx
            cpu->id, tf->cs, tf->eip);
80106df1:	65 a1 00 00 00 00    	mov    %gs:0x0,%eax
80106df7:	0f b6 00             	movzbl (%eax),%eax
    uartintr();
    lapiceoi();
    break;
  case T_IRQ0 + 7:
  case T_IRQ0 + IRQ_SPURIOUS:
    cprintf("cpu%d: spurious interrupt at %x:%x\n",
80106dfa:	0f b6 c0             	movzbl %al,%eax
80106dfd:	51                   	push   %ecx
80106dfe:	52                   	push   %edx
80106dff:	50                   	push   %eax
80106e00:	68 5c 8f 10 80       	push   $0x80108f5c
80106e05:	e8 bc 95 ff ff       	call   801003c6 <cprintf>
80106e0a:	83 c4 10             	add    $0x10,%esp
            cpu->id, tf->cs, tf->eip);
    lapiceoi();
80106e0d:	e8 13 c2 ff ff       	call   80103025 <lapiceoi>
    break;
80106e12:	e9 b9 00 00 00       	jmp    80106ed0 <trap+0x1c0>
   
  //PAGEBREAK: 13
  default:
    if(proc == 0 || (tf->cs&3) == 0){
80106e17:	65 a1 04 00 00 00    	mov    %gs:0x4,%eax
80106e1d:	85 c0                	test   %eax,%eax
80106e1f:	74 11                	je     80106e32 <trap+0x122>
80106e21:	8b 45 08             	mov    0x8(%ebp),%eax
80106e24:	0f b7 40 3c          	movzwl 0x3c(%eax),%eax
80106e28:	0f b7 c0             	movzwl %ax,%eax
80106e2b:	83 e0 03             	and    $0x3,%eax
80106e2e:	85 c0                	test   %eax,%eax
80106e30:	75 40                	jne    80106e72 <trap+0x162>
      // In kernel, it must be our mistake.
      cprintf("unexpected trap %d from cpu %d eip %x (cr2=0x%x)\n",
80106e32:	e8 4f fd ff ff       	call   80106b86 <rcr2>
80106e37:	89 c3                	mov    %eax,%ebx
80106e39:	8b 45 08             	mov    0x8(%ebp),%eax
80106e3c:	8b 48 38             	mov    0x38(%eax),%ecx
              tf->trapno, cpu->id, tf->eip, rcr2());
80106e3f:	65 a1 00 00 00 00    	mov    %gs:0x0,%eax
80106e45:	0f b6 00             	movzbl (%eax),%eax
   
  //PAGEBREAK: 13
  default:
    if(proc == 0 || (tf->cs&3) == 0){
      // In kernel, it must be our mistake.
      cprintf("unexpected trap %d from cpu %d eip %x (cr2=0x%x)\n",
80106e48:	0f b6 d0             	movzbl %al,%edx
80106e4b:	8b 45 08             	mov    0x8(%ebp),%eax
80106e4e:	8b 40 30             	mov    0x30(%eax),%eax
80106e51:	83 ec 0c             	sub    $0xc,%esp
80106e54:	53                   	push   %ebx
80106e55:	51                   	push   %ecx
80106e56:	52                   	push   %edx
80106e57:	50                   	push   %eax
80106e58:	68 80 8f 10 80       	push   $0x80108f80
80106e5d:	e8 64 95 ff ff       	call   801003c6 <cprintf>
80106e62:	83 c4 20             	add    $0x20,%esp
              tf->trapno, cpu->id, tf->eip, rcr2());
      panic("trap");
80106e65:	83 ec 0c             	sub    $0xc,%esp
80106e68:	68 b2 8f 10 80       	push   $0x80108fb2
80106e6d:	e8 f4 96 ff ff       	call   80100566 <panic>
    }
    // In user space, assume process misbehaved.
    cprintf("pid %d %s: trap %d err %d on cpu %d "
80106e72:	e8 0f fd ff ff       	call   80106b86 <rcr2>
80106e77:	89 45 e4             	mov    %eax,-0x1c(%ebp)
80106e7a:	8b 45 08             	mov    0x8(%ebp),%eax
80106e7d:	8b 70 38             	mov    0x38(%eax),%esi
            "eip 0x%x addr 0x%x--kill proc\n",
            proc->pid, proc->name, tf->trapno, tf->err, cpu->id, tf->eip, 
80106e80:	65 a1 00 00 00 00    	mov    %gs:0x0,%eax
80106e86:	0f b6 00             	movzbl (%eax),%eax
      cprintf("unexpected trap %d from cpu %d eip %x (cr2=0x%x)\n",
              tf->trapno, cpu->id, tf->eip, rcr2());
      panic("trap");
    }
    // In user space, assume process misbehaved.
    cprintf("pid %d %s: trap %d err %d on cpu %d "
80106e89:	0f b6 d8             	movzbl %al,%ebx
80106e8c:	8b 45 08             	mov    0x8(%ebp),%eax
80106e8f:	8b 48 34             	mov    0x34(%eax),%ecx
80106e92:	8b 45 08             	mov    0x8(%ebp),%eax
80106e95:	8b 50 30             	mov    0x30(%eax),%edx
            "eip 0x%x addr 0x%x--kill proc\n",
            proc->pid, proc->name, tf->trapno, tf->err, cpu->id, tf->eip, 
80106e98:	65 a1 04 00 00 00    	mov    %gs:0x4,%eax
80106e9e:	8d 78 6c             	lea    0x6c(%eax),%edi
80106ea1:	65 a1 04 00 00 00    	mov    %gs:0x4,%eax
      cprintf("unexpected trap %d from cpu %d eip %x (cr2=0x%x)\n",
              tf->trapno, cpu->id, tf->eip, rcr2());
      panic("trap");
    }
    // In user space, assume process misbehaved.
    cprintf("pid %d %s: trap %d err %d on cpu %d "
80106ea7:	8b 40 10             	mov    0x10(%eax),%eax
80106eaa:	ff 75 e4             	pushl  -0x1c(%ebp)
80106ead:	56                   	push   %esi
80106eae:	53                   	push   %ebx
80106eaf:	51                   	push   %ecx
80106eb0:	52                   	push   %edx
80106eb1:	57                   	push   %edi
80106eb2:	50                   	push   %eax
80106eb3:	68 b8 8f 10 80       	push   $0x80108fb8
80106eb8:	e8 09 95 ff ff       	call   801003c6 <cprintf>
80106ebd:	83 c4 20             	add    $0x20,%esp
            "eip 0x%x addr 0x%x--kill proc\n",
            proc->pid, proc->name, tf->trapno, tf->err, cpu->id, tf->eip, 
            rcr2());
    proc->killed = 1;
80106ec0:	65 a1 04 00 00 00    	mov    %gs:0x4,%eax
80106ec6:	c7 40 24 01 00 00 00 	movl   $0x1,0x24(%eax)
80106ecd:	eb 01                	jmp    80106ed0 <trap+0x1c0>
    ideintr();
    lapiceoi();
    break;
  case T_IRQ0 + IRQ_IDE+1:
    // Bochs generates spurious IDE1 interrupts.
    break;
80106ecf:	90                   	nop
  }

  // Force process exit if it has been killed and is in user space.
  // (If it is still executing in the kernel, let it keep running 
  // until it gets to the regular system call return.)
  if(proc && proc->killed && (tf->cs&3) == DPL_USER)
80106ed0:	65 a1 04 00 00 00    	mov    %gs:0x4,%eax
80106ed6:	85 c0                	test   %eax,%eax
80106ed8:	74 24                	je     80106efe <trap+0x1ee>
80106eda:	65 a1 04 00 00 00    	mov    %gs:0x4,%eax
80106ee0:	8b 40 24             	mov    0x24(%eax),%eax
80106ee3:	85 c0                	test   %eax,%eax
80106ee5:	74 17                	je     80106efe <trap+0x1ee>
80106ee7:	8b 45 08             	mov    0x8(%ebp),%eax
80106eea:	0f b7 40 3c          	movzwl 0x3c(%eax),%eax
80106eee:	0f b7 c0             	movzwl %ax,%eax
80106ef1:	83 e0 03             	and    $0x3,%eax
80106ef4:	83 f8 03             	cmp    $0x3,%eax
80106ef7:	75 05                	jne    80106efe <trap+0x1ee>
    exit();
80106ef9:	e8 4c da ff ff       	call   8010494a <exit>

  // Force process to give up CPU on clock tick.
  // If interrupts were on while locks held, would need to check nlock.
  if(proc && proc->state == RUNNING &&
80106efe:	65 a1 04 00 00 00    	mov    %gs:0x4,%eax
80106f04:	85 c0                	test   %eax,%eax
80106f06:	74 41                	je     80106f49 <trap+0x239>
80106f08:	65 a1 04 00 00 00    	mov    %gs:0x4,%eax
80106f0e:	8b 40 0c             	mov    0xc(%eax),%eax
80106f11:	83 f8 04             	cmp    $0x4,%eax
80106f14:	75 33                	jne    80106f49 <trap+0x239>
	  tf->trapno == T_IRQ0+IRQ_TIMER && ticks%SCHED_INTERVAL==0)
80106f16:	8b 45 08             	mov    0x8(%ebp),%eax
80106f19:	8b 40 30             	mov    0x30(%eax),%eax
  if(proc && proc->killed && (tf->cs&3) == DPL_USER)
    exit();

  // Force process to give up CPU on clock tick.
  // If interrupts were on while locks held, would need to check nlock.
  if(proc && proc->state == RUNNING &&
80106f1c:	83 f8 20             	cmp    $0x20,%eax
80106f1f:	75 28                	jne    80106f49 <trap+0x239>
	  tf->trapno == T_IRQ0+IRQ_TIMER && ticks%SCHED_INTERVAL==0)
80106f21:	8b 0d c0 65 11 80    	mov    0x801165c0,%ecx
80106f27:	ba cd cc cc cc       	mov    $0xcccccccd,%edx
80106f2c:	89 c8                	mov    %ecx,%eax
80106f2e:	f7 e2                	mul    %edx
80106f30:	c1 ea 03             	shr    $0x3,%edx
80106f33:	89 d0                	mov    %edx,%eax
80106f35:	c1 e0 02             	shl    $0x2,%eax
80106f38:	01 d0                	add    %edx,%eax
80106f3a:	01 c0                	add    %eax,%eax
80106f3c:	29 c1                	sub    %eax,%ecx
80106f3e:	89 ca                	mov    %ecx,%edx
80106f40:	85 d2                	test   %edx,%edx
80106f42:	75 05                	jne    80106f49 <trap+0x239>
    yield();
80106f44:	e8 32 de ff ff       	call   80104d7b <yield>

  // Check if the process has been killed since we yielded
  if(proc && proc->killed && (tf->cs&3) == DPL_USER)
80106f49:	65 a1 04 00 00 00    	mov    %gs:0x4,%eax
80106f4f:	85 c0                	test   %eax,%eax
80106f51:	74 27                	je     80106f7a <trap+0x26a>
80106f53:	65 a1 04 00 00 00    	mov    %gs:0x4,%eax
80106f59:	8b 40 24             	mov    0x24(%eax),%eax
80106f5c:	85 c0                	test   %eax,%eax
80106f5e:	74 1a                	je     80106f7a <trap+0x26a>
80106f60:	8b 45 08             	mov    0x8(%ebp),%eax
80106f63:	0f b7 40 3c          	movzwl 0x3c(%eax),%eax
80106f67:	0f b7 c0             	movzwl %ax,%eax
80106f6a:	83 e0 03             	and    $0x3,%eax
80106f6d:	83 f8 03             	cmp    $0x3,%eax
80106f70:	75 08                	jne    80106f7a <trap+0x26a>
    exit();
80106f72:	e8 d3 d9 ff ff       	call   8010494a <exit>
80106f77:	eb 01                	jmp    80106f7a <trap+0x26a>
      exit();
    proc->tf = tf;
    syscall();
    if(proc->killed)
      exit();
    return;
80106f79:	90                   	nop
    yield();

  // Check if the process has been killed since we yielded
  if(proc && proc->killed && (tf->cs&3) == DPL_USER)
    exit();
}
80106f7a:	8d 65 f4             	lea    -0xc(%ebp),%esp
80106f7d:	5b                   	pop    %ebx
80106f7e:	5e                   	pop    %esi
80106f7f:	5f                   	pop    %edi
80106f80:	5d                   	pop    %ebp
80106f81:	c3                   	ret    

80106f82 <inb>:

// end of CS333 added routines

static inline uchar
inb(ushort port)
{
80106f82:	55                   	push   %ebp
80106f83:	89 e5                	mov    %esp,%ebp
80106f85:	83 ec 14             	sub    $0x14,%esp
80106f88:	8b 45 08             	mov    0x8(%ebp),%eax
80106f8b:	66 89 45 ec          	mov    %ax,-0x14(%ebp)
  uchar data;

  asm volatile("in %1,%0" : "=a" (data) : "d" (port));
80106f8f:	0f b7 45 ec          	movzwl -0x14(%ebp),%eax
80106f93:	89 c2                	mov    %eax,%edx
80106f95:	ec                   	in     (%dx),%al
80106f96:	88 45 ff             	mov    %al,-0x1(%ebp)
  return data;
80106f99:	0f b6 45 ff          	movzbl -0x1(%ebp),%eax
}
80106f9d:	c9                   	leave  
80106f9e:	c3                   	ret    

80106f9f <outb>:
               "memory", "cc");
}

static inline void
outb(ushort port, uchar data)
{
80106f9f:	55                   	push   %ebp
80106fa0:	89 e5                	mov    %esp,%ebp
80106fa2:	83 ec 08             	sub    $0x8,%esp
80106fa5:	8b 55 08             	mov    0x8(%ebp),%edx
80106fa8:	8b 45 0c             	mov    0xc(%ebp),%eax
80106fab:	66 89 55 fc          	mov    %dx,-0x4(%ebp)
80106faf:	88 45 f8             	mov    %al,-0x8(%ebp)
  asm volatile("out %0,%1" : : "a" (data), "d" (port));
80106fb2:	0f b6 45 f8          	movzbl -0x8(%ebp),%eax
80106fb6:	0f b7 55 fc          	movzwl -0x4(%ebp),%edx
80106fba:	ee                   	out    %al,(%dx)
}
80106fbb:	90                   	nop
80106fbc:	c9                   	leave  
80106fbd:	c3                   	ret    

80106fbe <uartinit>:

static int uart;    // is there a uart?

void
uartinit(void)
{
80106fbe:	55                   	push   %ebp
80106fbf:	89 e5                	mov    %esp,%ebp
80106fc1:	83 ec 18             	sub    $0x18,%esp
  char *p;

  // Turn off the FIFO
  outb(COM1+2, 0);
80106fc4:	6a 00                	push   $0x0
80106fc6:	68 fa 03 00 00       	push   $0x3fa
80106fcb:	e8 cf ff ff ff       	call   80106f9f <outb>
80106fd0:	83 c4 08             	add    $0x8,%esp
  
  // 9600 baud, 8 data bits, 1 stop bit, parity off.
  outb(COM1+3, 0x80);    // Unlock divisor
80106fd3:	68 80 00 00 00       	push   $0x80
80106fd8:	68 fb 03 00 00       	push   $0x3fb
80106fdd:	e8 bd ff ff ff       	call   80106f9f <outb>
80106fe2:	83 c4 08             	add    $0x8,%esp
  outb(COM1+0, 115200/9600);
80106fe5:	6a 0c                	push   $0xc
80106fe7:	68 f8 03 00 00       	push   $0x3f8
80106fec:	e8 ae ff ff ff       	call   80106f9f <outb>
80106ff1:	83 c4 08             	add    $0x8,%esp
  outb(COM1+1, 0);
80106ff4:	6a 00                	push   $0x0
80106ff6:	68 f9 03 00 00       	push   $0x3f9
80106ffb:	e8 9f ff ff ff       	call   80106f9f <outb>
80107000:	83 c4 08             	add    $0x8,%esp
  outb(COM1+3, 0x03);    // Lock divisor, 8 data bits.
80107003:	6a 03                	push   $0x3
80107005:	68 fb 03 00 00       	push   $0x3fb
8010700a:	e8 90 ff ff ff       	call   80106f9f <outb>
8010700f:	83 c4 08             	add    $0x8,%esp
  outb(COM1+4, 0);
80107012:	6a 00                	push   $0x0
80107014:	68 fc 03 00 00       	push   $0x3fc
80107019:	e8 81 ff ff ff       	call   80106f9f <outb>
8010701e:	83 c4 08             	add    $0x8,%esp
  outb(COM1+1, 0x01);    // Enable receive interrupts.
80107021:	6a 01                	push   $0x1
80107023:	68 f9 03 00 00       	push   $0x3f9
80107028:	e8 72 ff ff ff       	call   80106f9f <outb>
8010702d:	83 c4 08             	add    $0x8,%esp

  // If status is 0xFF, no serial port.
  if(inb(COM1+5) == 0xFF)
80107030:	68 fd 03 00 00       	push   $0x3fd
80107035:	e8 48 ff ff ff       	call   80106f82 <inb>
8010703a:	83 c4 04             	add    $0x4,%esp
8010703d:	3c ff                	cmp    $0xff,%al
8010703f:	74 6e                	je     801070af <uartinit+0xf1>
    return;
  uart = 1;
80107041:	c7 05 6c c6 10 80 01 	movl   $0x1,0x8010c66c
80107048:	00 00 00 

  // Acknowledge pre-existing interrupt conditions;
  // enable interrupts.
  inb(COM1+2);
8010704b:	68 fa 03 00 00       	push   $0x3fa
80107050:	e8 2d ff ff ff       	call   80106f82 <inb>
80107055:	83 c4 04             	add    $0x4,%esp
  inb(COM1+0);
80107058:	68 f8 03 00 00       	push   $0x3f8
8010705d:	e8 20 ff ff ff       	call   80106f82 <inb>
80107062:	83 c4 04             	add    $0x4,%esp
  picenable(IRQ_COM1);
80107065:	83 ec 0c             	sub    $0xc,%esp
80107068:	6a 04                	push   $0x4
8010706a:	e8 bc ce ff ff       	call   80103f2b <picenable>
8010706f:	83 c4 10             	add    $0x10,%esp
  ioapicenable(IRQ_COM1, 0);
80107072:	83 ec 08             	sub    $0x8,%esp
80107075:	6a 00                	push   $0x0
80107077:	6a 04                	push   $0x4
80107079:	e8 5c ba ff ff       	call   80102ada <ioapicenable>
8010707e:	83 c4 10             	add    $0x10,%esp
  
  // Announce that we're here.
  for(p="xv6...\n"; *p; p++)
80107081:	c7 45 f4 7c 90 10 80 	movl   $0x8010907c,-0xc(%ebp)
80107088:	eb 19                	jmp    801070a3 <uartinit+0xe5>
    uartputc(*p);
8010708a:	8b 45 f4             	mov    -0xc(%ebp),%eax
8010708d:	0f b6 00             	movzbl (%eax),%eax
80107090:	0f be c0             	movsbl %al,%eax
80107093:	83 ec 0c             	sub    $0xc,%esp
80107096:	50                   	push   %eax
80107097:	e8 16 00 00 00       	call   801070b2 <uartputc>
8010709c:	83 c4 10             	add    $0x10,%esp
  inb(COM1+0);
  picenable(IRQ_COM1);
  ioapicenable(IRQ_COM1, 0);
  
  // Announce that we're here.
  for(p="xv6...\n"; *p; p++)
8010709f:	83 45 f4 01          	addl   $0x1,-0xc(%ebp)
801070a3:	8b 45 f4             	mov    -0xc(%ebp),%eax
801070a6:	0f b6 00             	movzbl (%eax),%eax
801070a9:	84 c0                	test   %al,%al
801070ab:	75 dd                	jne    8010708a <uartinit+0xcc>
801070ad:	eb 01                	jmp    801070b0 <uartinit+0xf2>
  outb(COM1+4, 0);
  outb(COM1+1, 0x01);    // Enable receive interrupts.

  // If status is 0xFF, no serial port.
  if(inb(COM1+5) == 0xFF)
    return;
801070af:	90                   	nop
  ioapicenable(IRQ_COM1, 0);
  
  // Announce that we're here.
  for(p="xv6...\n"; *p; p++)
    uartputc(*p);
}
801070b0:	c9                   	leave  
801070b1:	c3                   	ret    

801070b2 <uartputc>:

void
uartputc(int c)
{
801070b2:	55                   	push   %ebp
801070b3:	89 e5                	mov    %esp,%ebp
801070b5:	83 ec 18             	sub    $0x18,%esp
  int i;

  if(!uart)
801070b8:	a1 6c c6 10 80       	mov    0x8010c66c,%eax
801070bd:	85 c0                	test   %eax,%eax
801070bf:	74 53                	je     80107114 <uartputc+0x62>
    return;
  for(i = 0; i < 128 && !(inb(COM1+5) & 0x20); i++)
801070c1:	c7 45 f4 00 00 00 00 	movl   $0x0,-0xc(%ebp)
801070c8:	eb 11                	jmp    801070db <uartputc+0x29>
    microdelay(10);
801070ca:	83 ec 0c             	sub    $0xc,%esp
801070cd:	6a 0a                	push   $0xa
801070cf:	e8 6c bf ff ff       	call   80103040 <microdelay>
801070d4:	83 c4 10             	add    $0x10,%esp
{
  int i;

  if(!uart)
    return;
  for(i = 0; i < 128 && !(inb(COM1+5) & 0x20); i++)
801070d7:	83 45 f4 01          	addl   $0x1,-0xc(%ebp)
801070db:	83 7d f4 7f          	cmpl   $0x7f,-0xc(%ebp)
801070df:	7f 1a                	jg     801070fb <uartputc+0x49>
801070e1:	83 ec 0c             	sub    $0xc,%esp
801070e4:	68 fd 03 00 00       	push   $0x3fd
801070e9:	e8 94 fe ff ff       	call   80106f82 <inb>
801070ee:	83 c4 10             	add    $0x10,%esp
801070f1:	0f b6 c0             	movzbl %al,%eax
801070f4:	83 e0 20             	and    $0x20,%eax
801070f7:	85 c0                	test   %eax,%eax
801070f9:	74 cf                	je     801070ca <uartputc+0x18>
    microdelay(10);
  outb(COM1+0, c);
801070fb:	8b 45 08             	mov    0x8(%ebp),%eax
801070fe:	0f b6 c0             	movzbl %al,%eax
80107101:	83 ec 08             	sub    $0x8,%esp
80107104:	50                   	push   %eax
80107105:	68 f8 03 00 00       	push   $0x3f8
8010710a:	e8 90 fe ff ff       	call   80106f9f <outb>
8010710f:	83 c4 10             	add    $0x10,%esp
80107112:	eb 01                	jmp    80107115 <uartputc+0x63>
uartputc(int c)
{
  int i;

  if(!uart)
    return;
80107114:	90                   	nop
  for(i = 0; i < 128 && !(inb(COM1+5) & 0x20); i++)
    microdelay(10);
  outb(COM1+0, c);
}
80107115:	c9                   	leave  
80107116:	c3                   	ret    

80107117 <uartgetc>:

static int
uartgetc(void)
{
80107117:	55                   	push   %ebp
80107118:	89 e5                	mov    %esp,%ebp
  if(!uart)
8010711a:	a1 6c c6 10 80       	mov    0x8010c66c,%eax
8010711f:	85 c0                	test   %eax,%eax
80107121:	75 07                	jne    8010712a <uartgetc+0x13>
    return -1;
80107123:	b8 ff ff ff ff       	mov    $0xffffffff,%eax
80107128:	eb 2e                	jmp    80107158 <uartgetc+0x41>
  if(!(inb(COM1+5) & 0x01))
8010712a:	68 fd 03 00 00       	push   $0x3fd
8010712f:	e8 4e fe ff ff       	call   80106f82 <inb>
80107134:	83 c4 04             	add    $0x4,%esp
80107137:	0f b6 c0             	movzbl %al,%eax
8010713a:	83 e0 01             	and    $0x1,%eax
8010713d:	85 c0                	test   %eax,%eax
8010713f:	75 07                	jne    80107148 <uartgetc+0x31>
    return -1;
80107141:	b8 ff ff ff ff       	mov    $0xffffffff,%eax
80107146:	eb 10                	jmp    80107158 <uartgetc+0x41>
  return inb(COM1+0);
80107148:	68 f8 03 00 00       	push   $0x3f8
8010714d:	e8 30 fe ff ff       	call   80106f82 <inb>
80107152:	83 c4 04             	add    $0x4,%esp
80107155:	0f b6 c0             	movzbl %al,%eax
}
80107158:	c9                   	leave  
80107159:	c3                   	ret    

8010715a <uartintr>:

void
uartintr(void)
{
8010715a:	55                   	push   %ebp
8010715b:	89 e5                	mov    %esp,%ebp
8010715d:	83 ec 08             	sub    $0x8,%esp
  consoleintr(uartgetc);
80107160:	83 ec 0c             	sub    $0xc,%esp
80107163:	68 17 71 10 80       	push   $0x80107117
80107168:	e8 8c 96 ff ff       	call   801007f9 <consoleintr>
8010716d:	83 c4 10             	add    $0x10,%esp
}
80107170:	90                   	nop
80107171:	c9                   	leave  
80107172:	c3                   	ret    

80107173 <vector0>:
# generated by vectors.pl - do not edit
# handlers
.globl alltraps
.globl vector0
vector0:
  pushl $0
80107173:	6a 00                	push   $0x0
  pushl $0
80107175:	6a 00                	push   $0x0
  jmp alltraps
80107177:	e9 a9 f9 ff ff       	jmp    80106b25 <alltraps>

8010717c <vector1>:
.globl vector1
vector1:
  pushl $0
8010717c:	6a 00                	push   $0x0
  pushl $1
8010717e:	6a 01                	push   $0x1
  jmp alltraps
80107180:	e9 a0 f9 ff ff       	jmp    80106b25 <alltraps>

80107185 <vector2>:
.globl vector2
vector2:
  pushl $0
80107185:	6a 00                	push   $0x0
  pushl $2
80107187:	6a 02                	push   $0x2
  jmp alltraps
80107189:	e9 97 f9 ff ff       	jmp    80106b25 <alltraps>

8010718e <vector3>:
.globl vector3
vector3:
  pushl $0
8010718e:	6a 00                	push   $0x0
  pushl $3
80107190:	6a 03                	push   $0x3
  jmp alltraps
80107192:	e9 8e f9 ff ff       	jmp    80106b25 <alltraps>

80107197 <vector4>:
.globl vector4
vector4:
  pushl $0
80107197:	6a 00                	push   $0x0
  pushl $4
80107199:	6a 04                	push   $0x4
  jmp alltraps
8010719b:	e9 85 f9 ff ff       	jmp    80106b25 <alltraps>

801071a0 <vector5>:
.globl vector5
vector5:
  pushl $0
801071a0:	6a 00                	push   $0x0
  pushl $5
801071a2:	6a 05                	push   $0x5
  jmp alltraps
801071a4:	e9 7c f9 ff ff       	jmp    80106b25 <alltraps>

801071a9 <vector6>:
.globl vector6
vector6:
  pushl $0
801071a9:	6a 00                	push   $0x0
  pushl $6
801071ab:	6a 06                	push   $0x6
  jmp alltraps
801071ad:	e9 73 f9 ff ff       	jmp    80106b25 <alltraps>

801071b2 <vector7>:
.globl vector7
vector7:
  pushl $0
801071b2:	6a 00                	push   $0x0
  pushl $7
801071b4:	6a 07                	push   $0x7
  jmp alltraps
801071b6:	e9 6a f9 ff ff       	jmp    80106b25 <alltraps>

801071bb <vector8>:
.globl vector8
vector8:
  pushl $8
801071bb:	6a 08                	push   $0x8
  jmp alltraps
801071bd:	e9 63 f9 ff ff       	jmp    80106b25 <alltraps>

801071c2 <vector9>:
.globl vector9
vector9:
  pushl $0
801071c2:	6a 00                	push   $0x0
  pushl $9
801071c4:	6a 09                	push   $0x9
  jmp alltraps
801071c6:	e9 5a f9 ff ff       	jmp    80106b25 <alltraps>

801071cb <vector10>:
.globl vector10
vector10:
  pushl $10
801071cb:	6a 0a                	push   $0xa
  jmp alltraps
801071cd:	e9 53 f9 ff ff       	jmp    80106b25 <alltraps>

801071d2 <vector11>:
.globl vector11
vector11:
  pushl $11
801071d2:	6a 0b                	push   $0xb
  jmp alltraps
801071d4:	e9 4c f9 ff ff       	jmp    80106b25 <alltraps>

801071d9 <vector12>:
.globl vector12
vector12:
  pushl $12
801071d9:	6a 0c                	push   $0xc
  jmp alltraps
801071db:	e9 45 f9 ff ff       	jmp    80106b25 <alltraps>

801071e0 <vector13>:
.globl vector13
vector13:
  pushl $13
801071e0:	6a 0d                	push   $0xd
  jmp alltraps
801071e2:	e9 3e f9 ff ff       	jmp    80106b25 <alltraps>

801071e7 <vector14>:
.globl vector14
vector14:
  pushl $14
801071e7:	6a 0e                	push   $0xe
  jmp alltraps
801071e9:	e9 37 f9 ff ff       	jmp    80106b25 <alltraps>

801071ee <vector15>:
.globl vector15
vector15:
  pushl $0
801071ee:	6a 00                	push   $0x0
  pushl $15
801071f0:	6a 0f                	push   $0xf
  jmp alltraps
801071f2:	e9 2e f9 ff ff       	jmp    80106b25 <alltraps>

801071f7 <vector16>:
.globl vector16
vector16:
  pushl $0
801071f7:	6a 00                	push   $0x0
  pushl $16
801071f9:	6a 10                	push   $0x10
  jmp alltraps
801071fb:	e9 25 f9 ff ff       	jmp    80106b25 <alltraps>

80107200 <vector17>:
.globl vector17
vector17:
  pushl $17
80107200:	6a 11                	push   $0x11
  jmp alltraps
80107202:	e9 1e f9 ff ff       	jmp    80106b25 <alltraps>

80107207 <vector18>:
.globl vector18
vector18:
  pushl $0
80107207:	6a 00                	push   $0x0
  pushl $18
80107209:	6a 12                	push   $0x12
  jmp alltraps
8010720b:	e9 15 f9 ff ff       	jmp    80106b25 <alltraps>

80107210 <vector19>:
.globl vector19
vector19:
  pushl $0
80107210:	6a 00                	push   $0x0
  pushl $19
80107212:	6a 13                	push   $0x13
  jmp alltraps
80107214:	e9 0c f9 ff ff       	jmp    80106b25 <alltraps>

80107219 <vector20>:
.globl vector20
vector20:
  pushl $0
80107219:	6a 00                	push   $0x0
  pushl $20
8010721b:	6a 14                	push   $0x14
  jmp alltraps
8010721d:	e9 03 f9 ff ff       	jmp    80106b25 <alltraps>

80107222 <vector21>:
.globl vector21
vector21:
  pushl $0
80107222:	6a 00                	push   $0x0
  pushl $21
80107224:	6a 15                	push   $0x15
  jmp alltraps
80107226:	e9 fa f8 ff ff       	jmp    80106b25 <alltraps>

8010722b <vector22>:
.globl vector22
vector22:
  pushl $0
8010722b:	6a 00                	push   $0x0
  pushl $22
8010722d:	6a 16                	push   $0x16
  jmp alltraps
8010722f:	e9 f1 f8 ff ff       	jmp    80106b25 <alltraps>

80107234 <vector23>:
.globl vector23
vector23:
  pushl $0
80107234:	6a 00                	push   $0x0
  pushl $23
80107236:	6a 17                	push   $0x17
  jmp alltraps
80107238:	e9 e8 f8 ff ff       	jmp    80106b25 <alltraps>

8010723d <vector24>:
.globl vector24
vector24:
  pushl $0
8010723d:	6a 00                	push   $0x0
  pushl $24
8010723f:	6a 18                	push   $0x18
  jmp alltraps
80107241:	e9 df f8 ff ff       	jmp    80106b25 <alltraps>

80107246 <vector25>:
.globl vector25
vector25:
  pushl $0
80107246:	6a 00                	push   $0x0
  pushl $25
80107248:	6a 19                	push   $0x19
  jmp alltraps
8010724a:	e9 d6 f8 ff ff       	jmp    80106b25 <alltraps>

8010724f <vector26>:
.globl vector26
vector26:
  pushl $0
8010724f:	6a 00                	push   $0x0
  pushl $26
80107251:	6a 1a                	push   $0x1a
  jmp alltraps
80107253:	e9 cd f8 ff ff       	jmp    80106b25 <alltraps>

80107258 <vector27>:
.globl vector27
vector27:
  pushl $0
80107258:	6a 00                	push   $0x0
  pushl $27
8010725a:	6a 1b                	push   $0x1b
  jmp alltraps
8010725c:	e9 c4 f8 ff ff       	jmp    80106b25 <alltraps>

80107261 <vector28>:
.globl vector28
vector28:
  pushl $0
80107261:	6a 00                	push   $0x0
  pushl $28
80107263:	6a 1c                	push   $0x1c
  jmp alltraps
80107265:	e9 bb f8 ff ff       	jmp    80106b25 <alltraps>

8010726a <vector29>:
.globl vector29
vector29:
  pushl $0
8010726a:	6a 00                	push   $0x0
  pushl $29
8010726c:	6a 1d                	push   $0x1d
  jmp alltraps
8010726e:	e9 b2 f8 ff ff       	jmp    80106b25 <alltraps>

80107273 <vector30>:
.globl vector30
vector30:
  pushl $0
80107273:	6a 00                	push   $0x0
  pushl $30
80107275:	6a 1e                	push   $0x1e
  jmp alltraps
80107277:	e9 a9 f8 ff ff       	jmp    80106b25 <alltraps>

8010727c <vector31>:
.globl vector31
vector31:
  pushl $0
8010727c:	6a 00                	push   $0x0
  pushl $31
8010727e:	6a 1f                	push   $0x1f
  jmp alltraps
80107280:	e9 a0 f8 ff ff       	jmp    80106b25 <alltraps>

80107285 <vector32>:
.globl vector32
vector32:
  pushl $0
80107285:	6a 00                	push   $0x0
  pushl $32
80107287:	6a 20                	push   $0x20
  jmp alltraps
80107289:	e9 97 f8 ff ff       	jmp    80106b25 <alltraps>

8010728e <vector33>:
.globl vector33
vector33:
  pushl $0
8010728e:	6a 00                	push   $0x0
  pushl $33
80107290:	6a 21                	push   $0x21
  jmp alltraps
80107292:	e9 8e f8 ff ff       	jmp    80106b25 <alltraps>

80107297 <vector34>:
.globl vector34
vector34:
  pushl $0
80107297:	6a 00                	push   $0x0
  pushl $34
80107299:	6a 22                	push   $0x22
  jmp alltraps
8010729b:	e9 85 f8 ff ff       	jmp    80106b25 <alltraps>

801072a0 <vector35>:
.globl vector35
vector35:
  pushl $0
801072a0:	6a 00                	push   $0x0
  pushl $35
801072a2:	6a 23                	push   $0x23
  jmp alltraps
801072a4:	e9 7c f8 ff ff       	jmp    80106b25 <alltraps>

801072a9 <vector36>:
.globl vector36
vector36:
  pushl $0
801072a9:	6a 00                	push   $0x0
  pushl $36
801072ab:	6a 24                	push   $0x24
  jmp alltraps
801072ad:	e9 73 f8 ff ff       	jmp    80106b25 <alltraps>

801072b2 <vector37>:
.globl vector37
vector37:
  pushl $0
801072b2:	6a 00                	push   $0x0
  pushl $37
801072b4:	6a 25                	push   $0x25
  jmp alltraps
801072b6:	e9 6a f8 ff ff       	jmp    80106b25 <alltraps>

801072bb <vector38>:
.globl vector38
vector38:
  pushl $0
801072bb:	6a 00                	push   $0x0
  pushl $38
801072bd:	6a 26                	push   $0x26
  jmp alltraps
801072bf:	e9 61 f8 ff ff       	jmp    80106b25 <alltraps>

801072c4 <vector39>:
.globl vector39
vector39:
  pushl $0
801072c4:	6a 00                	push   $0x0
  pushl $39
801072c6:	6a 27                	push   $0x27
  jmp alltraps
801072c8:	e9 58 f8 ff ff       	jmp    80106b25 <alltraps>

801072cd <vector40>:
.globl vector40
vector40:
  pushl $0
801072cd:	6a 00                	push   $0x0
  pushl $40
801072cf:	6a 28                	push   $0x28
  jmp alltraps
801072d1:	e9 4f f8 ff ff       	jmp    80106b25 <alltraps>

801072d6 <vector41>:
.globl vector41
vector41:
  pushl $0
801072d6:	6a 00                	push   $0x0
  pushl $41
801072d8:	6a 29                	push   $0x29
  jmp alltraps
801072da:	e9 46 f8 ff ff       	jmp    80106b25 <alltraps>

801072df <vector42>:
.globl vector42
vector42:
  pushl $0
801072df:	6a 00                	push   $0x0
  pushl $42
801072e1:	6a 2a                	push   $0x2a
  jmp alltraps
801072e3:	e9 3d f8 ff ff       	jmp    80106b25 <alltraps>

801072e8 <vector43>:
.globl vector43
vector43:
  pushl $0
801072e8:	6a 00                	push   $0x0
  pushl $43
801072ea:	6a 2b                	push   $0x2b
  jmp alltraps
801072ec:	e9 34 f8 ff ff       	jmp    80106b25 <alltraps>

801072f1 <vector44>:
.globl vector44
vector44:
  pushl $0
801072f1:	6a 00                	push   $0x0
  pushl $44
801072f3:	6a 2c                	push   $0x2c
  jmp alltraps
801072f5:	e9 2b f8 ff ff       	jmp    80106b25 <alltraps>

801072fa <vector45>:
.globl vector45
vector45:
  pushl $0
801072fa:	6a 00                	push   $0x0
  pushl $45
801072fc:	6a 2d                	push   $0x2d
  jmp alltraps
801072fe:	e9 22 f8 ff ff       	jmp    80106b25 <alltraps>

80107303 <vector46>:
.globl vector46
vector46:
  pushl $0
80107303:	6a 00                	push   $0x0
  pushl $46
80107305:	6a 2e                	push   $0x2e
  jmp alltraps
80107307:	e9 19 f8 ff ff       	jmp    80106b25 <alltraps>

8010730c <vector47>:
.globl vector47
vector47:
  pushl $0
8010730c:	6a 00                	push   $0x0
  pushl $47
8010730e:	6a 2f                	push   $0x2f
  jmp alltraps
80107310:	e9 10 f8 ff ff       	jmp    80106b25 <alltraps>

80107315 <vector48>:
.globl vector48
vector48:
  pushl $0
80107315:	6a 00                	push   $0x0
  pushl $48
80107317:	6a 30                	push   $0x30
  jmp alltraps
80107319:	e9 07 f8 ff ff       	jmp    80106b25 <alltraps>

8010731e <vector49>:
.globl vector49
vector49:
  pushl $0
8010731e:	6a 00                	push   $0x0
  pushl $49
80107320:	6a 31                	push   $0x31
  jmp alltraps
80107322:	e9 fe f7 ff ff       	jmp    80106b25 <alltraps>

80107327 <vector50>:
.globl vector50
vector50:
  pushl $0
80107327:	6a 00                	push   $0x0
  pushl $50
80107329:	6a 32                	push   $0x32
  jmp alltraps
8010732b:	e9 f5 f7 ff ff       	jmp    80106b25 <alltraps>

80107330 <vector51>:
.globl vector51
vector51:
  pushl $0
80107330:	6a 00                	push   $0x0
  pushl $51
80107332:	6a 33                	push   $0x33
  jmp alltraps
80107334:	e9 ec f7 ff ff       	jmp    80106b25 <alltraps>

80107339 <vector52>:
.globl vector52
vector52:
  pushl $0
80107339:	6a 00                	push   $0x0
  pushl $52
8010733b:	6a 34                	push   $0x34
  jmp alltraps
8010733d:	e9 e3 f7 ff ff       	jmp    80106b25 <alltraps>

80107342 <vector53>:
.globl vector53
vector53:
  pushl $0
80107342:	6a 00                	push   $0x0
  pushl $53
80107344:	6a 35                	push   $0x35
  jmp alltraps
80107346:	e9 da f7 ff ff       	jmp    80106b25 <alltraps>

8010734b <vector54>:
.globl vector54
vector54:
  pushl $0
8010734b:	6a 00                	push   $0x0
  pushl $54
8010734d:	6a 36                	push   $0x36
  jmp alltraps
8010734f:	e9 d1 f7 ff ff       	jmp    80106b25 <alltraps>

80107354 <vector55>:
.globl vector55
vector55:
  pushl $0
80107354:	6a 00                	push   $0x0
  pushl $55
80107356:	6a 37                	push   $0x37
  jmp alltraps
80107358:	e9 c8 f7 ff ff       	jmp    80106b25 <alltraps>

8010735d <vector56>:
.globl vector56
vector56:
  pushl $0
8010735d:	6a 00                	push   $0x0
  pushl $56
8010735f:	6a 38                	push   $0x38
  jmp alltraps
80107361:	e9 bf f7 ff ff       	jmp    80106b25 <alltraps>

80107366 <vector57>:
.globl vector57
vector57:
  pushl $0
80107366:	6a 00                	push   $0x0
  pushl $57
80107368:	6a 39                	push   $0x39
  jmp alltraps
8010736a:	e9 b6 f7 ff ff       	jmp    80106b25 <alltraps>

8010736f <vector58>:
.globl vector58
vector58:
  pushl $0
8010736f:	6a 00                	push   $0x0
  pushl $58
80107371:	6a 3a                	push   $0x3a
  jmp alltraps
80107373:	e9 ad f7 ff ff       	jmp    80106b25 <alltraps>

80107378 <vector59>:
.globl vector59
vector59:
  pushl $0
80107378:	6a 00                	push   $0x0
  pushl $59
8010737a:	6a 3b                	push   $0x3b
  jmp alltraps
8010737c:	e9 a4 f7 ff ff       	jmp    80106b25 <alltraps>

80107381 <vector60>:
.globl vector60
vector60:
  pushl $0
80107381:	6a 00                	push   $0x0
  pushl $60
80107383:	6a 3c                	push   $0x3c
  jmp alltraps
80107385:	e9 9b f7 ff ff       	jmp    80106b25 <alltraps>

8010738a <vector61>:
.globl vector61
vector61:
  pushl $0
8010738a:	6a 00                	push   $0x0
  pushl $61
8010738c:	6a 3d                	push   $0x3d
  jmp alltraps
8010738e:	e9 92 f7 ff ff       	jmp    80106b25 <alltraps>

80107393 <vector62>:
.globl vector62
vector62:
  pushl $0
80107393:	6a 00                	push   $0x0
  pushl $62
80107395:	6a 3e                	push   $0x3e
  jmp alltraps
80107397:	e9 89 f7 ff ff       	jmp    80106b25 <alltraps>

8010739c <vector63>:
.globl vector63
vector63:
  pushl $0
8010739c:	6a 00                	push   $0x0
  pushl $63
8010739e:	6a 3f                	push   $0x3f
  jmp alltraps
801073a0:	e9 80 f7 ff ff       	jmp    80106b25 <alltraps>

801073a5 <vector64>:
.globl vector64
vector64:
  pushl $0
801073a5:	6a 00                	push   $0x0
  pushl $64
801073a7:	6a 40                	push   $0x40
  jmp alltraps
801073a9:	e9 77 f7 ff ff       	jmp    80106b25 <alltraps>

801073ae <vector65>:
.globl vector65
vector65:
  pushl $0
801073ae:	6a 00                	push   $0x0
  pushl $65
801073b0:	6a 41                	push   $0x41
  jmp alltraps
801073b2:	e9 6e f7 ff ff       	jmp    80106b25 <alltraps>

801073b7 <vector66>:
.globl vector66
vector66:
  pushl $0
801073b7:	6a 00                	push   $0x0
  pushl $66
801073b9:	6a 42                	push   $0x42
  jmp alltraps
801073bb:	e9 65 f7 ff ff       	jmp    80106b25 <alltraps>

801073c0 <vector67>:
.globl vector67
vector67:
  pushl $0
801073c0:	6a 00                	push   $0x0
  pushl $67
801073c2:	6a 43                	push   $0x43
  jmp alltraps
801073c4:	e9 5c f7 ff ff       	jmp    80106b25 <alltraps>

801073c9 <vector68>:
.globl vector68
vector68:
  pushl $0
801073c9:	6a 00                	push   $0x0
  pushl $68
801073cb:	6a 44                	push   $0x44
  jmp alltraps
801073cd:	e9 53 f7 ff ff       	jmp    80106b25 <alltraps>

801073d2 <vector69>:
.globl vector69
vector69:
  pushl $0
801073d2:	6a 00                	push   $0x0
  pushl $69
801073d4:	6a 45                	push   $0x45
  jmp alltraps
801073d6:	e9 4a f7 ff ff       	jmp    80106b25 <alltraps>

801073db <vector70>:
.globl vector70
vector70:
  pushl $0
801073db:	6a 00                	push   $0x0
  pushl $70
801073dd:	6a 46                	push   $0x46
  jmp alltraps
801073df:	e9 41 f7 ff ff       	jmp    80106b25 <alltraps>

801073e4 <vector71>:
.globl vector71
vector71:
  pushl $0
801073e4:	6a 00                	push   $0x0
  pushl $71
801073e6:	6a 47                	push   $0x47
  jmp alltraps
801073e8:	e9 38 f7 ff ff       	jmp    80106b25 <alltraps>

801073ed <vector72>:
.globl vector72
vector72:
  pushl $0
801073ed:	6a 00                	push   $0x0
  pushl $72
801073ef:	6a 48                	push   $0x48
  jmp alltraps
801073f1:	e9 2f f7 ff ff       	jmp    80106b25 <alltraps>

801073f6 <vector73>:
.globl vector73
vector73:
  pushl $0
801073f6:	6a 00                	push   $0x0
  pushl $73
801073f8:	6a 49                	push   $0x49
  jmp alltraps
801073fa:	e9 26 f7 ff ff       	jmp    80106b25 <alltraps>

801073ff <vector74>:
.globl vector74
vector74:
  pushl $0
801073ff:	6a 00                	push   $0x0
  pushl $74
80107401:	6a 4a                	push   $0x4a
  jmp alltraps
80107403:	e9 1d f7 ff ff       	jmp    80106b25 <alltraps>

80107408 <vector75>:
.globl vector75
vector75:
  pushl $0
80107408:	6a 00                	push   $0x0
  pushl $75
8010740a:	6a 4b                	push   $0x4b
  jmp alltraps
8010740c:	e9 14 f7 ff ff       	jmp    80106b25 <alltraps>

80107411 <vector76>:
.globl vector76
vector76:
  pushl $0
80107411:	6a 00                	push   $0x0
  pushl $76
80107413:	6a 4c                	push   $0x4c
  jmp alltraps
80107415:	e9 0b f7 ff ff       	jmp    80106b25 <alltraps>

8010741a <vector77>:
.globl vector77
vector77:
  pushl $0
8010741a:	6a 00                	push   $0x0
  pushl $77
8010741c:	6a 4d                	push   $0x4d
  jmp alltraps
8010741e:	e9 02 f7 ff ff       	jmp    80106b25 <alltraps>

80107423 <vector78>:
.globl vector78
vector78:
  pushl $0
80107423:	6a 00                	push   $0x0
  pushl $78
80107425:	6a 4e                	push   $0x4e
  jmp alltraps
80107427:	e9 f9 f6 ff ff       	jmp    80106b25 <alltraps>

8010742c <vector79>:
.globl vector79
vector79:
  pushl $0
8010742c:	6a 00                	push   $0x0
  pushl $79
8010742e:	6a 4f                	push   $0x4f
  jmp alltraps
80107430:	e9 f0 f6 ff ff       	jmp    80106b25 <alltraps>

80107435 <vector80>:
.globl vector80
vector80:
  pushl $0
80107435:	6a 00                	push   $0x0
  pushl $80
80107437:	6a 50                	push   $0x50
  jmp alltraps
80107439:	e9 e7 f6 ff ff       	jmp    80106b25 <alltraps>

8010743e <vector81>:
.globl vector81
vector81:
  pushl $0
8010743e:	6a 00                	push   $0x0
  pushl $81
80107440:	6a 51                	push   $0x51
  jmp alltraps
80107442:	e9 de f6 ff ff       	jmp    80106b25 <alltraps>

80107447 <vector82>:
.globl vector82
vector82:
  pushl $0
80107447:	6a 00                	push   $0x0
  pushl $82
80107449:	6a 52                	push   $0x52
  jmp alltraps
8010744b:	e9 d5 f6 ff ff       	jmp    80106b25 <alltraps>

80107450 <vector83>:
.globl vector83
vector83:
  pushl $0
80107450:	6a 00                	push   $0x0
  pushl $83
80107452:	6a 53                	push   $0x53
  jmp alltraps
80107454:	e9 cc f6 ff ff       	jmp    80106b25 <alltraps>

80107459 <vector84>:
.globl vector84
vector84:
  pushl $0
80107459:	6a 00                	push   $0x0
  pushl $84
8010745b:	6a 54                	push   $0x54
  jmp alltraps
8010745d:	e9 c3 f6 ff ff       	jmp    80106b25 <alltraps>

80107462 <vector85>:
.globl vector85
vector85:
  pushl $0
80107462:	6a 00                	push   $0x0
  pushl $85
80107464:	6a 55                	push   $0x55
  jmp alltraps
80107466:	e9 ba f6 ff ff       	jmp    80106b25 <alltraps>

8010746b <vector86>:
.globl vector86
vector86:
  pushl $0
8010746b:	6a 00                	push   $0x0
  pushl $86
8010746d:	6a 56                	push   $0x56
  jmp alltraps
8010746f:	e9 b1 f6 ff ff       	jmp    80106b25 <alltraps>

80107474 <vector87>:
.globl vector87
vector87:
  pushl $0
80107474:	6a 00                	push   $0x0
  pushl $87
80107476:	6a 57                	push   $0x57
  jmp alltraps
80107478:	e9 a8 f6 ff ff       	jmp    80106b25 <alltraps>

8010747d <vector88>:
.globl vector88
vector88:
  pushl $0
8010747d:	6a 00                	push   $0x0
  pushl $88
8010747f:	6a 58                	push   $0x58
  jmp alltraps
80107481:	e9 9f f6 ff ff       	jmp    80106b25 <alltraps>

80107486 <vector89>:
.globl vector89
vector89:
  pushl $0
80107486:	6a 00                	push   $0x0
  pushl $89
80107488:	6a 59                	push   $0x59
  jmp alltraps
8010748a:	e9 96 f6 ff ff       	jmp    80106b25 <alltraps>

8010748f <vector90>:
.globl vector90
vector90:
  pushl $0
8010748f:	6a 00                	push   $0x0
  pushl $90
80107491:	6a 5a                	push   $0x5a
  jmp alltraps
80107493:	e9 8d f6 ff ff       	jmp    80106b25 <alltraps>

80107498 <vector91>:
.globl vector91
vector91:
  pushl $0
80107498:	6a 00                	push   $0x0
  pushl $91
8010749a:	6a 5b                	push   $0x5b
  jmp alltraps
8010749c:	e9 84 f6 ff ff       	jmp    80106b25 <alltraps>

801074a1 <vector92>:
.globl vector92
vector92:
  pushl $0
801074a1:	6a 00                	push   $0x0
  pushl $92
801074a3:	6a 5c                	push   $0x5c
  jmp alltraps
801074a5:	e9 7b f6 ff ff       	jmp    80106b25 <alltraps>

801074aa <vector93>:
.globl vector93
vector93:
  pushl $0
801074aa:	6a 00                	push   $0x0
  pushl $93
801074ac:	6a 5d                	push   $0x5d
  jmp alltraps
801074ae:	e9 72 f6 ff ff       	jmp    80106b25 <alltraps>

801074b3 <vector94>:
.globl vector94
vector94:
  pushl $0
801074b3:	6a 00                	push   $0x0
  pushl $94
801074b5:	6a 5e                	push   $0x5e
  jmp alltraps
801074b7:	e9 69 f6 ff ff       	jmp    80106b25 <alltraps>

801074bc <vector95>:
.globl vector95
vector95:
  pushl $0
801074bc:	6a 00                	push   $0x0
  pushl $95
801074be:	6a 5f                	push   $0x5f
  jmp alltraps
801074c0:	e9 60 f6 ff ff       	jmp    80106b25 <alltraps>

801074c5 <vector96>:
.globl vector96
vector96:
  pushl $0
801074c5:	6a 00                	push   $0x0
  pushl $96
801074c7:	6a 60                	push   $0x60
  jmp alltraps
801074c9:	e9 57 f6 ff ff       	jmp    80106b25 <alltraps>

801074ce <vector97>:
.globl vector97
vector97:
  pushl $0
801074ce:	6a 00                	push   $0x0
  pushl $97
801074d0:	6a 61                	push   $0x61
  jmp alltraps
801074d2:	e9 4e f6 ff ff       	jmp    80106b25 <alltraps>

801074d7 <vector98>:
.globl vector98
vector98:
  pushl $0
801074d7:	6a 00                	push   $0x0
  pushl $98
801074d9:	6a 62                	push   $0x62
  jmp alltraps
801074db:	e9 45 f6 ff ff       	jmp    80106b25 <alltraps>

801074e0 <vector99>:
.globl vector99
vector99:
  pushl $0
801074e0:	6a 00                	push   $0x0
  pushl $99
801074e2:	6a 63                	push   $0x63
  jmp alltraps
801074e4:	e9 3c f6 ff ff       	jmp    80106b25 <alltraps>

801074e9 <vector100>:
.globl vector100
vector100:
  pushl $0
801074e9:	6a 00                	push   $0x0
  pushl $100
801074eb:	6a 64                	push   $0x64
  jmp alltraps
801074ed:	e9 33 f6 ff ff       	jmp    80106b25 <alltraps>

801074f2 <vector101>:
.globl vector101
vector101:
  pushl $0
801074f2:	6a 00                	push   $0x0
  pushl $101
801074f4:	6a 65                	push   $0x65
  jmp alltraps
801074f6:	e9 2a f6 ff ff       	jmp    80106b25 <alltraps>

801074fb <vector102>:
.globl vector102
vector102:
  pushl $0
801074fb:	6a 00                	push   $0x0
  pushl $102
801074fd:	6a 66                	push   $0x66
  jmp alltraps
801074ff:	e9 21 f6 ff ff       	jmp    80106b25 <alltraps>

80107504 <vector103>:
.globl vector103
vector103:
  pushl $0
80107504:	6a 00                	push   $0x0
  pushl $103
80107506:	6a 67                	push   $0x67
  jmp alltraps
80107508:	e9 18 f6 ff ff       	jmp    80106b25 <alltraps>

8010750d <vector104>:
.globl vector104
vector104:
  pushl $0
8010750d:	6a 00                	push   $0x0
  pushl $104
8010750f:	6a 68                	push   $0x68
  jmp alltraps
80107511:	e9 0f f6 ff ff       	jmp    80106b25 <alltraps>

80107516 <vector105>:
.globl vector105
vector105:
  pushl $0
80107516:	6a 00                	push   $0x0
  pushl $105
80107518:	6a 69                	push   $0x69
  jmp alltraps
8010751a:	e9 06 f6 ff ff       	jmp    80106b25 <alltraps>

8010751f <vector106>:
.globl vector106
vector106:
  pushl $0
8010751f:	6a 00                	push   $0x0
  pushl $106
80107521:	6a 6a                	push   $0x6a
  jmp alltraps
80107523:	e9 fd f5 ff ff       	jmp    80106b25 <alltraps>

80107528 <vector107>:
.globl vector107
vector107:
  pushl $0
80107528:	6a 00                	push   $0x0
  pushl $107
8010752a:	6a 6b                	push   $0x6b
  jmp alltraps
8010752c:	e9 f4 f5 ff ff       	jmp    80106b25 <alltraps>

80107531 <vector108>:
.globl vector108
vector108:
  pushl $0
80107531:	6a 00                	push   $0x0
  pushl $108
80107533:	6a 6c                	push   $0x6c
  jmp alltraps
80107535:	e9 eb f5 ff ff       	jmp    80106b25 <alltraps>

8010753a <vector109>:
.globl vector109
vector109:
  pushl $0
8010753a:	6a 00                	push   $0x0
  pushl $109
8010753c:	6a 6d                	push   $0x6d
  jmp alltraps
8010753e:	e9 e2 f5 ff ff       	jmp    80106b25 <alltraps>

80107543 <vector110>:
.globl vector110
vector110:
  pushl $0
80107543:	6a 00                	push   $0x0
  pushl $110
80107545:	6a 6e                	push   $0x6e
  jmp alltraps
80107547:	e9 d9 f5 ff ff       	jmp    80106b25 <alltraps>

8010754c <vector111>:
.globl vector111
vector111:
  pushl $0
8010754c:	6a 00                	push   $0x0
  pushl $111
8010754e:	6a 6f                	push   $0x6f
  jmp alltraps
80107550:	e9 d0 f5 ff ff       	jmp    80106b25 <alltraps>

80107555 <vector112>:
.globl vector112
vector112:
  pushl $0
80107555:	6a 00                	push   $0x0
  pushl $112
80107557:	6a 70                	push   $0x70
  jmp alltraps
80107559:	e9 c7 f5 ff ff       	jmp    80106b25 <alltraps>

8010755e <vector113>:
.globl vector113
vector113:
  pushl $0
8010755e:	6a 00                	push   $0x0
  pushl $113
80107560:	6a 71                	push   $0x71
  jmp alltraps
80107562:	e9 be f5 ff ff       	jmp    80106b25 <alltraps>

80107567 <vector114>:
.globl vector114
vector114:
  pushl $0
80107567:	6a 00                	push   $0x0
  pushl $114
80107569:	6a 72                	push   $0x72
  jmp alltraps
8010756b:	e9 b5 f5 ff ff       	jmp    80106b25 <alltraps>

80107570 <vector115>:
.globl vector115
vector115:
  pushl $0
80107570:	6a 00                	push   $0x0
  pushl $115
80107572:	6a 73                	push   $0x73
  jmp alltraps
80107574:	e9 ac f5 ff ff       	jmp    80106b25 <alltraps>

80107579 <vector116>:
.globl vector116
vector116:
  pushl $0
80107579:	6a 00                	push   $0x0
  pushl $116
8010757b:	6a 74                	push   $0x74
  jmp alltraps
8010757d:	e9 a3 f5 ff ff       	jmp    80106b25 <alltraps>

80107582 <vector117>:
.globl vector117
vector117:
  pushl $0
80107582:	6a 00                	push   $0x0
  pushl $117
80107584:	6a 75                	push   $0x75
  jmp alltraps
80107586:	e9 9a f5 ff ff       	jmp    80106b25 <alltraps>

8010758b <vector118>:
.globl vector118
vector118:
  pushl $0
8010758b:	6a 00                	push   $0x0
  pushl $118
8010758d:	6a 76                	push   $0x76
  jmp alltraps
8010758f:	e9 91 f5 ff ff       	jmp    80106b25 <alltraps>

80107594 <vector119>:
.globl vector119
vector119:
  pushl $0
80107594:	6a 00                	push   $0x0
  pushl $119
80107596:	6a 77                	push   $0x77
  jmp alltraps
80107598:	e9 88 f5 ff ff       	jmp    80106b25 <alltraps>

8010759d <vector120>:
.globl vector120
vector120:
  pushl $0
8010759d:	6a 00                	push   $0x0
  pushl $120
8010759f:	6a 78                	push   $0x78
  jmp alltraps
801075a1:	e9 7f f5 ff ff       	jmp    80106b25 <alltraps>

801075a6 <vector121>:
.globl vector121
vector121:
  pushl $0
801075a6:	6a 00                	push   $0x0
  pushl $121
801075a8:	6a 79                	push   $0x79
  jmp alltraps
801075aa:	e9 76 f5 ff ff       	jmp    80106b25 <alltraps>

801075af <vector122>:
.globl vector122
vector122:
  pushl $0
801075af:	6a 00                	push   $0x0
  pushl $122
801075b1:	6a 7a                	push   $0x7a
  jmp alltraps
801075b3:	e9 6d f5 ff ff       	jmp    80106b25 <alltraps>

801075b8 <vector123>:
.globl vector123
vector123:
  pushl $0
801075b8:	6a 00                	push   $0x0
  pushl $123
801075ba:	6a 7b                	push   $0x7b
  jmp alltraps
801075bc:	e9 64 f5 ff ff       	jmp    80106b25 <alltraps>

801075c1 <vector124>:
.globl vector124
vector124:
  pushl $0
801075c1:	6a 00                	push   $0x0
  pushl $124
801075c3:	6a 7c                	push   $0x7c
  jmp alltraps
801075c5:	e9 5b f5 ff ff       	jmp    80106b25 <alltraps>

801075ca <vector125>:
.globl vector125
vector125:
  pushl $0
801075ca:	6a 00                	push   $0x0
  pushl $125
801075cc:	6a 7d                	push   $0x7d
  jmp alltraps
801075ce:	e9 52 f5 ff ff       	jmp    80106b25 <alltraps>

801075d3 <vector126>:
.globl vector126
vector126:
  pushl $0
801075d3:	6a 00                	push   $0x0
  pushl $126
801075d5:	6a 7e                	push   $0x7e
  jmp alltraps
801075d7:	e9 49 f5 ff ff       	jmp    80106b25 <alltraps>

801075dc <vector127>:
.globl vector127
vector127:
  pushl $0
801075dc:	6a 00                	push   $0x0
  pushl $127
801075de:	6a 7f                	push   $0x7f
  jmp alltraps
801075e0:	e9 40 f5 ff ff       	jmp    80106b25 <alltraps>

801075e5 <vector128>:
.globl vector128
vector128:
  pushl $0
801075e5:	6a 00                	push   $0x0
  pushl $128
801075e7:	68 80 00 00 00       	push   $0x80
  jmp alltraps
801075ec:	e9 34 f5 ff ff       	jmp    80106b25 <alltraps>

801075f1 <vector129>:
.globl vector129
vector129:
  pushl $0
801075f1:	6a 00                	push   $0x0
  pushl $129
801075f3:	68 81 00 00 00       	push   $0x81
  jmp alltraps
801075f8:	e9 28 f5 ff ff       	jmp    80106b25 <alltraps>

801075fd <vector130>:
.globl vector130
vector130:
  pushl $0
801075fd:	6a 00                	push   $0x0
  pushl $130
801075ff:	68 82 00 00 00       	push   $0x82
  jmp alltraps
80107604:	e9 1c f5 ff ff       	jmp    80106b25 <alltraps>

80107609 <vector131>:
.globl vector131
vector131:
  pushl $0
80107609:	6a 00                	push   $0x0
  pushl $131
8010760b:	68 83 00 00 00       	push   $0x83
  jmp alltraps
80107610:	e9 10 f5 ff ff       	jmp    80106b25 <alltraps>

80107615 <vector132>:
.globl vector132
vector132:
  pushl $0
80107615:	6a 00                	push   $0x0
  pushl $132
80107617:	68 84 00 00 00       	push   $0x84
  jmp alltraps
8010761c:	e9 04 f5 ff ff       	jmp    80106b25 <alltraps>

80107621 <vector133>:
.globl vector133
vector133:
  pushl $0
80107621:	6a 00                	push   $0x0
  pushl $133
80107623:	68 85 00 00 00       	push   $0x85
  jmp alltraps
80107628:	e9 f8 f4 ff ff       	jmp    80106b25 <alltraps>

8010762d <vector134>:
.globl vector134
vector134:
  pushl $0
8010762d:	6a 00                	push   $0x0
  pushl $134
8010762f:	68 86 00 00 00       	push   $0x86
  jmp alltraps
80107634:	e9 ec f4 ff ff       	jmp    80106b25 <alltraps>

80107639 <vector135>:
.globl vector135
vector135:
  pushl $0
80107639:	6a 00                	push   $0x0
  pushl $135
8010763b:	68 87 00 00 00       	push   $0x87
  jmp alltraps
80107640:	e9 e0 f4 ff ff       	jmp    80106b25 <alltraps>

80107645 <vector136>:
.globl vector136
vector136:
  pushl $0
80107645:	6a 00                	push   $0x0
  pushl $136
80107647:	68 88 00 00 00       	push   $0x88
  jmp alltraps
8010764c:	e9 d4 f4 ff ff       	jmp    80106b25 <alltraps>

80107651 <vector137>:
.globl vector137
vector137:
  pushl $0
80107651:	6a 00                	push   $0x0
  pushl $137
80107653:	68 89 00 00 00       	push   $0x89
  jmp alltraps
80107658:	e9 c8 f4 ff ff       	jmp    80106b25 <alltraps>

8010765d <vector138>:
.globl vector138
vector138:
  pushl $0
8010765d:	6a 00                	push   $0x0
  pushl $138
8010765f:	68 8a 00 00 00       	push   $0x8a
  jmp alltraps
80107664:	e9 bc f4 ff ff       	jmp    80106b25 <alltraps>

80107669 <vector139>:
.globl vector139
vector139:
  pushl $0
80107669:	6a 00                	push   $0x0
  pushl $139
8010766b:	68 8b 00 00 00       	push   $0x8b
  jmp alltraps
80107670:	e9 b0 f4 ff ff       	jmp    80106b25 <alltraps>

80107675 <vector140>:
.globl vector140
vector140:
  pushl $0
80107675:	6a 00                	push   $0x0
  pushl $140
80107677:	68 8c 00 00 00       	push   $0x8c
  jmp alltraps
8010767c:	e9 a4 f4 ff ff       	jmp    80106b25 <alltraps>

80107681 <vector141>:
.globl vector141
vector141:
  pushl $0
80107681:	6a 00                	push   $0x0
  pushl $141
80107683:	68 8d 00 00 00       	push   $0x8d
  jmp alltraps
80107688:	e9 98 f4 ff ff       	jmp    80106b25 <alltraps>

8010768d <vector142>:
.globl vector142
vector142:
  pushl $0
8010768d:	6a 00                	push   $0x0
  pushl $142
8010768f:	68 8e 00 00 00       	push   $0x8e
  jmp alltraps
80107694:	e9 8c f4 ff ff       	jmp    80106b25 <alltraps>

80107699 <vector143>:
.globl vector143
vector143:
  pushl $0
80107699:	6a 00                	push   $0x0
  pushl $143
8010769b:	68 8f 00 00 00       	push   $0x8f
  jmp alltraps
801076a0:	e9 80 f4 ff ff       	jmp    80106b25 <alltraps>

801076a5 <vector144>:
.globl vector144
vector144:
  pushl $0
801076a5:	6a 00                	push   $0x0
  pushl $144
801076a7:	68 90 00 00 00       	push   $0x90
  jmp alltraps
801076ac:	e9 74 f4 ff ff       	jmp    80106b25 <alltraps>

801076b1 <vector145>:
.globl vector145
vector145:
  pushl $0
801076b1:	6a 00                	push   $0x0
  pushl $145
801076b3:	68 91 00 00 00       	push   $0x91
  jmp alltraps
801076b8:	e9 68 f4 ff ff       	jmp    80106b25 <alltraps>

801076bd <vector146>:
.globl vector146
vector146:
  pushl $0
801076bd:	6a 00                	push   $0x0
  pushl $146
801076bf:	68 92 00 00 00       	push   $0x92
  jmp alltraps
801076c4:	e9 5c f4 ff ff       	jmp    80106b25 <alltraps>

801076c9 <vector147>:
.globl vector147
vector147:
  pushl $0
801076c9:	6a 00                	push   $0x0
  pushl $147
801076cb:	68 93 00 00 00       	push   $0x93
  jmp alltraps
801076d0:	e9 50 f4 ff ff       	jmp    80106b25 <alltraps>

801076d5 <vector148>:
.globl vector148
vector148:
  pushl $0
801076d5:	6a 00                	push   $0x0
  pushl $148
801076d7:	68 94 00 00 00       	push   $0x94
  jmp alltraps
801076dc:	e9 44 f4 ff ff       	jmp    80106b25 <alltraps>

801076e1 <vector149>:
.globl vector149
vector149:
  pushl $0
801076e1:	6a 00                	push   $0x0
  pushl $149
801076e3:	68 95 00 00 00       	push   $0x95
  jmp alltraps
801076e8:	e9 38 f4 ff ff       	jmp    80106b25 <alltraps>

801076ed <vector150>:
.globl vector150
vector150:
  pushl $0
801076ed:	6a 00                	push   $0x0
  pushl $150
801076ef:	68 96 00 00 00       	push   $0x96
  jmp alltraps
801076f4:	e9 2c f4 ff ff       	jmp    80106b25 <alltraps>

801076f9 <vector151>:
.globl vector151
vector151:
  pushl $0
801076f9:	6a 00                	push   $0x0
  pushl $151
801076fb:	68 97 00 00 00       	push   $0x97
  jmp alltraps
80107700:	e9 20 f4 ff ff       	jmp    80106b25 <alltraps>

80107705 <vector152>:
.globl vector152
vector152:
  pushl $0
80107705:	6a 00                	push   $0x0
  pushl $152
80107707:	68 98 00 00 00       	push   $0x98
  jmp alltraps
8010770c:	e9 14 f4 ff ff       	jmp    80106b25 <alltraps>

80107711 <vector153>:
.globl vector153
vector153:
  pushl $0
80107711:	6a 00                	push   $0x0
  pushl $153
80107713:	68 99 00 00 00       	push   $0x99
  jmp alltraps
80107718:	e9 08 f4 ff ff       	jmp    80106b25 <alltraps>

8010771d <vector154>:
.globl vector154
vector154:
  pushl $0
8010771d:	6a 00                	push   $0x0
  pushl $154
8010771f:	68 9a 00 00 00       	push   $0x9a
  jmp alltraps
80107724:	e9 fc f3 ff ff       	jmp    80106b25 <alltraps>

80107729 <vector155>:
.globl vector155
vector155:
  pushl $0
80107729:	6a 00                	push   $0x0
  pushl $155
8010772b:	68 9b 00 00 00       	push   $0x9b
  jmp alltraps
80107730:	e9 f0 f3 ff ff       	jmp    80106b25 <alltraps>

80107735 <vector156>:
.globl vector156
vector156:
  pushl $0
80107735:	6a 00                	push   $0x0
  pushl $156
80107737:	68 9c 00 00 00       	push   $0x9c
  jmp alltraps
8010773c:	e9 e4 f3 ff ff       	jmp    80106b25 <alltraps>

80107741 <vector157>:
.globl vector157
vector157:
  pushl $0
80107741:	6a 00                	push   $0x0
  pushl $157
80107743:	68 9d 00 00 00       	push   $0x9d
  jmp alltraps
80107748:	e9 d8 f3 ff ff       	jmp    80106b25 <alltraps>

8010774d <vector158>:
.globl vector158
vector158:
  pushl $0
8010774d:	6a 00                	push   $0x0
  pushl $158
8010774f:	68 9e 00 00 00       	push   $0x9e
  jmp alltraps
80107754:	e9 cc f3 ff ff       	jmp    80106b25 <alltraps>

80107759 <vector159>:
.globl vector159
vector159:
  pushl $0
80107759:	6a 00                	push   $0x0
  pushl $159
8010775b:	68 9f 00 00 00       	push   $0x9f
  jmp alltraps
80107760:	e9 c0 f3 ff ff       	jmp    80106b25 <alltraps>

80107765 <vector160>:
.globl vector160
vector160:
  pushl $0
80107765:	6a 00                	push   $0x0
  pushl $160
80107767:	68 a0 00 00 00       	push   $0xa0
  jmp alltraps
8010776c:	e9 b4 f3 ff ff       	jmp    80106b25 <alltraps>

80107771 <vector161>:
.globl vector161
vector161:
  pushl $0
80107771:	6a 00                	push   $0x0
  pushl $161
80107773:	68 a1 00 00 00       	push   $0xa1
  jmp alltraps
80107778:	e9 a8 f3 ff ff       	jmp    80106b25 <alltraps>

8010777d <vector162>:
.globl vector162
vector162:
  pushl $0
8010777d:	6a 00                	push   $0x0
  pushl $162
8010777f:	68 a2 00 00 00       	push   $0xa2
  jmp alltraps
80107784:	e9 9c f3 ff ff       	jmp    80106b25 <alltraps>

80107789 <vector163>:
.globl vector163
vector163:
  pushl $0
80107789:	6a 00                	push   $0x0
  pushl $163
8010778b:	68 a3 00 00 00       	push   $0xa3
  jmp alltraps
80107790:	e9 90 f3 ff ff       	jmp    80106b25 <alltraps>

80107795 <vector164>:
.globl vector164
vector164:
  pushl $0
80107795:	6a 00                	push   $0x0
  pushl $164
80107797:	68 a4 00 00 00       	push   $0xa4
  jmp alltraps
8010779c:	e9 84 f3 ff ff       	jmp    80106b25 <alltraps>

801077a1 <vector165>:
.globl vector165
vector165:
  pushl $0
801077a1:	6a 00                	push   $0x0
  pushl $165
801077a3:	68 a5 00 00 00       	push   $0xa5
  jmp alltraps
801077a8:	e9 78 f3 ff ff       	jmp    80106b25 <alltraps>

801077ad <vector166>:
.globl vector166
vector166:
  pushl $0
801077ad:	6a 00                	push   $0x0
  pushl $166
801077af:	68 a6 00 00 00       	push   $0xa6
  jmp alltraps
801077b4:	e9 6c f3 ff ff       	jmp    80106b25 <alltraps>

801077b9 <vector167>:
.globl vector167
vector167:
  pushl $0
801077b9:	6a 00                	push   $0x0
  pushl $167
801077bb:	68 a7 00 00 00       	push   $0xa7
  jmp alltraps
801077c0:	e9 60 f3 ff ff       	jmp    80106b25 <alltraps>

801077c5 <vector168>:
.globl vector168
vector168:
  pushl $0
801077c5:	6a 00                	push   $0x0
  pushl $168
801077c7:	68 a8 00 00 00       	push   $0xa8
  jmp alltraps
801077cc:	e9 54 f3 ff ff       	jmp    80106b25 <alltraps>

801077d1 <vector169>:
.globl vector169
vector169:
  pushl $0
801077d1:	6a 00                	push   $0x0
  pushl $169
801077d3:	68 a9 00 00 00       	push   $0xa9
  jmp alltraps
801077d8:	e9 48 f3 ff ff       	jmp    80106b25 <alltraps>

801077dd <vector170>:
.globl vector170
vector170:
  pushl $0
801077dd:	6a 00                	push   $0x0
  pushl $170
801077df:	68 aa 00 00 00       	push   $0xaa
  jmp alltraps
801077e4:	e9 3c f3 ff ff       	jmp    80106b25 <alltraps>

801077e9 <vector171>:
.globl vector171
vector171:
  pushl $0
801077e9:	6a 00                	push   $0x0
  pushl $171
801077eb:	68 ab 00 00 00       	push   $0xab
  jmp alltraps
801077f0:	e9 30 f3 ff ff       	jmp    80106b25 <alltraps>

801077f5 <vector172>:
.globl vector172
vector172:
  pushl $0
801077f5:	6a 00                	push   $0x0
  pushl $172
801077f7:	68 ac 00 00 00       	push   $0xac
  jmp alltraps
801077fc:	e9 24 f3 ff ff       	jmp    80106b25 <alltraps>

80107801 <vector173>:
.globl vector173
vector173:
  pushl $0
80107801:	6a 00                	push   $0x0
  pushl $173
80107803:	68 ad 00 00 00       	push   $0xad
  jmp alltraps
80107808:	e9 18 f3 ff ff       	jmp    80106b25 <alltraps>

8010780d <vector174>:
.globl vector174
vector174:
  pushl $0
8010780d:	6a 00                	push   $0x0
  pushl $174
8010780f:	68 ae 00 00 00       	push   $0xae
  jmp alltraps
80107814:	e9 0c f3 ff ff       	jmp    80106b25 <alltraps>

80107819 <vector175>:
.globl vector175
vector175:
  pushl $0
80107819:	6a 00                	push   $0x0
  pushl $175
8010781b:	68 af 00 00 00       	push   $0xaf
  jmp alltraps
80107820:	e9 00 f3 ff ff       	jmp    80106b25 <alltraps>

80107825 <vector176>:
.globl vector176
vector176:
  pushl $0
80107825:	6a 00                	push   $0x0
  pushl $176
80107827:	68 b0 00 00 00       	push   $0xb0
  jmp alltraps
8010782c:	e9 f4 f2 ff ff       	jmp    80106b25 <alltraps>

80107831 <vector177>:
.globl vector177
vector177:
  pushl $0
80107831:	6a 00                	push   $0x0
  pushl $177
80107833:	68 b1 00 00 00       	push   $0xb1
  jmp alltraps
80107838:	e9 e8 f2 ff ff       	jmp    80106b25 <alltraps>

8010783d <vector178>:
.globl vector178
vector178:
  pushl $0
8010783d:	6a 00                	push   $0x0
  pushl $178
8010783f:	68 b2 00 00 00       	push   $0xb2
  jmp alltraps
80107844:	e9 dc f2 ff ff       	jmp    80106b25 <alltraps>

80107849 <vector179>:
.globl vector179
vector179:
  pushl $0
80107849:	6a 00                	push   $0x0
  pushl $179
8010784b:	68 b3 00 00 00       	push   $0xb3
  jmp alltraps
80107850:	e9 d0 f2 ff ff       	jmp    80106b25 <alltraps>

80107855 <vector180>:
.globl vector180
vector180:
  pushl $0
80107855:	6a 00                	push   $0x0
  pushl $180
80107857:	68 b4 00 00 00       	push   $0xb4
  jmp alltraps
8010785c:	e9 c4 f2 ff ff       	jmp    80106b25 <alltraps>

80107861 <vector181>:
.globl vector181
vector181:
  pushl $0
80107861:	6a 00                	push   $0x0
  pushl $181
80107863:	68 b5 00 00 00       	push   $0xb5
  jmp alltraps
80107868:	e9 b8 f2 ff ff       	jmp    80106b25 <alltraps>

8010786d <vector182>:
.globl vector182
vector182:
  pushl $0
8010786d:	6a 00                	push   $0x0
  pushl $182
8010786f:	68 b6 00 00 00       	push   $0xb6
  jmp alltraps
80107874:	e9 ac f2 ff ff       	jmp    80106b25 <alltraps>

80107879 <vector183>:
.globl vector183
vector183:
  pushl $0
80107879:	6a 00                	push   $0x0
  pushl $183
8010787b:	68 b7 00 00 00       	push   $0xb7
  jmp alltraps
80107880:	e9 a0 f2 ff ff       	jmp    80106b25 <alltraps>

80107885 <vector184>:
.globl vector184
vector184:
  pushl $0
80107885:	6a 00                	push   $0x0
  pushl $184
80107887:	68 b8 00 00 00       	push   $0xb8
  jmp alltraps
8010788c:	e9 94 f2 ff ff       	jmp    80106b25 <alltraps>

80107891 <vector185>:
.globl vector185
vector185:
  pushl $0
80107891:	6a 00                	push   $0x0
  pushl $185
80107893:	68 b9 00 00 00       	push   $0xb9
  jmp alltraps
80107898:	e9 88 f2 ff ff       	jmp    80106b25 <alltraps>

8010789d <vector186>:
.globl vector186
vector186:
  pushl $0
8010789d:	6a 00                	push   $0x0
  pushl $186
8010789f:	68 ba 00 00 00       	push   $0xba
  jmp alltraps
801078a4:	e9 7c f2 ff ff       	jmp    80106b25 <alltraps>

801078a9 <vector187>:
.globl vector187
vector187:
  pushl $0
801078a9:	6a 00                	push   $0x0
  pushl $187
801078ab:	68 bb 00 00 00       	push   $0xbb
  jmp alltraps
801078b0:	e9 70 f2 ff ff       	jmp    80106b25 <alltraps>

801078b5 <vector188>:
.globl vector188
vector188:
  pushl $0
801078b5:	6a 00                	push   $0x0
  pushl $188
801078b7:	68 bc 00 00 00       	push   $0xbc
  jmp alltraps
801078bc:	e9 64 f2 ff ff       	jmp    80106b25 <alltraps>

801078c1 <vector189>:
.globl vector189
vector189:
  pushl $0
801078c1:	6a 00                	push   $0x0
  pushl $189
801078c3:	68 bd 00 00 00       	push   $0xbd
  jmp alltraps
801078c8:	e9 58 f2 ff ff       	jmp    80106b25 <alltraps>

801078cd <vector190>:
.globl vector190
vector190:
  pushl $0
801078cd:	6a 00                	push   $0x0
  pushl $190
801078cf:	68 be 00 00 00       	push   $0xbe
  jmp alltraps
801078d4:	e9 4c f2 ff ff       	jmp    80106b25 <alltraps>

801078d9 <vector191>:
.globl vector191
vector191:
  pushl $0
801078d9:	6a 00                	push   $0x0
  pushl $191
801078db:	68 bf 00 00 00       	push   $0xbf
  jmp alltraps
801078e0:	e9 40 f2 ff ff       	jmp    80106b25 <alltraps>

801078e5 <vector192>:
.globl vector192
vector192:
  pushl $0
801078e5:	6a 00                	push   $0x0
  pushl $192
801078e7:	68 c0 00 00 00       	push   $0xc0
  jmp alltraps
801078ec:	e9 34 f2 ff ff       	jmp    80106b25 <alltraps>

801078f1 <vector193>:
.globl vector193
vector193:
  pushl $0
801078f1:	6a 00                	push   $0x0
  pushl $193
801078f3:	68 c1 00 00 00       	push   $0xc1
  jmp alltraps
801078f8:	e9 28 f2 ff ff       	jmp    80106b25 <alltraps>

801078fd <vector194>:
.globl vector194
vector194:
  pushl $0
801078fd:	6a 00                	push   $0x0
  pushl $194
801078ff:	68 c2 00 00 00       	push   $0xc2
  jmp alltraps
80107904:	e9 1c f2 ff ff       	jmp    80106b25 <alltraps>

80107909 <vector195>:
.globl vector195
vector195:
  pushl $0
80107909:	6a 00                	push   $0x0
  pushl $195
8010790b:	68 c3 00 00 00       	push   $0xc3
  jmp alltraps
80107910:	e9 10 f2 ff ff       	jmp    80106b25 <alltraps>

80107915 <vector196>:
.globl vector196
vector196:
  pushl $0
80107915:	6a 00                	push   $0x0
  pushl $196
80107917:	68 c4 00 00 00       	push   $0xc4
  jmp alltraps
8010791c:	e9 04 f2 ff ff       	jmp    80106b25 <alltraps>

80107921 <vector197>:
.globl vector197
vector197:
  pushl $0
80107921:	6a 00                	push   $0x0
  pushl $197
80107923:	68 c5 00 00 00       	push   $0xc5
  jmp alltraps
80107928:	e9 f8 f1 ff ff       	jmp    80106b25 <alltraps>

8010792d <vector198>:
.globl vector198
vector198:
  pushl $0
8010792d:	6a 00                	push   $0x0
  pushl $198
8010792f:	68 c6 00 00 00       	push   $0xc6
  jmp alltraps
80107934:	e9 ec f1 ff ff       	jmp    80106b25 <alltraps>

80107939 <vector199>:
.globl vector199
vector199:
  pushl $0
80107939:	6a 00                	push   $0x0
  pushl $199
8010793b:	68 c7 00 00 00       	push   $0xc7
  jmp alltraps
80107940:	e9 e0 f1 ff ff       	jmp    80106b25 <alltraps>

80107945 <vector200>:
.globl vector200
vector200:
  pushl $0
80107945:	6a 00                	push   $0x0
  pushl $200
80107947:	68 c8 00 00 00       	push   $0xc8
  jmp alltraps
8010794c:	e9 d4 f1 ff ff       	jmp    80106b25 <alltraps>

80107951 <vector201>:
.globl vector201
vector201:
  pushl $0
80107951:	6a 00                	push   $0x0
  pushl $201
80107953:	68 c9 00 00 00       	push   $0xc9
  jmp alltraps
80107958:	e9 c8 f1 ff ff       	jmp    80106b25 <alltraps>

8010795d <vector202>:
.globl vector202
vector202:
  pushl $0
8010795d:	6a 00                	push   $0x0
  pushl $202
8010795f:	68 ca 00 00 00       	push   $0xca
  jmp alltraps
80107964:	e9 bc f1 ff ff       	jmp    80106b25 <alltraps>

80107969 <vector203>:
.globl vector203
vector203:
  pushl $0
80107969:	6a 00                	push   $0x0
  pushl $203
8010796b:	68 cb 00 00 00       	push   $0xcb
  jmp alltraps
80107970:	e9 b0 f1 ff ff       	jmp    80106b25 <alltraps>

80107975 <vector204>:
.globl vector204
vector204:
  pushl $0
80107975:	6a 00                	push   $0x0
  pushl $204
80107977:	68 cc 00 00 00       	push   $0xcc
  jmp alltraps
8010797c:	e9 a4 f1 ff ff       	jmp    80106b25 <alltraps>

80107981 <vector205>:
.globl vector205
vector205:
  pushl $0
80107981:	6a 00                	push   $0x0
  pushl $205
80107983:	68 cd 00 00 00       	push   $0xcd
  jmp alltraps
80107988:	e9 98 f1 ff ff       	jmp    80106b25 <alltraps>

8010798d <vector206>:
.globl vector206
vector206:
  pushl $0
8010798d:	6a 00                	push   $0x0
  pushl $206
8010798f:	68 ce 00 00 00       	push   $0xce
  jmp alltraps
80107994:	e9 8c f1 ff ff       	jmp    80106b25 <alltraps>

80107999 <vector207>:
.globl vector207
vector207:
  pushl $0
80107999:	6a 00                	push   $0x0
  pushl $207
8010799b:	68 cf 00 00 00       	push   $0xcf
  jmp alltraps
801079a0:	e9 80 f1 ff ff       	jmp    80106b25 <alltraps>

801079a5 <vector208>:
.globl vector208
vector208:
  pushl $0
801079a5:	6a 00                	push   $0x0
  pushl $208
801079a7:	68 d0 00 00 00       	push   $0xd0
  jmp alltraps
801079ac:	e9 74 f1 ff ff       	jmp    80106b25 <alltraps>

801079b1 <vector209>:
.globl vector209
vector209:
  pushl $0
801079b1:	6a 00                	push   $0x0
  pushl $209
801079b3:	68 d1 00 00 00       	push   $0xd1
  jmp alltraps
801079b8:	e9 68 f1 ff ff       	jmp    80106b25 <alltraps>

801079bd <vector210>:
.globl vector210
vector210:
  pushl $0
801079bd:	6a 00                	push   $0x0
  pushl $210
801079bf:	68 d2 00 00 00       	push   $0xd2
  jmp alltraps
801079c4:	e9 5c f1 ff ff       	jmp    80106b25 <alltraps>

801079c9 <vector211>:
.globl vector211
vector211:
  pushl $0
801079c9:	6a 00                	push   $0x0
  pushl $211
801079cb:	68 d3 00 00 00       	push   $0xd3
  jmp alltraps
801079d0:	e9 50 f1 ff ff       	jmp    80106b25 <alltraps>

801079d5 <vector212>:
.globl vector212
vector212:
  pushl $0
801079d5:	6a 00                	push   $0x0
  pushl $212
801079d7:	68 d4 00 00 00       	push   $0xd4
  jmp alltraps
801079dc:	e9 44 f1 ff ff       	jmp    80106b25 <alltraps>

801079e1 <vector213>:
.globl vector213
vector213:
  pushl $0
801079e1:	6a 00                	push   $0x0
  pushl $213
801079e3:	68 d5 00 00 00       	push   $0xd5
  jmp alltraps
801079e8:	e9 38 f1 ff ff       	jmp    80106b25 <alltraps>

801079ed <vector214>:
.globl vector214
vector214:
  pushl $0
801079ed:	6a 00                	push   $0x0
  pushl $214
801079ef:	68 d6 00 00 00       	push   $0xd6
  jmp alltraps
801079f4:	e9 2c f1 ff ff       	jmp    80106b25 <alltraps>

801079f9 <vector215>:
.globl vector215
vector215:
  pushl $0
801079f9:	6a 00                	push   $0x0
  pushl $215
801079fb:	68 d7 00 00 00       	push   $0xd7
  jmp alltraps
80107a00:	e9 20 f1 ff ff       	jmp    80106b25 <alltraps>

80107a05 <vector216>:
.globl vector216
vector216:
  pushl $0
80107a05:	6a 00                	push   $0x0
  pushl $216
80107a07:	68 d8 00 00 00       	push   $0xd8
  jmp alltraps
80107a0c:	e9 14 f1 ff ff       	jmp    80106b25 <alltraps>

80107a11 <vector217>:
.globl vector217
vector217:
  pushl $0
80107a11:	6a 00                	push   $0x0
  pushl $217
80107a13:	68 d9 00 00 00       	push   $0xd9
  jmp alltraps
80107a18:	e9 08 f1 ff ff       	jmp    80106b25 <alltraps>

80107a1d <vector218>:
.globl vector218
vector218:
  pushl $0
80107a1d:	6a 00                	push   $0x0
  pushl $218
80107a1f:	68 da 00 00 00       	push   $0xda
  jmp alltraps
80107a24:	e9 fc f0 ff ff       	jmp    80106b25 <alltraps>

80107a29 <vector219>:
.globl vector219
vector219:
  pushl $0
80107a29:	6a 00                	push   $0x0
  pushl $219
80107a2b:	68 db 00 00 00       	push   $0xdb
  jmp alltraps
80107a30:	e9 f0 f0 ff ff       	jmp    80106b25 <alltraps>

80107a35 <vector220>:
.globl vector220
vector220:
  pushl $0
80107a35:	6a 00                	push   $0x0
  pushl $220
80107a37:	68 dc 00 00 00       	push   $0xdc
  jmp alltraps
80107a3c:	e9 e4 f0 ff ff       	jmp    80106b25 <alltraps>

80107a41 <vector221>:
.globl vector221
vector221:
  pushl $0
80107a41:	6a 00                	push   $0x0
  pushl $221
80107a43:	68 dd 00 00 00       	push   $0xdd
  jmp alltraps
80107a48:	e9 d8 f0 ff ff       	jmp    80106b25 <alltraps>

80107a4d <vector222>:
.globl vector222
vector222:
  pushl $0
80107a4d:	6a 00                	push   $0x0
  pushl $222
80107a4f:	68 de 00 00 00       	push   $0xde
  jmp alltraps
80107a54:	e9 cc f0 ff ff       	jmp    80106b25 <alltraps>

80107a59 <vector223>:
.globl vector223
vector223:
  pushl $0
80107a59:	6a 00                	push   $0x0
  pushl $223
80107a5b:	68 df 00 00 00       	push   $0xdf
  jmp alltraps
80107a60:	e9 c0 f0 ff ff       	jmp    80106b25 <alltraps>

80107a65 <vector224>:
.globl vector224
vector224:
  pushl $0
80107a65:	6a 00                	push   $0x0
  pushl $224
80107a67:	68 e0 00 00 00       	push   $0xe0
  jmp alltraps
80107a6c:	e9 b4 f0 ff ff       	jmp    80106b25 <alltraps>

80107a71 <vector225>:
.globl vector225
vector225:
  pushl $0
80107a71:	6a 00                	push   $0x0
  pushl $225
80107a73:	68 e1 00 00 00       	push   $0xe1
  jmp alltraps
80107a78:	e9 a8 f0 ff ff       	jmp    80106b25 <alltraps>

80107a7d <vector226>:
.globl vector226
vector226:
  pushl $0
80107a7d:	6a 00                	push   $0x0
  pushl $226
80107a7f:	68 e2 00 00 00       	push   $0xe2
  jmp alltraps
80107a84:	e9 9c f0 ff ff       	jmp    80106b25 <alltraps>

80107a89 <vector227>:
.globl vector227
vector227:
  pushl $0
80107a89:	6a 00                	push   $0x0
  pushl $227
80107a8b:	68 e3 00 00 00       	push   $0xe3
  jmp alltraps
80107a90:	e9 90 f0 ff ff       	jmp    80106b25 <alltraps>

80107a95 <vector228>:
.globl vector228
vector228:
  pushl $0
80107a95:	6a 00                	push   $0x0
  pushl $228
80107a97:	68 e4 00 00 00       	push   $0xe4
  jmp alltraps
80107a9c:	e9 84 f0 ff ff       	jmp    80106b25 <alltraps>

80107aa1 <vector229>:
.globl vector229
vector229:
  pushl $0
80107aa1:	6a 00                	push   $0x0
  pushl $229
80107aa3:	68 e5 00 00 00       	push   $0xe5
  jmp alltraps
80107aa8:	e9 78 f0 ff ff       	jmp    80106b25 <alltraps>

80107aad <vector230>:
.globl vector230
vector230:
  pushl $0
80107aad:	6a 00                	push   $0x0
  pushl $230
80107aaf:	68 e6 00 00 00       	push   $0xe6
  jmp alltraps
80107ab4:	e9 6c f0 ff ff       	jmp    80106b25 <alltraps>

80107ab9 <vector231>:
.globl vector231
vector231:
  pushl $0
80107ab9:	6a 00                	push   $0x0
  pushl $231
80107abb:	68 e7 00 00 00       	push   $0xe7
  jmp alltraps
80107ac0:	e9 60 f0 ff ff       	jmp    80106b25 <alltraps>

80107ac5 <vector232>:
.globl vector232
vector232:
  pushl $0
80107ac5:	6a 00                	push   $0x0
  pushl $232
80107ac7:	68 e8 00 00 00       	push   $0xe8
  jmp alltraps
80107acc:	e9 54 f0 ff ff       	jmp    80106b25 <alltraps>

80107ad1 <vector233>:
.globl vector233
vector233:
  pushl $0
80107ad1:	6a 00                	push   $0x0
  pushl $233
80107ad3:	68 e9 00 00 00       	push   $0xe9
  jmp alltraps
80107ad8:	e9 48 f0 ff ff       	jmp    80106b25 <alltraps>

80107add <vector234>:
.globl vector234
vector234:
  pushl $0
80107add:	6a 00                	push   $0x0
  pushl $234
80107adf:	68 ea 00 00 00       	push   $0xea
  jmp alltraps
80107ae4:	e9 3c f0 ff ff       	jmp    80106b25 <alltraps>

80107ae9 <vector235>:
.globl vector235
vector235:
  pushl $0
80107ae9:	6a 00                	push   $0x0
  pushl $235
80107aeb:	68 eb 00 00 00       	push   $0xeb
  jmp alltraps
80107af0:	e9 30 f0 ff ff       	jmp    80106b25 <alltraps>

80107af5 <vector236>:
.globl vector236
vector236:
  pushl $0
80107af5:	6a 00                	push   $0x0
  pushl $236
80107af7:	68 ec 00 00 00       	push   $0xec
  jmp alltraps
80107afc:	e9 24 f0 ff ff       	jmp    80106b25 <alltraps>

80107b01 <vector237>:
.globl vector237
vector237:
  pushl $0
80107b01:	6a 00                	push   $0x0
  pushl $237
80107b03:	68 ed 00 00 00       	push   $0xed
  jmp alltraps
80107b08:	e9 18 f0 ff ff       	jmp    80106b25 <alltraps>

80107b0d <vector238>:
.globl vector238
vector238:
  pushl $0
80107b0d:	6a 00                	push   $0x0
  pushl $238
80107b0f:	68 ee 00 00 00       	push   $0xee
  jmp alltraps
80107b14:	e9 0c f0 ff ff       	jmp    80106b25 <alltraps>

80107b19 <vector239>:
.globl vector239
vector239:
  pushl $0
80107b19:	6a 00                	push   $0x0
  pushl $239
80107b1b:	68 ef 00 00 00       	push   $0xef
  jmp alltraps
80107b20:	e9 00 f0 ff ff       	jmp    80106b25 <alltraps>

80107b25 <vector240>:
.globl vector240
vector240:
  pushl $0
80107b25:	6a 00                	push   $0x0
  pushl $240
80107b27:	68 f0 00 00 00       	push   $0xf0
  jmp alltraps
80107b2c:	e9 f4 ef ff ff       	jmp    80106b25 <alltraps>

80107b31 <vector241>:
.globl vector241
vector241:
  pushl $0
80107b31:	6a 00                	push   $0x0
  pushl $241
80107b33:	68 f1 00 00 00       	push   $0xf1
  jmp alltraps
80107b38:	e9 e8 ef ff ff       	jmp    80106b25 <alltraps>

80107b3d <vector242>:
.globl vector242
vector242:
  pushl $0
80107b3d:	6a 00                	push   $0x0
  pushl $242
80107b3f:	68 f2 00 00 00       	push   $0xf2
  jmp alltraps
80107b44:	e9 dc ef ff ff       	jmp    80106b25 <alltraps>

80107b49 <vector243>:
.globl vector243
vector243:
  pushl $0
80107b49:	6a 00                	push   $0x0
  pushl $243
80107b4b:	68 f3 00 00 00       	push   $0xf3
  jmp alltraps
80107b50:	e9 d0 ef ff ff       	jmp    80106b25 <alltraps>

80107b55 <vector244>:
.globl vector244
vector244:
  pushl $0
80107b55:	6a 00                	push   $0x0
  pushl $244
80107b57:	68 f4 00 00 00       	push   $0xf4
  jmp alltraps
80107b5c:	e9 c4 ef ff ff       	jmp    80106b25 <alltraps>

80107b61 <vector245>:
.globl vector245
vector245:
  pushl $0
80107b61:	6a 00                	push   $0x0
  pushl $245
80107b63:	68 f5 00 00 00       	push   $0xf5
  jmp alltraps
80107b68:	e9 b8 ef ff ff       	jmp    80106b25 <alltraps>

80107b6d <vector246>:
.globl vector246
vector246:
  pushl $0
80107b6d:	6a 00                	push   $0x0
  pushl $246
80107b6f:	68 f6 00 00 00       	push   $0xf6
  jmp alltraps
80107b74:	e9 ac ef ff ff       	jmp    80106b25 <alltraps>

80107b79 <vector247>:
.globl vector247
vector247:
  pushl $0
80107b79:	6a 00                	push   $0x0
  pushl $247
80107b7b:	68 f7 00 00 00       	push   $0xf7
  jmp alltraps
80107b80:	e9 a0 ef ff ff       	jmp    80106b25 <alltraps>

80107b85 <vector248>:
.globl vector248
vector248:
  pushl $0
80107b85:	6a 00                	push   $0x0
  pushl $248
80107b87:	68 f8 00 00 00       	push   $0xf8
  jmp alltraps
80107b8c:	e9 94 ef ff ff       	jmp    80106b25 <alltraps>

80107b91 <vector249>:
.globl vector249
vector249:
  pushl $0
80107b91:	6a 00                	push   $0x0
  pushl $249
80107b93:	68 f9 00 00 00       	push   $0xf9
  jmp alltraps
80107b98:	e9 88 ef ff ff       	jmp    80106b25 <alltraps>

80107b9d <vector250>:
.globl vector250
vector250:
  pushl $0
80107b9d:	6a 00                	push   $0x0
  pushl $250
80107b9f:	68 fa 00 00 00       	push   $0xfa
  jmp alltraps
80107ba4:	e9 7c ef ff ff       	jmp    80106b25 <alltraps>

80107ba9 <vector251>:
.globl vector251
vector251:
  pushl $0
80107ba9:	6a 00                	push   $0x0
  pushl $251
80107bab:	68 fb 00 00 00       	push   $0xfb
  jmp alltraps
80107bb0:	e9 70 ef ff ff       	jmp    80106b25 <alltraps>

80107bb5 <vector252>:
.globl vector252
vector252:
  pushl $0
80107bb5:	6a 00                	push   $0x0
  pushl $252
80107bb7:	68 fc 00 00 00       	push   $0xfc
  jmp alltraps
80107bbc:	e9 64 ef ff ff       	jmp    80106b25 <alltraps>

80107bc1 <vector253>:
.globl vector253
vector253:
  pushl $0
80107bc1:	6a 00                	push   $0x0
  pushl $253
80107bc3:	68 fd 00 00 00       	push   $0xfd
  jmp alltraps
80107bc8:	e9 58 ef ff ff       	jmp    80106b25 <alltraps>

80107bcd <vector254>:
.globl vector254
vector254:
  pushl $0
80107bcd:	6a 00                	push   $0x0
  pushl $254
80107bcf:	68 fe 00 00 00       	push   $0xfe
  jmp alltraps
80107bd4:	e9 4c ef ff ff       	jmp    80106b25 <alltraps>

80107bd9 <vector255>:
.globl vector255
vector255:
  pushl $0
80107bd9:	6a 00                	push   $0x0
  pushl $255
80107bdb:	68 ff 00 00 00       	push   $0xff
  jmp alltraps
80107be0:	e9 40 ef ff ff       	jmp    80106b25 <alltraps>

80107be5 <lgdt>:

struct segdesc;

static inline void
lgdt(struct segdesc *p, int size)
{
80107be5:	55                   	push   %ebp
80107be6:	89 e5                	mov    %esp,%ebp
80107be8:	83 ec 10             	sub    $0x10,%esp
  volatile ushort pd[3];

  pd[0] = size-1;
80107beb:	8b 45 0c             	mov    0xc(%ebp),%eax
80107bee:	83 e8 01             	sub    $0x1,%eax
80107bf1:	66 89 45 fa          	mov    %ax,-0x6(%ebp)
  pd[1] = (uint)p;
80107bf5:	8b 45 08             	mov    0x8(%ebp),%eax
80107bf8:	66 89 45 fc          	mov    %ax,-0x4(%ebp)
  pd[2] = (uint)p >> 16;
80107bfc:	8b 45 08             	mov    0x8(%ebp),%eax
80107bff:	c1 e8 10             	shr    $0x10,%eax
80107c02:	66 89 45 fe          	mov    %ax,-0x2(%ebp)

  asm volatile("lgdt (%0)" : : "r" (pd));
80107c06:	8d 45 fa             	lea    -0x6(%ebp),%eax
80107c09:	0f 01 10             	lgdtl  (%eax)
}
80107c0c:	90                   	nop
80107c0d:	c9                   	leave  
80107c0e:	c3                   	ret    

80107c0f <ltr>:
  asm volatile("lidt (%0)" : : "r" (pd));
}

static inline void
ltr(ushort sel)
{
80107c0f:	55                   	push   %ebp
80107c10:	89 e5                	mov    %esp,%ebp
80107c12:	83 ec 04             	sub    $0x4,%esp
80107c15:	8b 45 08             	mov    0x8(%ebp),%eax
80107c18:	66 89 45 fc          	mov    %ax,-0x4(%ebp)
  asm volatile("ltr %0" : : "r" (sel));
80107c1c:	0f b7 45 fc          	movzwl -0x4(%ebp),%eax
80107c20:	0f 00 d8             	ltr    %ax
}
80107c23:	90                   	nop
80107c24:	c9                   	leave  
80107c25:	c3                   	ret    

80107c26 <loadgs>:
  return eflags;
}

static inline void
loadgs(ushort v)
{
80107c26:	55                   	push   %ebp
80107c27:	89 e5                	mov    %esp,%ebp
80107c29:	83 ec 04             	sub    $0x4,%esp
80107c2c:	8b 45 08             	mov    0x8(%ebp),%eax
80107c2f:	66 89 45 fc          	mov    %ax,-0x4(%ebp)
  asm volatile("movw %0, %%gs" : : "r" (v));
80107c33:	0f b7 45 fc          	movzwl -0x4(%ebp),%eax
80107c37:	8e e8                	mov    %eax,%gs
}
80107c39:	90                   	nop
80107c3a:	c9                   	leave  
80107c3b:	c3                   	ret    

80107c3c <lcr3>:
  return val;
}

static inline void
lcr3(uint val) 
{
80107c3c:	55                   	push   %ebp
80107c3d:	89 e5                	mov    %esp,%ebp
  asm volatile("movl %0,%%cr3" : : "r" (val));
80107c3f:	8b 45 08             	mov    0x8(%ebp),%eax
80107c42:	0f 22 d8             	mov    %eax,%cr3
}
80107c45:	90                   	nop
80107c46:	5d                   	pop    %ebp
80107c47:	c3                   	ret    

80107c48 <v2p>:
#define KERNBASE 0x80000000         // First kernel virtual address
#define KERNLINK (KERNBASE+EXTMEM)  // Address where kernel is linked

#ifndef __ASSEMBLER__

static inline uint v2p(void *a) { return ((uint) (a))  - KERNBASE; }
80107c48:	55                   	push   %ebp
80107c49:	89 e5                	mov    %esp,%ebp
80107c4b:	8b 45 08             	mov    0x8(%ebp),%eax
80107c4e:	05 00 00 00 80       	add    $0x80000000,%eax
80107c53:	5d                   	pop    %ebp
80107c54:	c3                   	ret    

80107c55 <p2v>:
static inline void *p2v(uint a) { return (void *) ((a) + KERNBASE); }
80107c55:	55                   	push   %ebp
80107c56:	89 e5                	mov    %esp,%ebp
80107c58:	8b 45 08             	mov    0x8(%ebp),%eax
80107c5b:	05 00 00 00 80       	add    $0x80000000,%eax
80107c60:	5d                   	pop    %ebp
80107c61:	c3                   	ret    

80107c62 <seginit>:

// Set up CPU's kernel segment descriptors.
// Run once on entry on each CPU.
void
seginit(void)
{
80107c62:	55                   	push   %ebp
80107c63:	89 e5                	mov    %esp,%ebp
80107c65:	53                   	push   %ebx
80107c66:	83 ec 14             	sub    $0x14,%esp

  // Map "logical" addresses to virtual addresses using identity map.
  // Cannot share a CODE descriptor for both kernel and user
  // because it would have to have DPL_USR, but the CPU forbids
  // an interrupt from CPL=0 to DPL=3.
  c = &cpus[cpunum()];
80107c69:	e8 5e b3 ff ff       	call   80102fcc <cpunum>
80107c6e:	69 c0 bc 00 00 00    	imul   $0xbc,%eax,%eax
80107c74:	05 80 33 11 80       	add    $0x80113380,%eax
80107c79:	89 45 f4             	mov    %eax,-0xc(%ebp)
  c->gdt[SEG_KCODE] = SEG(STA_X|STA_R, 0, 0xffffffff, 0);
80107c7c:	8b 45 f4             	mov    -0xc(%ebp),%eax
80107c7f:	66 c7 40 78 ff ff    	movw   $0xffff,0x78(%eax)
80107c85:	8b 45 f4             	mov    -0xc(%ebp),%eax
80107c88:	66 c7 40 7a 00 00    	movw   $0x0,0x7a(%eax)
80107c8e:	8b 45 f4             	mov    -0xc(%ebp),%eax
80107c91:	c6 40 7c 00          	movb   $0x0,0x7c(%eax)
80107c95:	8b 45 f4             	mov    -0xc(%ebp),%eax
80107c98:	0f b6 50 7d          	movzbl 0x7d(%eax),%edx
80107c9c:	83 e2 f0             	and    $0xfffffff0,%edx
80107c9f:	83 ca 0a             	or     $0xa,%edx
80107ca2:	88 50 7d             	mov    %dl,0x7d(%eax)
80107ca5:	8b 45 f4             	mov    -0xc(%ebp),%eax
80107ca8:	0f b6 50 7d          	movzbl 0x7d(%eax),%edx
80107cac:	83 ca 10             	or     $0x10,%edx
80107caf:	88 50 7d             	mov    %dl,0x7d(%eax)
80107cb2:	8b 45 f4             	mov    -0xc(%ebp),%eax
80107cb5:	0f b6 50 7d          	movzbl 0x7d(%eax),%edx
80107cb9:	83 e2 9f             	and    $0xffffff9f,%edx
80107cbc:	88 50 7d             	mov    %dl,0x7d(%eax)
80107cbf:	8b 45 f4             	mov    -0xc(%ebp),%eax
80107cc2:	0f b6 50 7d          	movzbl 0x7d(%eax),%edx
80107cc6:	83 ca 80             	or     $0xffffff80,%edx
80107cc9:	88 50 7d             	mov    %dl,0x7d(%eax)
80107ccc:	8b 45 f4             	mov    -0xc(%ebp),%eax
80107ccf:	0f b6 50 7e          	movzbl 0x7e(%eax),%edx
80107cd3:	83 ca 0f             	or     $0xf,%edx
80107cd6:	88 50 7e             	mov    %dl,0x7e(%eax)
80107cd9:	8b 45 f4             	mov    -0xc(%ebp),%eax
80107cdc:	0f b6 50 7e          	movzbl 0x7e(%eax),%edx
80107ce0:	83 e2 ef             	and    $0xffffffef,%edx
80107ce3:	88 50 7e             	mov    %dl,0x7e(%eax)
80107ce6:	8b 45 f4             	mov    -0xc(%ebp),%eax
80107ce9:	0f b6 50 7e          	movzbl 0x7e(%eax),%edx
80107ced:	83 e2 df             	and    $0xffffffdf,%edx
80107cf0:	88 50 7e             	mov    %dl,0x7e(%eax)
80107cf3:	8b 45 f4             	mov    -0xc(%ebp),%eax
80107cf6:	0f b6 50 7e          	movzbl 0x7e(%eax),%edx
80107cfa:	83 ca 40             	or     $0x40,%edx
80107cfd:	88 50 7e             	mov    %dl,0x7e(%eax)
80107d00:	8b 45 f4             	mov    -0xc(%ebp),%eax
80107d03:	0f b6 50 7e          	movzbl 0x7e(%eax),%edx
80107d07:	83 ca 80             	or     $0xffffff80,%edx
80107d0a:	88 50 7e             	mov    %dl,0x7e(%eax)
80107d0d:	8b 45 f4             	mov    -0xc(%ebp),%eax
80107d10:	c6 40 7f 00          	movb   $0x0,0x7f(%eax)
  c->gdt[SEG_KDATA] = SEG(STA_W, 0, 0xffffffff, 0);
80107d14:	8b 45 f4             	mov    -0xc(%ebp),%eax
80107d17:	66 c7 80 80 00 00 00 	movw   $0xffff,0x80(%eax)
80107d1e:	ff ff 
80107d20:	8b 45 f4             	mov    -0xc(%ebp),%eax
80107d23:	66 c7 80 82 00 00 00 	movw   $0x0,0x82(%eax)
80107d2a:	00 00 
80107d2c:	8b 45 f4             	mov    -0xc(%ebp),%eax
80107d2f:	c6 80 84 00 00 00 00 	movb   $0x0,0x84(%eax)
80107d36:	8b 45 f4             	mov    -0xc(%ebp),%eax
80107d39:	0f b6 90 85 00 00 00 	movzbl 0x85(%eax),%edx
80107d40:	83 e2 f0             	and    $0xfffffff0,%edx
80107d43:	83 ca 02             	or     $0x2,%edx
80107d46:	88 90 85 00 00 00    	mov    %dl,0x85(%eax)
80107d4c:	8b 45 f4             	mov    -0xc(%ebp),%eax
80107d4f:	0f b6 90 85 00 00 00 	movzbl 0x85(%eax),%edx
80107d56:	83 ca 10             	or     $0x10,%edx
80107d59:	88 90 85 00 00 00    	mov    %dl,0x85(%eax)
80107d5f:	8b 45 f4             	mov    -0xc(%ebp),%eax
80107d62:	0f b6 90 85 00 00 00 	movzbl 0x85(%eax),%edx
80107d69:	83 e2 9f             	and    $0xffffff9f,%edx
80107d6c:	88 90 85 00 00 00    	mov    %dl,0x85(%eax)
80107d72:	8b 45 f4             	mov    -0xc(%ebp),%eax
80107d75:	0f b6 90 85 00 00 00 	movzbl 0x85(%eax),%edx
80107d7c:	83 ca 80             	or     $0xffffff80,%edx
80107d7f:	88 90 85 00 00 00    	mov    %dl,0x85(%eax)
80107d85:	8b 45 f4             	mov    -0xc(%ebp),%eax
80107d88:	0f b6 90 86 00 00 00 	movzbl 0x86(%eax),%edx
80107d8f:	83 ca 0f             	or     $0xf,%edx
80107d92:	88 90 86 00 00 00    	mov    %dl,0x86(%eax)
80107d98:	8b 45 f4             	mov    -0xc(%ebp),%eax
80107d9b:	0f b6 90 86 00 00 00 	movzbl 0x86(%eax),%edx
80107da2:	83 e2 ef             	and    $0xffffffef,%edx
80107da5:	88 90 86 00 00 00    	mov    %dl,0x86(%eax)
80107dab:	8b 45 f4             	mov    -0xc(%ebp),%eax
80107dae:	0f b6 90 86 00 00 00 	movzbl 0x86(%eax),%edx
80107db5:	83 e2 df             	and    $0xffffffdf,%edx
80107db8:	88 90 86 00 00 00    	mov    %dl,0x86(%eax)
80107dbe:	8b 45 f4             	mov    -0xc(%ebp),%eax
80107dc1:	0f b6 90 86 00 00 00 	movzbl 0x86(%eax),%edx
80107dc8:	83 ca 40             	or     $0x40,%edx
80107dcb:	88 90 86 00 00 00    	mov    %dl,0x86(%eax)
80107dd1:	8b 45 f4             	mov    -0xc(%ebp),%eax
80107dd4:	0f b6 90 86 00 00 00 	movzbl 0x86(%eax),%edx
80107ddb:	83 ca 80             	or     $0xffffff80,%edx
80107dde:	88 90 86 00 00 00    	mov    %dl,0x86(%eax)
80107de4:	8b 45 f4             	mov    -0xc(%ebp),%eax
80107de7:	c6 80 87 00 00 00 00 	movb   $0x0,0x87(%eax)
  c->gdt[SEG_UCODE] = SEG(STA_X|STA_R, 0, 0xffffffff, DPL_USER);
80107dee:	8b 45 f4             	mov    -0xc(%ebp),%eax
80107df1:	66 c7 80 90 00 00 00 	movw   $0xffff,0x90(%eax)
80107df8:	ff ff 
80107dfa:	8b 45 f4             	mov    -0xc(%ebp),%eax
80107dfd:	66 c7 80 92 00 00 00 	movw   $0x0,0x92(%eax)
80107e04:	00 00 
80107e06:	8b 45 f4             	mov    -0xc(%ebp),%eax
80107e09:	c6 80 94 00 00 00 00 	movb   $0x0,0x94(%eax)
80107e10:	8b 45 f4             	mov    -0xc(%ebp),%eax
80107e13:	0f b6 90 95 00 00 00 	movzbl 0x95(%eax),%edx
80107e1a:	83 e2 f0             	and    $0xfffffff0,%edx
80107e1d:	83 ca 0a             	or     $0xa,%edx
80107e20:	88 90 95 00 00 00    	mov    %dl,0x95(%eax)
80107e26:	8b 45 f4             	mov    -0xc(%ebp),%eax
80107e29:	0f b6 90 95 00 00 00 	movzbl 0x95(%eax),%edx
80107e30:	83 ca 10             	or     $0x10,%edx
80107e33:	88 90 95 00 00 00    	mov    %dl,0x95(%eax)
80107e39:	8b 45 f4             	mov    -0xc(%ebp),%eax
80107e3c:	0f b6 90 95 00 00 00 	movzbl 0x95(%eax),%edx
80107e43:	83 ca 60             	or     $0x60,%edx
80107e46:	88 90 95 00 00 00    	mov    %dl,0x95(%eax)
80107e4c:	8b 45 f4             	mov    -0xc(%ebp),%eax
80107e4f:	0f b6 90 95 00 00 00 	movzbl 0x95(%eax),%edx
80107e56:	83 ca 80             	or     $0xffffff80,%edx
80107e59:	88 90 95 00 00 00    	mov    %dl,0x95(%eax)
80107e5f:	8b 45 f4             	mov    -0xc(%ebp),%eax
80107e62:	0f b6 90 96 00 00 00 	movzbl 0x96(%eax),%edx
80107e69:	83 ca 0f             	or     $0xf,%edx
80107e6c:	88 90 96 00 00 00    	mov    %dl,0x96(%eax)
80107e72:	8b 45 f4             	mov    -0xc(%ebp),%eax
80107e75:	0f b6 90 96 00 00 00 	movzbl 0x96(%eax),%edx
80107e7c:	83 e2 ef             	and    $0xffffffef,%edx
80107e7f:	88 90 96 00 00 00    	mov    %dl,0x96(%eax)
80107e85:	8b 45 f4             	mov    -0xc(%ebp),%eax
80107e88:	0f b6 90 96 00 00 00 	movzbl 0x96(%eax),%edx
80107e8f:	83 e2 df             	and    $0xffffffdf,%edx
80107e92:	88 90 96 00 00 00    	mov    %dl,0x96(%eax)
80107e98:	8b 45 f4             	mov    -0xc(%ebp),%eax
80107e9b:	0f b6 90 96 00 00 00 	movzbl 0x96(%eax),%edx
80107ea2:	83 ca 40             	or     $0x40,%edx
80107ea5:	88 90 96 00 00 00    	mov    %dl,0x96(%eax)
80107eab:	8b 45 f4             	mov    -0xc(%ebp),%eax
80107eae:	0f b6 90 96 00 00 00 	movzbl 0x96(%eax),%edx
80107eb5:	83 ca 80             	or     $0xffffff80,%edx
80107eb8:	88 90 96 00 00 00    	mov    %dl,0x96(%eax)
80107ebe:	8b 45 f4             	mov    -0xc(%ebp),%eax
80107ec1:	c6 80 97 00 00 00 00 	movb   $0x0,0x97(%eax)
  c->gdt[SEG_UDATA] = SEG(STA_W, 0, 0xffffffff, DPL_USER);
80107ec8:	8b 45 f4             	mov    -0xc(%ebp),%eax
80107ecb:	66 c7 80 98 00 00 00 	movw   $0xffff,0x98(%eax)
80107ed2:	ff ff 
80107ed4:	8b 45 f4             	mov    -0xc(%ebp),%eax
80107ed7:	66 c7 80 9a 00 00 00 	movw   $0x0,0x9a(%eax)
80107ede:	00 00 
80107ee0:	8b 45 f4             	mov    -0xc(%ebp),%eax
80107ee3:	c6 80 9c 00 00 00 00 	movb   $0x0,0x9c(%eax)
80107eea:	8b 45 f4             	mov    -0xc(%ebp),%eax
80107eed:	0f b6 90 9d 00 00 00 	movzbl 0x9d(%eax),%edx
80107ef4:	83 e2 f0             	and    $0xfffffff0,%edx
80107ef7:	83 ca 02             	or     $0x2,%edx
80107efa:	88 90 9d 00 00 00    	mov    %dl,0x9d(%eax)
80107f00:	8b 45 f4             	mov    -0xc(%ebp),%eax
80107f03:	0f b6 90 9d 00 00 00 	movzbl 0x9d(%eax),%edx
80107f0a:	83 ca 10             	or     $0x10,%edx
80107f0d:	88 90 9d 00 00 00    	mov    %dl,0x9d(%eax)
80107f13:	8b 45 f4             	mov    -0xc(%ebp),%eax
80107f16:	0f b6 90 9d 00 00 00 	movzbl 0x9d(%eax),%edx
80107f1d:	83 ca 60             	or     $0x60,%edx
80107f20:	88 90 9d 00 00 00    	mov    %dl,0x9d(%eax)
80107f26:	8b 45 f4             	mov    -0xc(%ebp),%eax
80107f29:	0f b6 90 9d 00 00 00 	movzbl 0x9d(%eax),%edx
80107f30:	83 ca 80             	or     $0xffffff80,%edx
80107f33:	88 90 9d 00 00 00    	mov    %dl,0x9d(%eax)
80107f39:	8b 45 f4             	mov    -0xc(%ebp),%eax
80107f3c:	0f b6 90 9e 00 00 00 	movzbl 0x9e(%eax),%edx
80107f43:	83 ca 0f             	or     $0xf,%edx
80107f46:	88 90 9e 00 00 00    	mov    %dl,0x9e(%eax)
80107f4c:	8b 45 f4             	mov    -0xc(%ebp),%eax
80107f4f:	0f b6 90 9e 00 00 00 	movzbl 0x9e(%eax),%edx
80107f56:	83 e2 ef             	and    $0xffffffef,%edx
80107f59:	88 90 9e 00 00 00    	mov    %dl,0x9e(%eax)
80107f5f:	8b 45 f4             	mov    -0xc(%ebp),%eax
80107f62:	0f b6 90 9e 00 00 00 	movzbl 0x9e(%eax),%edx
80107f69:	83 e2 df             	and    $0xffffffdf,%edx
80107f6c:	88 90 9e 00 00 00    	mov    %dl,0x9e(%eax)
80107f72:	8b 45 f4             	mov    -0xc(%ebp),%eax
80107f75:	0f b6 90 9e 00 00 00 	movzbl 0x9e(%eax),%edx
80107f7c:	83 ca 40             	or     $0x40,%edx
80107f7f:	88 90 9e 00 00 00    	mov    %dl,0x9e(%eax)
80107f85:	8b 45 f4             	mov    -0xc(%ebp),%eax
80107f88:	0f b6 90 9e 00 00 00 	movzbl 0x9e(%eax),%edx
80107f8f:	83 ca 80             	or     $0xffffff80,%edx
80107f92:	88 90 9e 00 00 00    	mov    %dl,0x9e(%eax)
80107f98:	8b 45 f4             	mov    -0xc(%ebp),%eax
80107f9b:	c6 80 9f 00 00 00 00 	movb   $0x0,0x9f(%eax)

  // Map cpu, and curproc
  c->gdt[SEG_KCPU] = SEG(STA_W, &c->cpu, 8, 0);
80107fa2:	8b 45 f4             	mov    -0xc(%ebp),%eax
80107fa5:	05 b4 00 00 00       	add    $0xb4,%eax
80107faa:	89 c3                	mov    %eax,%ebx
80107fac:	8b 45 f4             	mov    -0xc(%ebp),%eax
80107faf:	05 b4 00 00 00       	add    $0xb4,%eax
80107fb4:	c1 e8 10             	shr    $0x10,%eax
80107fb7:	89 c2                	mov    %eax,%edx
80107fb9:	8b 45 f4             	mov    -0xc(%ebp),%eax
80107fbc:	05 b4 00 00 00       	add    $0xb4,%eax
80107fc1:	c1 e8 18             	shr    $0x18,%eax
80107fc4:	89 c1                	mov    %eax,%ecx
80107fc6:	8b 45 f4             	mov    -0xc(%ebp),%eax
80107fc9:	66 c7 80 88 00 00 00 	movw   $0x0,0x88(%eax)
80107fd0:	00 00 
80107fd2:	8b 45 f4             	mov    -0xc(%ebp),%eax
80107fd5:	66 89 98 8a 00 00 00 	mov    %bx,0x8a(%eax)
80107fdc:	8b 45 f4             	mov    -0xc(%ebp),%eax
80107fdf:	88 90 8c 00 00 00    	mov    %dl,0x8c(%eax)
80107fe5:	8b 45 f4             	mov    -0xc(%ebp),%eax
80107fe8:	0f b6 90 8d 00 00 00 	movzbl 0x8d(%eax),%edx
80107fef:	83 e2 f0             	and    $0xfffffff0,%edx
80107ff2:	83 ca 02             	or     $0x2,%edx
80107ff5:	88 90 8d 00 00 00    	mov    %dl,0x8d(%eax)
80107ffb:	8b 45 f4             	mov    -0xc(%ebp),%eax
80107ffe:	0f b6 90 8d 00 00 00 	movzbl 0x8d(%eax),%edx
80108005:	83 ca 10             	or     $0x10,%edx
80108008:	88 90 8d 00 00 00    	mov    %dl,0x8d(%eax)
8010800e:	8b 45 f4             	mov    -0xc(%ebp),%eax
80108011:	0f b6 90 8d 00 00 00 	movzbl 0x8d(%eax),%edx
80108018:	83 e2 9f             	and    $0xffffff9f,%edx
8010801b:	88 90 8d 00 00 00    	mov    %dl,0x8d(%eax)
80108021:	8b 45 f4             	mov    -0xc(%ebp),%eax
80108024:	0f b6 90 8d 00 00 00 	movzbl 0x8d(%eax),%edx
8010802b:	83 ca 80             	or     $0xffffff80,%edx
8010802e:	88 90 8d 00 00 00    	mov    %dl,0x8d(%eax)
80108034:	8b 45 f4             	mov    -0xc(%ebp),%eax
80108037:	0f b6 90 8e 00 00 00 	movzbl 0x8e(%eax),%edx
8010803e:	83 e2 f0             	and    $0xfffffff0,%edx
80108041:	88 90 8e 00 00 00    	mov    %dl,0x8e(%eax)
80108047:	8b 45 f4             	mov    -0xc(%ebp),%eax
8010804a:	0f b6 90 8e 00 00 00 	movzbl 0x8e(%eax),%edx
80108051:	83 e2 ef             	and    $0xffffffef,%edx
80108054:	88 90 8e 00 00 00    	mov    %dl,0x8e(%eax)
8010805a:	8b 45 f4             	mov    -0xc(%ebp),%eax
8010805d:	0f b6 90 8e 00 00 00 	movzbl 0x8e(%eax),%edx
80108064:	83 e2 df             	and    $0xffffffdf,%edx
80108067:	88 90 8e 00 00 00    	mov    %dl,0x8e(%eax)
8010806d:	8b 45 f4             	mov    -0xc(%ebp),%eax
80108070:	0f b6 90 8e 00 00 00 	movzbl 0x8e(%eax),%edx
80108077:	83 ca 40             	or     $0x40,%edx
8010807a:	88 90 8e 00 00 00    	mov    %dl,0x8e(%eax)
80108080:	8b 45 f4             	mov    -0xc(%ebp),%eax
80108083:	0f b6 90 8e 00 00 00 	movzbl 0x8e(%eax),%edx
8010808a:	83 ca 80             	or     $0xffffff80,%edx
8010808d:	88 90 8e 00 00 00    	mov    %dl,0x8e(%eax)
80108093:	8b 45 f4             	mov    -0xc(%ebp),%eax
80108096:	88 88 8f 00 00 00    	mov    %cl,0x8f(%eax)

  lgdt(c->gdt, sizeof(c->gdt));
8010809c:	8b 45 f4             	mov    -0xc(%ebp),%eax
8010809f:	83 c0 70             	add    $0x70,%eax
801080a2:	83 ec 08             	sub    $0x8,%esp
801080a5:	6a 38                	push   $0x38
801080a7:	50                   	push   %eax
801080a8:	e8 38 fb ff ff       	call   80107be5 <lgdt>
801080ad:	83 c4 10             	add    $0x10,%esp
  loadgs(SEG_KCPU << 3);
801080b0:	83 ec 0c             	sub    $0xc,%esp
801080b3:	6a 18                	push   $0x18
801080b5:	e8 6c fb ff ff       	call   80107c26 <loadgs>
801080ba:	83 c4 10             	add    $0x10,%esp
  
  // Initialize cpu-local storage.
  cpu = c;
801080bd:	8b 45 f4             	mov    -0xc(%ebp),%eax
801080c0:	65 a3 00 00 00 00    	mov    %eax,%gs:0x0
  proc = 0;
801080c6:	65 c7 05 04 00 00 00 	movl   $0x0,%gs:0x4
801080cd:	00 00 00 00 
}
801080d1:	90                   	nop
801080d2:	8b 5d fc             	mov    -0x4(%ebp),%ebx
801080d5:	c9                   	leave  
801080d6:	c3                   	ret    

801080d7 <walkpgdir>:
// Return the address of the PTE in page table pgdir
// that corresponds to virtual address va.  If alloc!=0,
// create any required page table pages.
static pte_t *
walkpgdir(pde_t *pgdir, const void *va, int alloc)
{
801080d7:	55                   	push   %ebp
801080d8:	89 e5                	mov    %esp,%ebp
801080da:	83 ec 18             	sub    $0x18,%esp
  pde_t *pde;
  pte_t *pgtab;

  pde = &pgdir[PDX(va)];
801080dd:	8b 45 0c             	mov    0xc(%ebp),%eax
801080e0:	c1 e8 16             	shr    $0x16,%eax
801080e3:	8d 14 85 00 00 00 00 	lea    0x0(,%eax,4),%edx
801080ea:	8b 45 08             	mov    0x8(%ebp),%eax
801080ed:	01 d0                	add    %edx,%eax
801080ef:	89 45 f0             	mov    %eax,-0x10(%ebp)
  if(*pde & PTE_P){
801080f2:	8b 45 f0             	mov    -0x10(%ebp),%eax
801080f5:	8b 00                	mov    (%eax),%eax
801080f7:	83 e0 01             	and    $0x1,%eax
801080fa:	85 c0                	test   %eax,%eax
801080fc:	74 18                	je     80108116 <walkpgdir+0x3f>
    pgtab = (pte_t*)p2v(PTE_ADDR(*pde));
801080fe:	8b 45 f0             	mov    -0x10(%ebp),%eax
80108101:	8b 00                	mov    (%eax),%eax
80108103:	25 00 f0 ff ff       	and    $0xfffff000,%eax
80108108:	50                   	push   %eax
80108109:	e8 47 fb ff ff       	call   80107c55 <p2v>
8010810e:	83 c4 04             	add    $0x4,%esp
80108111:	89 45 f4             	mov    %eax,-0xc(%ebp)
80108114:	eb 48                	jmp    8010815e <walkpgdir+0x87>
  } else {
    if(!alloc || (pgtab = (pte_t*)kalloc()) == 0)
80108116:	83 7d 10 00          	cmpl   $0x0,0x10(%ebp)
8010811a:	74 0e                	je     8010812a <walkpgdir+0x53>
8010811c:	e8 45 ab ff ff       	call   80102c66 <kalloc>
80108121:	89 45 f4             	mov    %eax,-0xc(%ebp)
80108124:	83 7d f4 00          	cmpl   $0x0,-0xc(%ebp)
80108128:	75 07                	jne    80108131 <walkpgdir+0x5a>
      return 0;
8010812a:	b8 00 00 00 00       	mov    $0x0,%eax
8010812f:	eb 44                	jmp    80108175 <walkpgdir+0x9e>
    // Make sure all those PTE_P bits are zero.
    memset(pgtab, 0, PGSIZE);
80108131:	83 ec 04             	sub    $0x4,%esp
80108134:	68 00 10 00 00       	push   $0x1000
80108139:	6a 00                	push   $0x0
8010813b:	ff 75 f4             	pushl  -0xc(%ebp)
8010813e:	e8 b6 d4 ff ff       	call   801055f9 <memset>
80108143:	83 c4 10             	add    $0x10,%esp
    // The permissions here are overly generous, but they can
    // be further restricted by the permissions in the page table 
    // entries, if necessary.
    *pde = v2p(pgtab) | PTE_P | PTE_W | PTE_U;
80108146:	83 ec 0c             	sub    $0xc,%esp
80108149:	ff 75 f4             	pushl  -0xc(%ebp)
8010814c:	e8 f7 fa ff ff       	call   80107c48 <v2p>
80108151:	83 c4 10             	add    $0x10,%esp
80108154:	83 c8 07             	or     $0x7,%eax
80108157:	89 c2                	mov    %eax,%edx
80108159:	8b 45 f0             	mov    -0x10(%ebp),%eax
8010815c:	89 10                	mov    %edx,(%eax)
  }
  return &pgtab[PTX(va)];
8010815e:	8b 45 0c             	mov    0xc(%ebp),%eax
80108161:	c1 e8 0c             	shr    $0xc,%eax
80108164:	25 ff 03 00 00       	and    $0x3ff,%eax
80108169:	8d 14 85 00 00 00 00 	lea    0x0(,%eax,4),%edx
80108170:	8b 45 f4             	mov    -0xc(%ebp),%eax
80108173:	01 d0                	add    %edx,%eax
}
80108175:	c9                   	leave  
80108176:	c3                   	ret    

80108177 <mappages>:
// Create PTEs for virtual addresses starting at va that refer to
// physical addresses starting at pa. va and size might not
// be page-aligned.
static int
mappages(pde_t *pgdir, void *va, uint size, uint pa, int perm)
{
80108177:	55                   	push   %ebp
80108178:	89 e5                	mov    %esp,%ebp
8010817a:	83 ec 18             	sub    $0x18,%esp
  char *a, *last;
  pte_t *pte;
  
  a = (char*)PGROUNDDOWN((uint)va);
8010817d:	8b 45 0c             	mov    0xc(%ebp),%eax
80108180:	25 00 f0 ff ff       	and    $0xfffff000,%eax
80108185:	89 45 f4             	mov    %eax,-0xc(%ebp)
  last = (char*)PGROUNDDOWN(((uint)va) + size - 1);
80108188:	8b 55 0c             	mov    0xc(%ebp),%edx
8010818b:	8b 45 10             	mov    0x10(%ebp),%eax
8010818e:	01 d0                	add    %edx,%eax
80108190:	83 e8 01             	sub    $0x1,%eax
80108193:	25 00 f0 ff ff       	and    $0xfffff000,%eax
80108198:	89 45 f0             	mov    %eax,-0x10(%ebp)
  for(;;){
    if((pte = walkpgdir(pgdir, a, 1)) == 0)
8010819b:	83 ec 04             	sub    $0x4,%esp
8010819e:	6a 01                	push   $0x1
801081a0:	ff 75 f4             	pushl  -0xc(%ebp)
801081a3:	ff 75 08             	pushl  0x8(%ebp)
801081a6:	e8 2c ff ff ff       	call   801080d7 <walkpgdir>
801081ab:	83 c4 10             	add    $0x10,%esp
801081ae:	89 45 ec             	mov    %eax,-0x14(%ebp)
801081b1:	83 7d ec 00          	cmpl   $0x0,-0x14(%ebp)
801081b5:	75 07                	jne    801081be <mappages+0x47>
      return -1;
801081b7:	b8 ff ff ff ff       	mov    $0xffffffff,%eax
801081bc:	eb 47                	jmp    80108205 <mappages+0x8e>
    if(*pte & PTE_P)
801081be:	8b 45 ec             	mov    -0x14(%ebp),%eax
801081c1:	8b 00                	mov    (%eax),%eax
801081c3:	83 e0 01             	and    $0x1,%eax
801081c6:	85 c0                	test   %eax,%eax
801081c8:	74 0d                	je     801081d7 <mappages+0x60>
      panic("remap");
801081ca:	83 ec 0c             	sub    $0xc,%esp
801081cd:	68 84 90 10 80       	push   $0x80109084
801081d2:	e8 8f 83 ff ff       	call   80100566 <panic>
    *pte = pa | perm | PTE_P;
801081d7:	8b 45 18             	mov    0x18(%ebp),%eax
801081da:	0b 45 14             	or     0x14(%ebp),%eax
801081dd:	83 c8 01             	or     $0x1,%eax
801081e0:	89 c2                	mov    %eax,%edx
801081e2:	8b 45 ec             	mov    -0x14(%ebp),%eax
801081e5:	89 10                	mov    %edx,(%eax)
    if(a == last)
801081e7:	8b 45 f4             	mov    -0xc(%ebp),%eax
801081ea:	3b 45 f0             	cmp    -0x10(%ebp),%eax
801081ed:	74 10                	je     801081ff <mappages+0x88>
      break;
    a += PGSIZE;
801081ef:	81 45 f4 00 10 00 00 	addl   $0x1000,-0xc(%ebp)
    pa += PGSIZE;
801081f6:	81 45 14 00 10 00 00 	addl   $0x1000,0x14(%ebp)
  }
801081fd:	eb 9c                	jmp    8010819b <mappages+0x24>
      return -1;
    if(*pte & PTE_P)
      panic("remap");
    *pte = pa | perm | PTE_P;
    if(a == last)
      break;
801081ff:	90                   	nop
    a += PGSIZE;
    pa += PGSIZE;
  }
  return 0;
80108200:	b8 00 00 00 00       	mov    $0x0,%eax
}
80108205:	c9                   	leave  
80108206:	c3                   	ret    

80108207 <setupkvm>:
};

// Set up kernel part of a page table.
pde_t*
setupkvm(void)
{
80108207:	55                   	push   %ebp
80108208:	89 e5                	mov    %esp,%ebp
8010820a:	53                   	push   %ebx
8010820b:	83 ec 14             	sub    $0x14,%esp
  pde_t *pgdir;
  struct kmap *k;

  if((pgdir = (pde_t*)kalloc()) == 0)
8010820e:	e8 53 aa ff ff       	call   80102c66 <kalloc>
80108213:	89 45 f0             	mov    %eax,-0x10(%ebp)
80108216:	83 7d f0 00          	cmpl   $0x0,-0x10(%ebp)
8010821a:	75 0a                	jne    80108226 <setupkvm+0x1f>
    return 0;
8010821c:	b8 00 00 00 00       	mov    $0x0,%eax
80108221:	e9 8e 00 00 00       	jmp    801082b4 <setupkvm+0xad>
  memset(pgdir, 0, PGSIZE);
80108226:	83 ec 04             	sub    $0x4,%esp
80108229:	68 00 10 00 00       	push   $0x1000
8010822e:	6a 00                	push   $0x0
80108230:	ff 75 f0             	pushl  -0x10(%ebp)
80108233:	e8 c1 d3 ff ff       	call   801055f9 <memset>
80108238:	83 c4 10             	add    $0x10,%esp
  if (p2v(PHYSTOP) > (void*)DEVSPACE)
8010823b:	83 ec 0c             	sub    $0xc,%esp
8010823e:	68 00 00 00 0e       	push   $0xe000000
80108243:	e8 0d fa ff ff       	call   80107c55 <p2v>
80108248:	83 c4 10             	add    $0x10,%esp
8010824b:	3d 00 00 00 fe       	cmp    $0xfe000000,%eax
80108250:	76 0d                	jbe    8010825f <setupkvm+0x58>
    panic("PHYSTOP too high");
80108252:	83 ec 0c             	sub    $0xc,%esp
80108255:	68 8a 90 10 80       	push   $0x8010908a
8010825a:	e8 07 83 ff ff       	call   80100566 <panic>
  for(k = kmap; k < &kmap[NELEM(kmap)]; k++)
8010825f:	c7 45 f4 c0 c4 10 80 	movl   $0x8010c4c0,-0xc(%ebp)
80108266:	eb 40                	jmp    801082a8 <setupkvm+0xa1>
    if(mappages(pgdir, k->virt, k->phys_end - k->phys_start, 
80108268:	8b 45 f4             	mov    -0xc(%ebp),%eax
8010826b:	8b 48 0c             	mov    0xc(%eax),%ecx
                (uint)k->phys_start, k->perm) < 0)
8010826e:	8b 45 f4             	mov    -0xc(%ebp),%eax
80108271:	8b 50 04             	mov    0x4(%eax),%edx
    return 0;
  memset(pgdir, 0, PGSIZE);
  if (p2v(PHYSTOP) > (void*)DEVSPACE)
    panic("PHYSTOP too high");
  for(k = kmap; k < &kmap[NELEM(kmap)]; k++)
    if(mappages(pgdir, k->virt, k->phys_end - k->phys_start, 
80108274:	8b 45 f4             	mov    -0xc(%ebp),%eax
80108277:	8b 58 08             	mov    0x8(%eax),%ebx
8010827a:	8b 45 f4             	mov    -0xc(%ebp),%eax
8010827d:	8b 40 04             	mov    0x4(%eax),%eax
80108280:	29 c3                	sub    %eax,%ebx
80108282:	8b 45 f4             	mov    -0xc(%ebp),%eax
80108285:	8b 00                	mov    (%eax),%eax
80108287:	83 ec 0c             	sub    $0xc,%esp
8010828a:	51                   	push   %ecx
8010828b:	52                   	push   %edx
8010828c:	53                   	push   %ebx
8010828d:	50                   	push   %eax
8010828e:	ff 75 f0             	pushl  -0x10(%ebp)
80108291:	e8 e1 fe ff ff       	call   80108177 <mappages>
80108296:	83 c4 20             	add    $0x20,%esp
80108299:	85 c0                	test   %eax,%eax
8010829b:	79 07                	jns    801082a4 <setupkvm+0x9d>
                (uint)k->phys_start, k->perm) < 0)
      return 0;
8010829d:	b8 00 00 00 00       	mov    $0x0,%eax
801082a2:	eb 10                	jmp    801082b4 <setupkvm+0xad>
  if((pgdir = (pde_t*)kalloc()) == 0)
    return 0;
  memset(pgdir, 0, PGSIZE);
  if (p2v(PHYSTOP) > (void*)DEVSPACE)
    panic("PHYSTOP too high");
  for(k = kmap; k < &kmap[NELEM(kmap)]; k++)
801082a4:	83 45 f4 10          	addl   $0x10,-0xc(%ebp)
801082a8:	81 7d f4 00 c5 10 80 	cmpl   $0x8010c500,-0xc(%ebp)
801082af:	72 b7                	jb     80108268 <setupkvm+0x61>
    if(mappages(pgdir, k->virt, k->phys_end - k->phys_start, 
                (uint)k->phys_start, k->perm) < 0)
      return 0;
  return pgdir;
801082b1:	8b 45 f0             	mov    -0x10(%ebp),%eax
}
801082b4:	8b 5d fc             	mov    -0x4(%ebp),%ebx
801082b7:	c9                   	leave  
801082b8:	c3                   	ret    

801082b9 <kvmalloc>:

// Allocate one page table for the machine for the kernel address
// space for scheduler processes.
void
kvmalloc(void)
{
801082b9:	55                   	push   %ebp
801082ba:	89 e5                	mov    %esp,%ebp
801082bc:	83 ec 08             	sub    $0x8,%esp
  kpgdir = setupkvm();
801082bf:	e8 43 ff ff ff       	call   80108207 <setupkvm>
801082c4:	a3 18 66 11 80       	mov    %eax,0x80116618
  switchkvm();
801082c9:	e8 03 00 00 00       	call   801082d1 <switchkvm>
}
801082ce:	90                   	nop
801082cf:	c9                   	leave  
801082d0:	c3                   	ret    

801082d1 <switchkvm>:

// Switch h/w page table register to the kernel-only page table,
// for when no process is running.
void
switchkvm(void)
{
801082d1:	55                   	push   %ebp
801082d2:	89 e5                	mov    %esp,%ebp
  lcr3(v2p(kpgdir));   // switch to the kernel page table
801082d4:	a1 18 66 11 80       	mov    0x80116618,%eax
801082d9:	50                   	push   %eax
801082da:	e8 69 f9 ff ff       	call   80107c48 <v2p>
801082df:	83 c4 04             	add    $0x4,%esp
801082e2:	50                   	push   %eax
801082e3:	e8 54 f9 ff ff       	call   80107c3c <lcr3>
801082e8:	83 c4 04             	add    $0x4,%esp
}
801082eb:	90                   	nop
801082ec:	c9                   	leave  
801082ed:	c3                   	ret    

801082ee <switchuvm>:

// Switch TSS and h/w page table to correspond to process p.
void
switchuvm(struct proc *p)
{
801082ee:	55                   	push   %ebp
801082ef:	89 e5                	mov    %esp,%ebp
801082f1:	56                   	push   %esi
801082f2:	53                   	push   %ebx
  pushcli();
801082f3:	e8 fb d1 ff ff       	call   801054f3 <pushcli>
  cpu->gdt[SEG_TSS] = SEG16(STS_T32A, &cpu->ts, sizeof(cpu->ts)-1, 0);
801082f8:	65 a1 00 00 00 00    	mov    %gs:0x0,%eax
801082fe:	65 8b 15 00 00 00 00 	mov    %gs:0x0,%edx
80108305:	83 c2 08             	add    $0x8,%edx
80108308:	89 d6                	mov    %edx,%esi
8010830a:	65 8b 15 00 00 00 00 	mov    %gs:0x0,%edx
80108311:	83 c2 08             	add    $0x8,%edx
80108314:	c1 ea 10             	shr    $0x10,%edx
80108317:	89 d3                	mov    %edx,%ebx
80108319:	65 8b 15 00 00 00 00 	mov    %gs:0x0,%edx
80108320:	83 c2 08             	add    $0x8,%edx
80108323:	c1 ea 18             	shr    $0x18,%edx
80108326:	89 d1                	mov    %edx,%ecx
80108328:	66 c7 80 a0 00 00 00 	movw   $0x67,0xa0(%eax)
8010832f:	67 00 
80108331:	66 89 b0 a2 00 00 00 	mov    %si,0xa2(%eax)
80108338:	88 98 a4 00 00 00    	mov    %bl,0xa4(%eax)
8010833e:	0f b6 90 a5 00 00 00 	movzbl 0xa5(%eax),%edx
80108345:	83 e2 f0             	and    $0xfffffff0,%edx
80108348:	83 ca 09             	or     $0x9,%edx
8010834b:	88 90 a5 00 00 00    	mov    %dl,0xa5(%eax)
80108351:	0f b6 90 a5 00 00 00 	movzbl 0xa5(%eax),%edx
80108358:	83 ca 10             	or     $0x10,%edx
8010835b:	88 90 a5 00 00 00    	mov    %dl,0xa5(%eax)
80108361:	0f b6 90 a5 00 00 00 	movzbl 0xa5(%eax),%edx
80108368:	83 e2 9f             	and    $0xffffff9f,%edx
8010836b:	88 90 a5 00 00 00    	mov    %dl,0xa5(%eax)
80108371:	0f b6 90 a5 00 00 00 	movzbl 0xa5(%eax),%edx
80108378:	83 ca 80             	or     $0xffffff80,%edx
8010837b:	88 90 a5 00 00 00    	mov    %dl,0xa5(%eax)
80108381:	0f b6 90 a6 00 00 00 	movzbl 0xa6(%eax),%edx
80108388:	83 e2 f0             	and    $0xfffffff0,%edx
8010838b:	88 90 a6 00 00 00    	mov    %dl,0xa6(%eax)
80108391:	0f b6 90 a6 00 00 00 	movzbl 0xa6(%eax),%edx
80108398:	83 e2 ef             	and    $0xffffffef,%edx
8010839b:	88 90 a6 00 00 00    	mov    %dl,0xa6(%eax)
801083a1:	0f b6 90 a6 00 00 00 	movzbl 0xa6(%eax),%edx
801083a8:	83 e2 df             	and    $0xffffffdf,%edx
801083ab:	88 90 a6 00 00 00    	mov    %dl,0xa6(%eax)
801083b1:	0f b6 90 a6 00 00 00 	movzbl 0xa6(%eax),%edx
801083b8:	83 ca 40             	or     $0x40,%edx
801083bb:	88 90 a6 00 00 00    	mov    %dl,0xa6(%eax)
801083c1:	0f b6 90 a6 00 00 00 	movzbl 0xa6(%eax),%edx
801083c8:	83 e2 7f             	and    $0x7f,%edx
801083cb:	88 90 a6 00 00 00    	mov    %dl,0xa6(%eax)
801083d1:	88 88 a7 00 00 00    	mov    %cl,0xa7(%eax)
  cpu->gdt[SEG_TSS].s = 0;
801083d7:	65 a1 00 00 00 00    	mov    %gs:0x0,%eax
801083dd:	0f b6 90 a5 00 00 00 	movzbl 0xa5(%eax),%edx
801083e4:	83 e2 ef             	and    $0xffffffef,%edx
801083e7:	88 90 a5 00 00 00    	mov    %dl,0xa5(%eax)
  cpu->ts.ss0 = SEG_KDATA << 3;
801083ed:	65 a1 00 00 00 00    	mov    %gs:0x0,%eax
801083f3:	66 c7 40 10 10 00    	movw   $0x10,0x10(%eax)
  cpu->ts.esp0 = (uint)proc->kstack + KSTACKSIZE;
801083f9:	65 a1 00 00 00 00    	mov    %gs:0x0,%eax
801083ff:	65 8b 15 04 00 00 00 	mov    %gs:0x4,%edx
80108406:	8b 52 08             	mov    0x8(%edx),%edx
80108409:	81 c2 00 10 00 00    	add    $0x1000,%edx
8010840f:	89 50 0c             	mov    %edx,0xc(%eax)
  ltr(SEG_TSS << 3);
80108412:	83 ec 0c             	sub    $0xc,%esp
80108415:	6a 30                	push   $0x30
80108417:	e8 f3 f7 ff ff       	call   80107c0f <ltr>
8010841c:	83 c4 10             	add    $0x10,%esp
  if(p->pgdir == 0)
8010841f:	8b 45 08             	mov    0x8(%ebp),%eax
80108422:	8b 40 04             	mov    0x4(%eax),%eax
80108425:	85 c0                	test   %eax,%eax
80108427:	75 0d                	jne    80108436 <switchuvm+0x148>
    panic("switchuvm: no pgdir");
80108429:	83 ec 0c             	sub    $0xc,%esp
8010842c:	68 9b 90 10 80       	push   $0x8010909b
80108431:	e8 30 81 ff ff       	call   80100566 <panic>
  lcr3(v2p(p->pgdir));  // switch to new address space
80108436:	8b 45 08             	mov    0x8(%ebp),%eax
80108439:	8b 40 04             	mov    0x4(%eax),%eax
8010843c:	83 ec 0c             	sub    $0xc,%esp
8010843f:	50                   	push   %eax
80108440:	e8 03 f8 ff ff       	call   80107c48 <v2p>
80108445:	83 c4 10             	add    $0x10,%esp
80108448:	83 ec 0c             	sub    $0xc,%esp
8010844b:	50                   	push   %eax
8010844c:	e8 eb f7 ff ff       	call   80107c3c <lcr3>
80108451:	83 c4 10             	add    $0x10,%esp
  popcli();
80108454:	e8 df d0 ff ff       	call   80105538 <popcli>
}
80108459:	90                   	nop
8010845a:	8d 65 f8             	lea    -0x8(%ebp),%esp
8010845d:	5b                   	pop    %ebx
8010845e:	5e                   	pop    %esi
8010845f:	5d                   	pop    %ebp
80108460:	c3                   	ret    

80108461 <inituvm>:

// Load the initcode into address 0 of pgdir.
// sz must be less than a page.
void
inituvm(pde_t *pgdir, char *init, uint sz)
{
80108461:	55                   	push   %ebp
80108462:	89 e5                	mov    %esp,%ebp
80108464:	83 ec 18             	sub    $0x18,%esp
  char *mem;
  
  if(sz >= PGSIZE)
80108467:	81 7d 10 ff 0f 00 00 	cmpl   $0xfff,0x10(%ebp)
8010846e:	76 0d                	jbe    8010847d <inituvm+0x1c>
    panic("inituvm: more than a page");
80108470:	83 ec 0c             	sub    $0xc,%esp
80108473:	68 af 90 10 80       	push   $0x801090af
80108478:	e8 e9 80 ff ff       	call   80100566 <panic>
  mem = kalloc();
8010847d:	e8 e4 a7 ff ff       	call   80102c66 <kalloc>
80108482:	89 45 f4             	mov    %eax,-0xc(%ebp)
  memset(mem, 0, PGSIZE);
80108485:	83 ec 04             	sub    $0x4,%esp
80108488:	68 00 10 00 00       	push   $0x1000
8010848d:	6a 00                	push   $0x0
8010848f:	ff 75 f4             	pushl  -0xc(%ebp)
80108492:	e8 62 d1 ff ff       	call   801055f9 <memset>
80108497:	83 c4 10             	add    $0x10,%esp
  mappages(pgdir, 0, PGSIZE, v2p(mem), PTE_W|PTE_U);
8010849a:	83 ec 0c             	sub    $0xc,%esp
8010849d:	ff 75 f4             	pushl  -0xc(%ebp)
801084a0:	e8 a3 f7 ff ff       	call   80107c48 <v2p>
801084a5:	83 c4 10             	add    $0x10,%esp
801084a8:	83 ec 0c             	sub    $0xc,%esp
801084ab:	6a 06                	push   $0x6
801084ad:	50                   	push   %eax
801084ae:	68 00 10 00 00       	push   $0x1000
801084b3:	6a 00                	push   $0x0
801084b5:	ff 75 08             	pushl  0x8(%ebp)
801084b8:	e8 ba fc ff ff       	call   80108177 <mappages>
801084bd:	83 c4 20             	add    $0x20,%esp
  memmove(mem, init, sz);
801084c0:	83 ec 04             	sub    $0x4,%esp
801084c3:	ff 75 10             	pushl  0x10(%ebp)
801084c6:	ff 75 0c             	pushl  0xc(%ebp)
801084c9:	ff 75 f4             	pushl  -0xc(%ebp)
801084cc:	e8 e7 d1 ff ff       	call   801056b8 <memmove>
801084d1:	83 c4 10             	add    $0x10,%esp
}
801084d4:	90                   	nop
801084d5:	c9                   	leave  
801084d6:	c3                   	ret    

801084d7 <loaduvm>:

// Load a program segment into pgdir.  addr must be page-aligned
// and the pages from addr to addr+sz must already be mapped.
int
loaduvm(pde_t *pgdir, char *addr, struct inode *ip, uint offset, uint sz)
{
801084d7:	55                   	push   %ebp
801084d8:	89 e5                	mov    %esp,%ebp
801084da:	53                   	push   %ebx
801084db:	83 ec 14             	sub    $0x14,%esp
  uint i, pa, n;
  pte_t *pte;

  if((uint) addr % PGSIZE != 0)
801084de:	8b 45 0c             	mov    0xc(%ebp),%eax
801084e1:	25 ff 0f 00 00       	and    $0xfff,%eax
801084e6:	85 c0                	test   %eax,%eax
801084e8:	74 0d                	je     801084f7 <loaduvm+0x20>
    panic("loaduvm: addr must be page aligned");
801084ea:	83 ec 0c             	sub    $0xc,%esp
801084ed:	68 cc 90 10 80       	push   $0x801090cc
801084f2:	e8 6f 80 ff ff       	call   80100566 <panic>
  for(i = 0; i < sz; i += PGSIZE){
801084f7:	c7 45 f4 00 00 00 00 	movl   $0x0,-0xc(%ebp)
801084fe:	e9 95 00 00 00       	jmp    80108598 <loaduvm+0xc1>
    if((pte = walkpgdir(pgdir, addr+i, 0)) == 0)
80108503:	8b 55 0c             	mov    0xc(%ebp),%edx
80108506:	8b 45 f4             	mov    -0xc(%ebp),%eax
80108509:	01 d0                	add    %edx,%eax
8010850b:	83 ec 04             	sub    $0x4,%esp
8010850e:	6a 00                	push   $0x0
80108510:	50                   	push   %eax
80108511:	ff 75 08             	pushl  0x8(%ebp)
80108514:	e8 be fb ff ff       	call   801080d7 <walkpgdir>
80108519:	83 c4 10             	add    $0x10,%esp
8010851c:	89 45 ec             	mov    %eax,-0x14(%ebp)
8010851f:	83 7d ec 00          	cmpl   $0x0,-0x14(%ebp)
80108523:	75 0d                	jne    80108532 <loaduvm+0x5b>
      panic("loaduvm: address should exist");
80108525:	83 ec 0c             	sub    $0xc,%esp
80108528:	68 ef 90 10 80       	push   $0x801090ef
8010852d:	e8 34 80 ff ff       	call   80100566 <panic>
    pa = PTE_ADDR(*pte);
80108532:	8b 45 ec             	mov    -0x14(%ebp),%eax
80108535:	8b 00                	mov    (%eax),%eax
80108537:	25 00 f0 ff ff       	and    $0xfffff000,%eax
8010853c:	89 45 e8             	mov    %eax,-0x18(%ebp)
    if(sz - i < PGSIZE)
8010853f:	8b 45 18             	mov    0x18(%ebp),%eax
80108542:	2b 45 f4             	sub    -0xc(%ebp),%eax
80108545:	3d ff 0f 00 00       	cmp    $0xfff,%eax
8010854a:	77 0b                	ja     80108557 <loaduvm+0x80>
      n = sz - i;
8010854c:	8b 45 18             	mov    0x18(%ebp),%eax
8010854f:	2b 45 f4             	sub    -0xc(%ebp),%eax
80108552:	89 45 f0             	mov    %eax,-0x10(%ebp)
80108555:	eb 07                	jmp    8010855e <loaduvm+0x87>
    else
      n = PGSIZE;
80108557:	c7 45 f0 00 10 00 00 	movl   $0x1000,-0x10(%ebp)
    if(readi(ip, p2v(pa), offset+i, n) != n)
8010855e:	8b 55 14             	mov    0x14(%ebp),%edx
80108561:	8b 45 f4             	mov    -0xc(%ebp),%eax
80108564:	8d 1c 02             	lea    (%edx,%eax,1),%ebx
80108567:	83 ec 0c             	sub    $0xc,%esp
8010856a:	ff 75 e8             	pushl  -0x18(%ebp)
8010856d:	e8 e3 f6 ff ff       	call   80107c55 <p2v>
80108572:	83 c4 10             	add    $0x10,%esp
80108575:	ff 75 f0             	pushl  -0x10(%ebp)
80108578:	53                   	push   %ebx
80108579:	50                   	push   %eax
8010857a:	ff 75 10             	pushl  0x10(%ebp)
8010857d:	e8 56 99 ff ff       	call   80101ed8 <readi>
80108582:	83 c4 10             	add    $0x10,%esp
80108585:	3b 45 f0             	cmp    -0x10(%ebp),%eax
80108588:	74 07                	je     80108591 <loaduvm+0xba>
      return -1;
8010858a:	b8 ff ff ff ff       	mov    $0xffffffff,%eax
8010858f:	eb 18                	jmp    801085a9 <loaduvm+0xd2>
  uint i, pa, n;
  pte_t *pte;

  if((uint) addr % PGSIZE != 0)
    panic("loaduvm: addr must be page aligned");
  for(i = 0; i < sz; i += PGSIZE){
80108591:	81 45 f4 00 10 00 00 	addl   $0x1000,-0xc(%ebp)
80108598:	8b 45 f4             	mov    -0xc(%ebp),%eax
8010859b:	3b 45 18             	cmp    0x18(%ebp),%eax
8010859e:	0f 82 5f ff ff ff    	jb     80108503 <loaduvm+0x2c>
    else
      n = PGSIZE;
    if(readi(ip, p2v(pa), offset+i, n) != n)
      return -1;
  }
  return 0;
801085a4:	b8 00 00 00 00       	mov    $0x0,%eax
}
801085a9:	8b 5d fc             	mov    -0x4(%ebp),%ebx
801085ac:	c9                   	leave  
801085ad:	c3                   	ret    

801085ae <allocuvm>:

// Allocate page tables and physical memory to grow process from oldsz to
// newsz, which need not be page aligned.  Returns new size or 0 on error.
int
allocuvm(pde_t *pgdir, uint oldsz, uint newsz)
{
801085ae:	55                   	push   %ebp
801085af:	89 e5                	mov    %esp,%ebp
801085b1:	83 ec 18             	sub    $0x18,%esp
  char *mem;
  uint a;

  if(newsz >= KERNBASE)
801085b4:	8b 45 10             	mov    0x10(%ebp),%eax
801085b7:	85 c0                	test   %eax,%eax
801085b9:	79 0a                	jns    801085c5 <allocuvm+0x17>
    return 0;
801085bb:	b8 00 00 00 00       	mov    $0x0,%eax
801085c0:	e9 b0 00 00 00       	jmp    80108675 <allocuvm+0xc7>
  if(newsz < oldsz)
801085c5:	8b 45 10             	mov    0x10(%ebp),%eax
801085c8:	3b 45 0c             	cmp    0xc(%ebp),%eax
801085cb:	73 08                	jae    801085d5 <allocuvm+0x27>
    return oldsz;
801085cd:	8b 45 0c             	mov    0xc(%ebp),%eax
801085d0:	e9 a0 00 00 00       	jmp    80108675 <allocuvm+0xc7>

  a = PGROUNDUP(oldsz);
801085d5:	8b 45 0c             	mov    0xc(%ebp),%eax
801085d8:	05 ff 0f 00 00       	add    $0xfff,%eax
801085dd:	25 00 f0 ff ff       	and    $0xfffff000,%eax
801085e2:	89 45 f4             	mov    %eax,-0xc(%ebp)
  for(; a < newsz; a += PGSIZE){
801085e5:	eb 7f                	jmp    80108666 <allocuvm+0xb8>
    mem = kalloc();
801085e7:	e8 7a a6 ff ff       	call   80102c66 <kalloc>
801085ec:	89 45 f0             	mov    %eax,-0x10(%ebp)
    if(mem == 0){
801085ef:	83 7d f0 00          	cmpl   $0x0,-0x10(%ebp)
801085f3:	75 2b                	jne    80108620 <allocuvm+0x72>
      cprintf("allocuvm out of memory\n");
801085f5:	83 ec 0c             	sub    $0xc,%esp
801085f8:	68 0d 91 10 80       	push   $0x8010910d
801085fd:	e8 c4 7d ff ff       	call   801003c6 <cprintf>
80108602:	83 c4 10             	add    $0x10,%esp
      deallocuvm(pgdir, newsz, oldsz);
80108605:	83 ec 04             	sub    $0x4,%esp
80108608:	ff 75 0c             	pushl  0xc(%ebp)
8010860b:	ff 75 10             	pushl  0x10(%ebp)
8010860e:	ff 75 08             	pushl  0x8(%ebp)
80108611:	e8 61 00 00 00       	call   80108677 <deallocuvm>
80108616:	83 c4 10             	add    $0x10,%esp
      return 0;
80108619:	b8 00 00 00 00       	mov    $0x0,%eax
8010861e:	eb 55                	jmp    80108675 <allocuvm+0xc7>
    }
    memset(mem, 0, PGSIZE);
80108620:	83 ec 04             	sub    $0x4,%esp
80108623:	68 00 10 00 00       	push   $0x1000
80108628:	6a 00                	push   $0x0
8010862a:	ff 75 f0             	pushl  -0x10(%ebp)
8010862d:	e8 c7 cf ff ff       	call   801055f9 <memset>
80108632:	83 c4 10             	add    $0x10,%esp
    mappages(pgdir, (char*)a, PGSIZE, v2p(mem), PTE_W|PTE_U);
80108635:	83 ec 0c             	sub    $0xc,%esp
80108638:	ff 75 f0             	pushl  -0x10(%ebp)
8010863b:	e8 08 f6 ff ff       	call   80107c48 <v2p>
80108640:	83 c4 10             	add    $0x10,%esp
80108643:	89 c2                	mov    %eax,%edx
80108645:	8b 45 f4             	mov    -0xc(%ebp),%eax
80108648:	83 ec 0c             	sub    $0xc,%esp
8010864b:	6a 06                	push   $0x6
8010864d:	52                   	push   %edx
8010864e:	68 00 10 00 00       	push   $0x1000
80108653:	50                   	push   %eax
80108654:	ff 75 08             	pushl  0x8(%ebp)
80108657:	e8 1b fb ff ff       	call   80108177 <mappages>
8010865c:	83 c4 20             	add    $0x20,%esp
    return 0;
  if(newsz < oldsz)
    return oldsz;

  a = PGROUNDUP(oldsz);
  for(; a < newsz; a += PGSIZE){
8010865f:	81 45 f4 00 10 00 00 	addl   $0x1000,-0xc(%ebp)
80108666:	8b 45 f4             	mov    -0xc(%ebp),%eax
80108669:	3b 45 10             	cmp    0x10(%ebp),%eax
8010866c:	0f 82 75 ff ff ff    	jb     801085e7 <allocuvm+0x39>
      return 0;
    }
    memset(mem, 0, PGSIZE);
    mappages(pgdir, (char*)a, PGSIZE, v2p(mem), PTE_W|PTE_U);
  }
  return newsz;
80108672:	8b 45 10             	mov    0x10(%ebp),%eax
}
80108675:	c9                   	leave  
80108676:	c3                   	ret    

80108677 <deallocuvm>:
// newsz.  oldsz and newsz need not be page-aligned, nor does newsz
// need to be less than oldsz.  oldsz can be larger than the actual
// process size.  Returns the new process size.
int
deallocuvm(pde_t *pgdir, uint oldsz, uint newsz)
{
80108677:	55                   	push   %ebp
80108678:	89 e5                	mov    %esp,%ebp
8010867a:	83 ec 18             	sub    $0x18,%esp
  pte_t *pte;
  uint a, pa;

  if(newsz >= oldsz)
8010867d:	8b 45 10             	mov    0x10(%ebp),%eax
80108680:	3b 45 0c             	cmp    0xc(%ebp),%eax
80108683:	72 08                	jb     8010868d <deallocuvm+0x16>
    return oldsz;
80108685:	8b 45 0c             	mov    0xc(%ebp),%eax
80108688:	e9 a5 00 00 00       	jmp    80108732 <deallocuvm+0xbb>

  a = PGROUNDUP(newsz);
8010868d:	8b 45 10             	mov    0x10(%ebp),%eax
80108690:	05 ff 0f 00 00       	add    $0xfff,%eax
80108695:	25 00 f0 ff ff       	and    $0xfffff000,%eax
8010869a:	89 45 f4             	mov    %eax,-0xc(%ebp)
  for(; a  < oldsz; a += PGSIZE){
8010869d:	e9 81 00 00 00       	jmp    80108723 <deallocuvm+0xac>
    pte = walkpgdir(pgdir, (char*)a, 0);
801086a2:	8b 45 f4             	mov    -0xc(%ebp),%eax
801086a5:	83 ec 04             	sub    $0x4,%esp
801086a8:	6a 00                	push   $0x0
801086aa:	50                   	push   %eax
801086ab:	ff 75 08             	pushl  0x8(%ebp)
801086ae:	e8 24 fa ff ff       	call   801080d7 <walkpgdir>
801086b3:	83 c4 10             	add    $0x10,%esp
801086b6:	89 45 f0             	mov    %eax,-0x10(%ebp)
    if(!pte)
801086b9:	83 7d f0 00          	cmpl   $0x0,-0x10(%ebp)
801086bd:	75 09                	jne    801086c8 <deallocuvm+0x51>
      a += (NPTENTRIES - 1) * PGSIZE;
801086bf:	81 45 f4 00 f0 3f 00 	addl   $0x3ff000,-0xc(%ebp)
801086c6:	eb 54                	jmp    8010871c <deallocuvm+0xa5>
    else if((*pte & PTE_P) != 0){
801086c8:	8b 45 f0             	mov    -0x10(%ebp),%eax
801086cb:	8b 00                	mov    (%eax),%eax
801086cd:	83 e0 01             	and    $0x1,%eax
801086d0:	85 c0                	test   %eax,%eax
801086d2:	74 48                	je     8010871c <deallocuvm+0xa5>
      pa = PTE_ADDR(*pte);
801086d4:	8b 45 f0             	mov    -0x10(%ebp),%eax
801086d7:	8b 00                	mov    (%eax),%eax
801086d9:	25 00 f0 ff ff       	and    $0xfffff000,%eax
801086de:	89 45 ec             	mov    %eax,-0x14(%ebp)
      if(pa == 0)
801086e1:	83 7d ec 00          	cmpl   $0x0,-0x14(%ebp)
801086e5:	75 0d                	jne    801086f4 <deallocuvm+0x7d>
        panic("kfree");
801086e7:	83 ec 0c             	sub    $0xc,%esp
801086ea:	68 25 91 10 80       	push   $0x80109125
801086ef:	e8 72 7e ff ff       	call   80100566 <panic>
      char *v = p2v(pa);
801086f4:	83 ec 0c             	sub    $0xc,%esp
801086f7:	ff 75 ec             	pushl  -0x14(%ebp)
801086fa:	e8 56 f5 ff ff       	call   80107c55 <p2v>
801086ff:	83 c4 10             	add    $0x10,%esp
80108702:	89 45 e8             	mov    %eax,-0x18(%ebp)
      kfree(v);
80108705:	83 ec 0c             	sub    $0xc,%esp
80108708:	ff 75 e8             	pushl  -0x18(%ebp)
8010870b:	e8 b9 a4 ff ff       	call   80102bc9 <kfree>
80108710:	83 c4 10             	add    $0x10,%esp
      *pte = 0;
80108713:	8b 45 f0             	mov    -0x10(%ebp),%eax
80108716:	c7 00 00 00 00 00    	movl   $0x0,(%eax)

  if(newsz >= oldsz)
    return oldsz;

  a = PGROUNDUP(newsz);
  for(; a  < oldsz; a += PGSIZE){
8010871c:	81 45 f4 00 10 00 00 	addl   $0x1000,-0xc(%ebp)
80108723:	8b 45 f4             	mov    -0xc(%ebp),%eax
80108726:	3b 45 0c             	cmp    0xc(%ebp),%eax
80108729:	0f 82 73 ff ff ff    	jb     801086a2 <deallocuvm+0x2b>
      char *v = p2v(pa);
      kfree(v);
      *pte = 0;
    }
  }
  return newsz;
8010872f:	8b 45 10             	mov    0x10(%ebp),%eax
}
80108732:	c9                   	leave  
80108733:	c3                   	ret    

80108734 <freevm>:

// Free a page table and all the physical memory pages
// in the user part.
void
freevm(pde_t *pgdir)
{
80108734:	55                   	push   %ebp
80108735:	89 e5                	mov    %esp,%ebp
80108737:	83 ec 18             	sub    $0x18,%esp
  uint i;

  if(pgdir == 0)
8010873a:	83 7d 08 00          	cmpl   $0x0,0x8(%ebp)
8010873e:	75 0d                	jne    8010874d <freevm+0x19>
    panic("freevm: no pgdir");
80108740:	83 ec 0c             	sub    $0xc,%esp
80108743:	68 2b 91 10 80       	push   $0x8010912b
80108748:	e8 19 7e ff ff       	call   80100566 <panic>
  deallocuvm(pgdir, KERNBASE, 0);
8010874d:	83 ec 04             	sub    $0x4,%esp
80108750:	6a 00                	push   $0x0
80108752:	68 00 00 00 80       	push   $0x80000000
80108757:	ff 75 08             	pushl  0x8(%ebp)
8010875a:	e8 18 ff ff ff       	call   80108677 <deallocuvm>
8010875f:	83 c4 10             	add    $0x10,%esp
  for(i = 0; i < NPDENTRIES; i++){
80108762:	c7 45 f4 00 00 00 00 	movl   $0x0,-0xc(%ebp)
80108769:	eb 4f                	jmp    801087ba <freevm+0x86>
    if(pgdir[i] & PTE_P){
8010876b:	8b 45 f4             	mov    -0xc(%ebp),%eax
8010876e:	8d 14 85 00 00 00 00 	lea    0x0(,%eax,4),%edx
80108775:	8b 45 08             	mov    0x8(%ebp),%eax
80108778:	01 d0                	add    %edx,%eax
8010877a:	8b 00                	mov    (%eax),%eax
8010877c:	83 e0 01             	and    $0x1,%eax
8010877f:	85 c0                	test   %eax,%eax
80108781:	74 33                	je     801087b6 <freevm+0x82>
      char * v = p2v(PTE_ADDR(pgdir[i]));
80108783:	8b 45 f4             	mov    -0xc(%ebp),%eax
80108786:	8d 14 85 00 00 00 00 	lea    0x0(,%eax,4),%edx
8010878d:	8b 45 08             	mov    0x8(%ebp),%eax
80108790:	01 d0                	add    %edx,%eax
80108792:	8b 00                	mov    (%eax),%eax
80108794:	25 00 f0 ff ff       	and    $0xfffff000,%eax
80108799:	83 ec 0c             	sub    $0xc,%esp
8010879c:	50                   	push   %eax
8010879d:	e8 b3 f4 ff ff       	call   80107c55 <p2v>
801087a2:	83 c4 10             	add    $0x10,%esp
801087a5:	89 45 f0             	mov    %eax,-0x10(%ebp)
      kfree(v);
801087a8:	83 ec 0c             	sub    $0xc,%esp
801087ab:	ff 75 f0             	pushl  -0x10(%ebp)
801087ae:	e8 16 a4 ff ff       	call   80102bc9 <kfree>
801087b3:	83 c4 10             	add    $0x10,%esp
  uint i;

  if(pgdir == 0)
    panic("freevm: no pgdir");
  deallocuvm(pgdir, KERNBASE, 0);
  for(i = 0; i < NPDENTRIES; i++){
801087b6:	83 45 f4 01          	addl   $0x1,-0xc(%ebp)
801087ba:	81 7d f4 ff 03 00 00 	cmpl   $0x3ff,-0xc(%ebp)
801087c1:	76 a8                	jbe    8010876b <freevm+0x37>
    if(pgdir[i] & PTE_P){
      char * v = p2v(PTE_ADDR(pgdir[i]));
      kfree(v);
    }
  }
  kfree((char*)pgdir);
801087c3:	83 ec 0c             	sub    $0xc,%esp
801087c6:	ff 75 08             	pushl  0x8(%ebp)
801087c9:	e8 fb a3 ff ff       	call   80102bc9 <kfree>
801087ce:	83 c4 10             	add    $0x10,%esp
}
801087d1:	90                   	nop
801087d2:	c9                   	leave  
801087d3:	c3                   	ret    

801087d4 <clearpteu>:

// Clear PTE_U on a page. Used to create an inaccessible
// page beneath the user stack.
void
clearpteu(pde_t *pgdir, char *uva)
{
801087d4:	55                   	push   %ebp
801087d5:	89 e5                	mov    %esp,%ebp
801087d7:	83 ec 18             	sub    $0x18,%esp
  pte_t *pte;

  pte = walkpgdir(pgdir, uva, 0);
801087da:	83 ec 04             	sub    $0x4,%esp
801087dd:	6a 00                	push   $0x0
801087df:	ff 75 0c             	pushl  0xc(%ebp)
801087e2:	ff 75 08             	pushl  0x8(%ebp)
801087e5:	e8 ed f8 ff ff       	call   801080d7 <walkpgdir>
801087ea:	83 c4 10             	add    $0x10,%esp
801087ed:	89 45 f4             	mov    %eax,-0xc(%ebp)
  if(pte == 0)
801087f0:	83 7d f4 00          	cmpl   $0x0,-0xc(%ebp)
801087f4:	75 0d                	jne    80108803 <clearpteu+0x2f>
    panic("clearpteu");
801087f6:	83 ec 0c             	sub    $0xc,%esp
801087f9:	68 3c 91 10 80       	push   $0x8010913c
801087fe:	e8 63 7d ff ff       	call   80100566 <panic>
  *pte &= ~PTE_U;
80108803:	8b 45 f4             	mov    -0xc(%ebp),%eax
80108806:	8b 00                	mov    (%eax),%eax
80108808:	83 e0 fb             	and    $0xfffffffb,%eax
8010880b:	89 c2                	mov    %eax,%edx
8010880d:	8b 45 f4             	mov    -0xc(%ebp),%eax
80108810:	89 10                	mov    %edx,(%eax)
}
80108812:	90                   	nop
80108813:	c9                   	leave  
80108814:	c3                   	ret    

80108815 <copyuvm>:

// Given a parent process's page table, create a copy
// of it for a child.
pde_t*
copyuvm(pde_t *pgdir, uint sz)
{
80108815:	55                   	push   %ebp
80108816:	89 e5                	mov    %esp,%ebp
80108818:	53                   	push   %ebx
80108819:	83 ec 24             	sub    $0x24,%esp
  pde_t *d;
  pte_t *pte;
  uint pa, i, flags;
  char *mem;

  if((d = setupkvm()) == 0)
8010881c:	e8 e6 f9 ff ff       	call   80108207 <setupkvm>
80108821:	89 45 f0             	mov    %eax,-0x10(%ebp)
80108824:	83 7d f0 00          	cmpl   $0x0,-0x10(%ebp)
80108828:	75 0a                	jne    80108834 <copyuvm+0x1f>
    return 0;
8010882a:	b8 00 00 00 00       	mov    $0x0,%eax
8010882f:	e9 f8 00 00 00       	jmp    8010892c <copyuvm+0x117>
  for(i = 0; i < sz; i += PGSIZE){
80108834:	c7 45 f4 00 00 00 00 	movl   $0x0,-0xc(%ebp)
8010883b:	e9 c4 00 00 00       	jmp    80108904 <copyuvm+0xef>
    if((pte = walkpgdir(pgdir, (void *) i, 0)) == 0)
80108840:	8b 45 f4             	mov    -0xc(%ebp),%eax
80108843:	83 ec 04             	sub    $0x4,%esp
80108846:	6a 00                	push   $0x0
80108848:	50                   	push   %eax
80108849:	ff 75 08             	pushl  0x8(%ebp)
8010884c:	e8 86 f8 ff ff       	call   801080d7 <walkpgdir>
80108851:	83 c4 10             	add    $0x10,%esp
80108854:	89 45 ec             	mov    %eax,-0x14(%ebp)
80108857:	83 7d ec 00          	cmpl   $0x0,-0x14(%ebp)
8010885b:	75 0d                	jne    8010886a <copyuvm+0x55>
      panic("copyuvm: pte should exist");
8010885d:	83 ec 0c             	sub    $0xc,%esp
80108860:	68 46 91 10 80       	push   $0x80109146
80108865:	e8 fc 7c ff ff       	call   80100566 <panic>
    if(!(*pte & PTE_P))
8010886a:	8b 45 ec             	mov    -0x14(%ebp),%eax
8010886d:	8b 00                	mov    (%eax),%eax
8010886f:	83 e0 01             	and    $0x1,%eax
80108872:	85 c0                	test   %eax,%eax
80108874:	75 0d                	jne    80108883 <copyuvm+0x6e>
      panic("copyuvm: page not present");
80108876:	83 ec 0c             	sub    $0xc,%esp
80108879:	68 60 91 10 80       	push   $0x80109160
8010887e:	e8 e3 7c ff ff       	call   80100566 <panic>
    pa = PTE_ADDR(*pte);
80108883:	8b 45 ec             	mov    -0x14(%ebp),%eax
80108886:	8b 00                	mov    (%eax),%eax
80108888:	25 00 f0 ff ff       	and    $0xfffff000,%eax
8010888d:	89 45 e8             	mov    %eax,-0x18(%ebp)
    flags = PTE_FLAGS(*pte);
80108890:	8b 45 ec             	mov    -0x14(%ebp),%eax
80108893:	8b 00                	mov    (%eax),%eax
80108895:	25 ff 0f 00 00       	and    $0xfff,%eax
8010889a:	89 45 e4             	mov    %eax,-0x1c(%ebp)
    if((mem = kalloc()) == 0)
8010889d:	e8 c4 a3 ff ff       	call   80102c66 <kalloc>
801088a2:	89 45 e0             	mov    %eax,-0x20(%ebp)
801088a5:	83 7d e0 00          	cmpl   $0x0,-0x20(%ebp)
801088a9:	74 6a                	je     80108915 <copyuvm+0x100>
      goto bad;
    memmove(mem, (char*)p2v(pa), PGSIZE);
801088ab:	83 ec 0c             	sub    $0xc,%esp
801088ae:	ff 75 e8             	pushl  -0x18(%ebp)
801088b1:	e8 9f f3 ff ff       	call   80107c55 <p2v>
801088b6:	83 c4 10             	add    $0x10,%esp
801088b9:	83 ec 04             	sub    $0x4,%esp
801088bc:	68 00 10 00 00       	push   $0x1000
801088c1:	50                   	push   %eax
801088c2:	ff 75 e0             	pushl  -0x20(%ebp)
801088c5:	e8 ee cd ff ff       	call   801056b8 <memmove>
801088ca:	83 c4 10             	add    $0x10,%esp
    if(mappages(d, (void*)i, PGSIZE, v2p(mem), flags) < 0)
801088cd:	8b 5d e4             	mov    -0x1c(%ebp),%ebx
801088d0:	83 ec 0c             	sub    $0xc,%esp
801088d3:	ff 75 e0             	pushl  -0x20(%ebp)
801088d6:	e8 6d f3 ff ff       	call   80107c48 <v2p>
801088db:	83 c4 10             	add    $0x10,%esp
801088de:	89 c2                	mov    %eax,%edx
801088e0:	8b 45 f4             	mov    -0xc(%ebp),%eax
801088e3:	83 ec 0c             	sub    $0xc,%esp
801088e6:	53                   	push   %ebx
801088e7:	52                   	push   %edx
801088e8:	68 00 10 00 00       	push   $0x1000
801088ed:	50                   	push   %eax
801088ee:	ff 75 f0             	pushl  -0x10(%ebp)
801088f1:	e8 81 f8 ff ff       	call   80108177 <mappages>
801088f6:	83 c4 20             	add    $0x20,%esp
801088f9:	85 c0                	test   %eax,%eax
801088fb:	78 1b                	js     80108918 <copyuvm+0x103>
  uint pa, i, flags;
  char *mem;

  if((d = setupkvm()) == 0)
    return 0;
  for(i = 0; i < sz; i += PGSIZE){
801088fd:	81 45 f4 00 10 00 00 	addl   $0x1000,-0xc(%ebp)
80108904:	8b 45 f4             	mov    -0xc(%ebp),%eax
80108907:	3b 45 0c             	cmp    0xc(%ebp),%eax
8010890a:	0f 82 30 ff ff ff    	jb     80108840 <copyuvm+0x2b>
      goto bad;
    memmove(mem, (char*)p2v(pa), PGSIZE);
    if(mappages(d, (void*)i, PGSIZE, v2p(mem), flags) < 0)
      goto bad;
  }
  return d;
80108910:	8b 45 f0             	mov    -0x10(%ebp),%eax
80108913:	eb 17                	jmp    8010892c <copyuvm+0x117>
    if(!(*pte & PTE_P))
      panic("copyuvm: page not present");
    pa = PTE_ADDR(*pte);
    flags = PTE_FLAGS(*pte);
    if((mem = kalloc()) == 0)
      goto bad;
80108915:	90                   	nop
80108916:	eb 01                	jmp    80108919 <copyuvm+0x104>
    memmove(mem, (char*)p2v(pa), PGSIZE);
    if(mappages(d, (void*)i, PGSIZE, v2p(mem), flags) < 0)
      goto bad;
80108918:	90                   	nop
  }
  return d;

bad:
  freevm(d);
80108919:	83 ec 0c             	sub    $0xc,%esp
8010891c:	ff 75 f0             	pushl  -0x10(%ebp)
8010891f:	e8 10 fe ff ff       	call   80108734 <freevm>
80108924:	83 c4 10             	add    $0x10,%esp
  return 0;
80108927:	b8 00 00 00 00       	mov    $0x0,%eax
}
8010892c:	8b 5d fc             	mov    -0x4(%ebp),%ebx
8010892f:	c9                   	leave  
80108930:	c3                   	ret    

80108931 <uva2ka>:

//PAGEBREAK!
// Map user virtual address to kernel address.
char*
uva2ka(pde_t *pgdir, char *uva)
{
80108931:	55                   	push   %ebp
80108932:	89 e5                	mov    %esp,%ebp
80108934:	83 ec 18             	sub    $0x18,%esp
  pte_t *pte;

  pte = walkpgdir(pgdir, uva, 0);
80108937:	83 ec 04             	sub    $0x4,%esp
8010893a:	6a 00                	push   $0x0
8010893c:	ff 75 0c             	pushl  0xc(%ebp)
8010893f:	ff 75 08             	pushl  0x8(%ebp)
80108942:	e8 90 f7 ff ff       	call   801080d7 <walkpgdir>
80108947:	83 c4 10             	add    $0x10,%esp
8010894a:	89 45 f4             	mov    %eax,-0xc(%ebp)
  if((*pte & PTE_P) == 0)
8010894d:	8b 45 f4             	mov    -0xc(%ebp),%eax
80108950:	8b 00                	mov    (%eax),%eax
80108952:	83 e0 01             	and    $0x1,%eax
80108955:	85 c0                	test   %eax,%eax
80108957:	75 07                	jne    80108960 <uva2ka+0x2f>
    return 0;
80108959:	b8 00 00 00 00       	mov    $0x0,%eax
8010895e:	eb 29                	jmp    80108989 <uva2ka+0x58>
  if((*pte & PTE_U) == 0)
80108960:	8b 45 f4             	mov    -0xc(%ebp),%eax
80108963:	8b 00                	mov    (%eax),%eax
80108965:	83 e0 04             	and    $0x4,%eax
80108968:	85 c0                	test   %eax,%eax
8010896a:	75 07                	jne    80108973 <uva2ka+0x42>
    return 0;
8010896c:	b8 00 00 00 00       	mov    $0x0,%eax
80108971:	eb 16                	jmp    80108989 <uva2ka+0x58>
  return (char*)p2v(PTE_ADDR(*pte));
80108973:	8b 45 f4             	mov    -0xc(%ebp),%eax
80108976:	8b 00                	mov    (%eax),%eax
80108978:	25 00 f0 ff ff       	and    $0xfffff000,%eax
8010897d:	83 ec 0c             	sub    $0xc,%esp
80108980:	50                   	push   %eax
80108981:	e8 cf f2 ff ff       	call   80107c55 <p2v>
80108986:	83 c4 10             	add    $0x10,%esp
}
80108989:	c9                   	leave  
8010898a:	c3                   	ret    

8010898b <copyout>:
// Copy len bytes from p to user address va in page table pgdir.
// Most useful when pgdir is not the current page table.
// uva2ka ensures this only works for PTE_U pages.
int
copyout(pde_t *pgdir, uint va, void *p, uint len)
{
8010898b:	55                   	push   %ebp
8010898c:	89 e5                	mov    %esp,%ebp
8010898e:	83 ec 18             	sub    $0x18,%esp
  char *buf, *pa0;
  uint n, va0;

  buf = (char*)p;
80108991:	8b 45 10             	mov    0x10(%ebp),%eax
80108994:	89 45 f4             	mov    %eax,-0xc(%ebp)
  while(len > 0){
80108997:	eb 7f                	jmp    80108a18 <copyout+0x8d>
    va0 = (uint)PGROUNDDOWN(va);
80108999:	8b 45 0c             	mov    0xc(%ebp),%eax
8010899c:	25 00 f0 ff ff       	and    $0xfffff000,%eax
801089a1:	89 45 ec             	mov    %eax,-0x14(%ebp)
    pa0 = uva2ka(pgdir, (char*)va0);
801089a4:	8b 45 ec             	mov    -0x14(%ebp),%eax
801089a7:	83 ec 08             	sub    $0x8,%esp
801089aa:	50                   	push   %eax
801089ab:	ff 75 08             	pushl  0x8(%ebp)
801089ae:	e8 7e ff ff ff       	call   80108931 <uva2ka>
801089b3:	83 c4 10             	add    $0x10,%esp
801089b6:	89 45 e8             	mov    %eax,-0x18(%ebp)
    if(pa0 == 0)
801089b9:	83 7d e8 00          	cmpl   $0x0,-0x18(%ebp)
801089bd:	75 07                	jne    801089c6 <copyout+0x3b>
      return -1;
801089bf:	b8 ff ff ff ff       	mov    $0xffffffff,%eax
801089c4:	eb 61                	jmp    80108a27 <copyout+0x9c>
    n = PGSIZE - (va - va0);
801089c6:	8b 45 ec             	mov    -0x14(%ebp),%eax
801089c9:	2b 45 0c             	sub    0xc(%ebp),%eax
801089cc:	05 00 10 00 00       	add    $0x1000,%eax
801089d1:	89 45 f0             	mov    %eax,-0x10(%ebp)
    if(n > len)
801089d4:	8b 45 f0             	mov    -0x10(%ebp),%eax
801089d7:	3b 45 14             	cmp    0x14(%ebp),%eax
801089da:	76 06                	jbe    801089e2 <copyout+0x57>
      n = len;
801089dc:	8b 45 14             	mov    0x14(%ebp),%eax
801089df:	89 45 f0             	mov    %eax,-0x10(%ebp)
    memmove(pa0 + (va - va0), buf, n);
801089e2:	8b 45 0c             	mov    0xc(%ebp),%eax
801089e5:	2b 45 ec             	sub    -0x14(%ebp),%eax
801089e8:	89 c2                	mov    %eax,%edx
801089ea:	8b 45 e8             	mov    -0x18(%ebp),%eax
801089ed:	01 d0                	add    %edx,%eax
801089ef:	83 ec 04             	sub    $0x4,%esp
801089f2:	ff 75 f0             	pushl  -0x10(%ebp)
801089f5:	ff 75 f4             	pushl  -0xc(%ebp)
801089f8:	50                   	push   %eax
801089f9:	e8 ba cc ff ff       	call   801056b8 <memmove>
801089fe:	83 c4 10             	add    $0x10,%esp
    len -= n;
80108a01:	8b 45 f0             	mov    -0x10(%ebp),%eax
80108a04:	29 45 14             	sub    %eax,0x14(%ebp)
    buf += n;
80108a07:	8b 45 f0             	mov    -0x10(%ebp),%eax
80108a0a:	01 45 f4             	add    %eax,-0xc(%ebp)
    va = va0 + PGSIZE;
80108a0d:	8b 45 ec             	mov    -0x14(%ebp),%eax
80108a10:	05 00 10 00 00       	add    $0x1000,%eax
80108a15:	89 45 0c             	mov    %eax,0xc(%ebp)
{
  char *buf, *pa0;
  uint n, va0;

  buf = (char*)p;
  while(len > 0){
80108a18:	83 7d 14 00          	cmpl   $0x0,0x14(%ebp)
80108a1c:	0f 85 77 ff ff ff    	jne    80108999 <copyout+0xe>
    memmove(pa0 + (va - va0), buf, n);
    len -= n;
    buf += n;
    va = va0 + PGSIZE;
  }
  return 0;
80108a22:	b8 00 00 00 00       	mov    $0x0,%eax
}
80108a27:	c9                   	leave  
80108a28:	c3                   	ret    
